 Galaxa

 Timestamp is 5662922b (Sat Dec 05 02:28:43 2015)

 Preferred load address is 00400000

 Start         Length     Name                   Class
 0001:00000000 0015e2f1H .textbss                DATA
 0002:00000000 0007b302H .text                   CODE
 0002:0007b310 00002582H .text$x                 CODE
 0002:0007d8a0 00001064H .text$yc                CODE
 0002:0007e910 00001012H .text$yd                CODE
 0003:00000000 0003e64bH D3D                     CODE
 0003:0003e650 0001f71aH D3D_RD                  CODE
 0003:0005dd70 00009b8aH D3D_URW                 CODE
 0004:00000000 0002c3c8H D3DX                    CODE
 0004:0002c3c8 000065f6H D3DX_RD                 CODE
 0005:00000000 00035653H XGRPH                   CODE
 0005:00035658 0000a093H XGRPH_RD                CODE
 0005:0003f6f0 00002046H XGRPH_RW                CODE
 0006:00000000 00028a16H DSOUND                  CODE
 0006:00028a18 0002725dH DSOUND_RD               CODE
 0006:0004fc78 00001c82H DSOUND_RW               CODE
 0006:00051900 0000129eH DSOUND_URW              CODE
 0007:00000000 0005b8b1H XNET                    CODE
 0007:0005b8b8 0001206eH XNET_RD                 CODE
 0008:00000000 00086aa5H XONLINE                 CODE
 0009:00000000 00001005H .XID$A                  CODE
 0009:00001008 00001005H .XID$Gamepad            CODE
 0009:00002010 00001005H .XID$IrRemote           CODE
 0009:00003018 00001005H .XID$ZZZ                CODE
 0009:00004020 00001005H .XPP$ClassA             CODE
 0009:00005028 0000100aH .XPP$ClassHawk          CODE
 0009:00006034 00001005H .XPP$ClassMU            CODE
 0009:0000703c 0000100aH .XPP$ClassXID           CODE
 0009:00008048 00001005H .XPP$ClassZZHub         CODE
 0009:00009050 00001005H .XPP$ClassZZZ           CODE
 0009:0000a055 00001001H .XPP$DATA               CODE
 0009:0000b058 000012f0H .XPP$Data               CODE
 0009:0000c348 00002630H .XPPCINIT               CODE
 0009:0000e978 0000f552H .XPPCODE                CODE
 0009:0001ded0 000064c0H .XPPRDATA               CODE
 0009:00024390 00001160H .XPPRINIT               CODE
 000a:00000000 00014611H .rdata                  DATA
 000a:00014614 00000182H .rdata$debug            DATA
 000a:00014798 00000104H .rtc$IAA                DATA
 000a:0001489c 000001dcH .rtc$IMZ                DATA
 000a:00014a78 00000104H .rtc$IZZ                DATA
 000a:00014b7c 00000104H .rtc$TAA                DATA
 000a:00014c80 000001dcH .rtc$TMZ                DATA
 000a:00014e5c 00000104H .rtc$TZZ                DATA
 000a:00014f60 0000207bH .xdata$x                DATA
 000a:00016fdb 00000000H .edata                  DATA
 000b:00000000 00000104H .CRT$RIA                DATA
 000b:00000104 00000104H .CRT$RII10              DATA
 000b:00000208 00000104H .CRT$RII15              DATA
 000b:0000030c 00000104H .CRT$RII20              DATA
 000b:00000410 00000104H .CRT$RIZ                DATA
 000b:00000514 00000104H .CRT$XCA                DATA
 000b:00000618 0000014eH .CRT$XCU                DATA
 000b:00000768 00000104H .CRT$XCZ                DATA
 000b:0000086c 00000104H .CRT$XIA                DATA
 000b:00000970 00000104H .CRT$XIB                DATA
 000b:00000a74 0000010eH .CRT$XIC                DATA
 000b:00000b84 00000104H .CRT$XIY                DATA
 000b:00000c88 00000104H .CRT$XIZ                DATA
 000b:00000d8c 00000104H .CRT$XPA                DATA
 000b:00000e90 00000104H .CRT$XPX                DATA
 000b:00000f94 00000104H .CRT$XPZ                DATA
 000b:00001098 00000104H .CRT$XTA                DATA
 000b:0000119c 00000104H .CRT$XTB                DATA
 000b:000012a0 00000104H .CRT$XTZ                DATA
 000b:000013a4 00000104H .XAPI$LNA               DATA
 000b:000014a8 00000104H .XAPI$LNI               DATA
 000b:000015ac 00000104H .XAPI$LNZ               DATA
 000b:000016b0 00049078H .data                   DATA
 000b:0004a740 0000cd74H .bss                    DATA
 000c:00000000 00000014H .idata$2                DATA
 000c:00000014 00000014H .idata$3                DATA
 000c:00000028 000003a4H .idata$4                DATA
 000c:000003cc 000003a4H .idata$5                DATA
 000c:00000770 0000010fH .idata$6                DATA
 000d:00000000 00008933H DOLBY                   DATA
 000e:00000000 00029a3dH XON_RD                  DATA
 000f:00000000 00000101H .tls                    DATA
 000f:00000108 000001a3H .tls$                   DATA
 000f:000002ab 00000101H .tls$ZZZ                DATA
 0010:00000000 00000113H .XBLD$A                 DATA
 0010:00000114 000001caH .XBLD$V                 DATA

  Address         Publics by Value              Rva+Base     Lib:Object

 0000:00000000       ___safe_se_handler_count   00000000     <absolute>
 0000:00000000       ___safe_se_handler_table   00000000     <absolute>
 0000:00000000       __except_list              00000000     <absolute>
 0000:00000004       __tls_array                00000004     <absolute>
 0001:00000000       __enc$textbss$begin        00400480     <linker-defined>
 0001:0015e2f1       __enc$textbss$end          0055e771     <linker-defined>
 0002:00014010       ??0Bullet@@QAE@MMMMHH@Z    00572790 f   Bullet.obj
 0002:00014140       ?setPosition@ObjectC@@UAEXPAUVector2D@@@Z 005728c0 f i Bullet.obj
 0002:000141a0       ?setPosition@ObjectC@@UAEXMM@Z 00572920 f i Bullet.obj
 0002:00014200       ??_GBullet@@UAEPAXI@Z      00572980 f i Bullet.obj
 0002:00014200       ??_EBullet@@UAEPAXI@Z      00572980 f i Bullet.obj
 0002:00014270       ??1Bullet@@UAE@XZ          005729f0 f   Bullet.obj
 0002:000142d0       ?UpdateBullet@Bullet@@QAEXI@Z 00572a50 f   Bullet.obj
 0002:00014460       _sqrtf                     00572be0 f i Bullet.obj
 0002:000144c0       ?pow@@YAMMH@Z              00572c40 f i Bullet.obj
 0002:00014520       ?getPosition@ObjectC@@QAEPAUVector2D@@XZ 00572ca0 f i Bullet.obj
 0002:00014560       ?setVelocity@ObjectC@@QAEXMM@Z 00572ce0 f i Bullet.obj
 0002:000145c0       ?getVelocity@ObjectC@@QAEPAUVector2D@@XZ 00572d40 f i Bullet.obj
 0002:00014600       ?GetInstance@SpriteManager@@SAPAV1@XZ 00572d80 f i Bullet.obj
 0002:00014640       ??$_Pow_int@M@@YAMMH@Z     00572dc0 f i Bullet.obj
 0002:00014720       ??0Enemy@@QAE@I@Z          00572ea0 f   Enemy.obj
 0002:00014890       ??_GEnemy@@UAEPAXI@Z       00573010 f i Enemy.obj
 0002:00014890       ??_EEnemy@@UAEPAXI@Z       00573010 f i Enemy.obj
 0002:00014900       ?hit@Enemy@@QAEHXZ         00573080 f   Enemy.obj
 0002:00014a00       ?GetInstance@CGame@@SAPAV1@XZ 00573180 f i Enemy.obj
 0002:00014a40       ?GetJsyAudioHandle@CGame@@QAEPAXXZ 005731c0 f i Enemy.obj
 0002:00014a80       ??1Enemy@@UAE@XZ           00573200 f   Enemy.obj
 0002:00014b80       ?update@Enemy@@QAEXI@Z     00573300 f   Enemy.obj
 0002:00014d40       ?sqrt@@YAMM@Z              005734c0 f i Enemy.obj
 0002:00014d90       ?getET@SpriteManager@@QAEPAVPlayer@@XZ 00573510 f i Enemy.obj
 0002:00014dd0       ?setSpriteType@Enemy@@UAEXH@Z 00573550 f   Enemy.obj
 0002:00014e20       ?reset@Enemy@@QAEXXZ       005735a0 f   Enemy.obj
 0002:00014e80       ?setPosition@Enemy@@UAEXMM@Z 00573600 f   Enemy.obj
 0002:00014f00       ?setTrajectory@Enemy@@QAEXPAVTrajectory@@@Z 00573680 f   Enemy.obj
 0002:00014fe0       ??0Explosion@@QAE@MMII@Z   00573760 f   Explosion.obj
 0002:00015180       ??_EExplosion@@UAEPAXI@Z   00573900 f i Explosion.obj
 0002:00015180       ??_GExplosion@@UAEPAXI@Z   00573900 f i Explosion.obj
 0002:000151f0       ??1Explosion@@UAE@XZ       00573970 f   Explosion.obj
 0002:00015250       ?CycleExplosionAnimation@Explosion@@QAEHI@Z 005739d0 f   Explosion.obj
 0002:000153c0       ??0FallTrajectory@@QAE@PAVSprite@@@Z 00573b40 f   FallTrajectory.obj
 0002:00015490       ??_EFallTrajectory@@UAEPAXI@Z 00573c10 f i FallTrajectory.obj
 0002:00015490       ??_GFallTrajectory@@UAEPAXI@Z 00573c10 f i FallTrajectory.obj
 0002:00015500       ??1FallTrajectory@@UAE@XZ  00573c80 f   FallTrajectory.obj
 0002:00015560       ?update@FallTrajectory@@UAEXI@Z 00573ce0 f   FallTrajectory.obj
 0002:00015630       ?sin@@YAMM@Z               00573db0 f i FallTrajectory.obj
 0002:00015680       _sinf                      00573e00 f i FallTrajectory.obj
 0002:000156e0       ?checkBoundary@FallTrajectory@@AAEXXZ 00573e60 f   FallTrajectory.obj
 0002:00015830       ?getHeight@FieldC@@QAEIXZ  00573fb0 f i FallTrajectory.obj
 0002:00015870       ?GetInstance@FieldManagerC@@SAPAV1@XZ 00573ff0 f i FallTrajectory.obj
 0002:000158b0       ?getHeight@Sprite@@QAEMXZ  00574030 f i FallTrajectory.obj
 0002:000158f0       ?moveUp@FieldC@@QAEXXZ     00574070 f   field.obj
 0002:00015930       ??0FieldC@@QAE@MMIIII@Z    005740b0 f   field.obj
 0002:000159f0       ??_GFieldC@@UAEPAXI@Z      00574170 f i field.obj
 0002:000159f0       ??_EFieldC@@UAEPAXI@Z      00574170 f i field.obj
 0002:00015a60       ??1FieldC@@UAE@XZ          005741e0 f   field.obj
 0002:00015ac0       ?update@FieldC@@QAEXI@Z    00574240 f   field.obj
 0002:00015b00       ?render@FieldC@@UAEXXZ     00574280 f   field.obj
 0002:00015d70       ?GetJsyGHandle@CGame@@QAEPAXXZ 005744f0 f i field.obj
 0002:00015db0       ?CreateInstance@FieldManagerC@@SAPAV1@XZ 00574530 f   FieldManager.obj
 0002:00015eb0       ??0FieldManagerC@@AAE@XZ   00574630 f i FieldManager.obj
 0002:00015ef0       ?init@FieldManagerC@@QAEXXZ 00574670 f   FieldManager.obj
 0002:00016010       ?GetInstance@GameManager@@SAPAV1@XZ 00574790 f i FieldManager.obj
 0002:00016050       ?getBackgroundWidth@GameManager@@QAEHXZ 005747d0 f i FieldManager.obj
 0002:00016090       ?getBackgroundHeight@GameManager@@QAEHXZ 00574810 f i FieldManager.obj
 0002:000160d0       ?getFieldPtr@FieldManagerC@@QAEPAVFieldC@@XZ 00574850 f   FieldManager.obj
 0002:00016110       ?renderField@FieldManagerC@@QAEXXZ 00574890 f   FieldManager.obj
 0002:00016180       ?shutdown@FieldManagerC@@QAEXXZ 00574900 f   FieldManager.obj
 0002:00016230       ??0FollowTrajectory@@QAE@PAVSprite@@@Z 005749b0 f   FollowTrajectory.obj
 0002:00016300       ??_EFollowTrajectory@@UAEPAXI@Z 00574a80 f i FollowTrajectory.obj
 0002:00016300       ??_GFollowTrajectory@@UAEPAXI@Z 00574a80 f i FollowTrajectory.obj
 0002:00016370       ??1FollowTrajectory@@UAE@XZ 00574af0 f   FollowTrajectory.obj
 0002:000163d0       ?update@FollowTrajectory@@UAEXI@Z 00574b50 f   FollowTrajectory.obj
 0002:00016440       ??0CGame@@AAE@XZ           00574bc0 f   game.obj
 0002:000164b0       ?init@CGame@@QAEXXZ        00574c30 f   game.obj
 0002:00016580       ?UpdateFrame@CGame@@QAEXI@Z 00574d00 f   game.obj
 0002:00016660       ?DrawScene@CGame@@QAEXXZ   00574de0 f   game.obj
 0002:00016700       ?CreateInstance@CGame@@SAPAV1@XZ 00574e80 f   game.obj
 0002:000167e0       ?shutdown@CGame@@QAEXXZ    00574f60 f   game.obj
 0002:00016860       ?DestroyGame@CGame@@QAEXXZ 00574fe0 f   game.obj
 0002:000169a0       ??_GSpriteManager@@QAEPAXI@Z 00575120 f i game.obj
 0002:00016a10       ??_GFieldManagerC@@QAEPAXI@Z 00575190 f i game.obj
 0002:00016a80       ??1FieldManagerC@@QAE@XZ   00575200 f i game.obj
 0002:00016ac0       ??_GGameManager@@QAEPAXI@Z 00575240 f i game.obj
 0002:00016b30       ??1GameManager@@QAE@XZ     005752b0 f i game.obj
 0002:00016b70       ??0GameManager@@AAE@XZ     005752f0 f   GameManager.obj
 0002:00016c00       ?CreateInstance@GameManager@@SAPAV1@XZ 00575380 f   GameManager.obj
 0002:00016d00       ?init@GameManager@@QAEXHH@Z 00575480 f   GameManager.obj
 0002:00016f80       ?shutdown@GameManager@@QAEXXZ 00575700 f   GameManager.obj
 0002:000170a0       ??_GScoreboard@@QAEPAXI@Z  00575820 f i GameManager.obj
 0002:00017110       ?render@GameManager@@QAEXXZ 00575890 f   GameManager.obj
 0002:00017270       ?pow@@YANHH@Z              005759f0 f i GameManager.obj
 0002:000172e0       ?update@GameManager@@QAEXI@Z 00575a60 f   GameManager.obj
 0002:000173f0       ?getState@GameManager@@QAEHXZ 00575b70 f   GameManager.obj
 0002:00017430       ?enemyKilled@GameManager@@QAEXH@Z 00575bb0 f   GameManager.obj
 0002:00017490       ?setState@GameManager@@QAEXH@Z 00575c10 f   GameManager.obj
 0002:000174e0       ?startNewGame@GameManager@@AAEXXZ 00575c60 f   GameManager.obj
 0002:000175a0       ?checkForInput@GameManager@@AAEXXZ 00575d20 f   GameManager.obj
 0002:000176e0       ?GetJsyInputHandle@CGame@@QAEPAXXZ 00575e60 f i GameManager.obj
 0002:00017720       ?updateBackground@GameManager@@AAEXI@Z 00575ea0 f   GameManager.obj
 0002:00017870       ?updateLevelWaves@GameManager@@AAEXXZ 00575ff0 f   GameManager.obj
 0002:00017940       ??$_Pow_int@H@@YAHHH@Z     005760c0 f i GameManager.obj
 0002:00017a00       ??0HorizontalLine@@QAE@XZ  00576180 f   HorizontalLine.obj
 0002:00017a60       ??_EHorizontalLine@@UAEPAXI@Z 005761e0 f i HorizontalLine.obj
 0002:00017a60       ??_GHorizontalLine@@UAEPAXI@Z 005761e0 f i HorizontalLine.obj
 0002:00017ad0       ??1HorizontalLine@@UAE@XZ  00576250 f   HorizontalLine.obj
 0002:00017b30       ?JsyAppInit_XBOX@@YA?AW4JSY_ERROR_S@@P6A_NXZ@Z 005762b0 f   jsy.obj
 0002:00017b90       ?JsyAppClose@@YA?AW4JSY_ERROR_S@@XZ 00576310 f   jsy.obj
 0002:00017bc0       ?JsyGetTickCount@@YAIXZ    00576340 f   jsy.obj
 0002:00017c10       ?JsyInputOpen@@YA?AW4JSY_ERROR_S@@PAPAX@Z 00576390 f   jsy.obj
 0002:00017cb0       ?JsyInputClose@@YA?AW4JSY_ERROR_S@@PAX@Z 00576430 f   jsy.obj
 0002:00017d10       ?JsyInputGetInput@@YA?AW4JSY_ERROR_S@@PAXW4JSY_INPUT_S@@PAM@Z 00576490 f   jsy.obj
 0002:00017dc0       ?JsyGOpen@@YA?AW4JSY_ERROR_S@@PAPAXH@Z 00576540 f   jsy.obj
 0002:00017fd0       ?CreateDevice@Direct3D@@SGJIW4_D3DDEVTYPE@@PAXKPAU_D3DPRESENT_PARAMETERS_@@PAPAUD3DDevice@@@Z 00576750 f i jsy.obj
 0002:00018040       ?SetRenderState@D3DDevice@@SGJW4_D3DRENDERSTATETYPE@@K@Z 005767c0 f i jsy.obj
 0002:00018600       ?CreateVertexBuffer@D3DDevice@@SGJIKKKPAPAUD3DVertexBuffer@@@Z 00576d80 f i jsy.obj
 0002:00018670       ?SetTransform@D3DDevice@@SGJW4_D3DTRANSFORMSTATETYPE@@PBU_D3DMATRIX@@@Z 00576df0 f i jsy.obj
 0002:000186d0       ??0D3DXMATRIX@@QAE@XZ      00576e50 f i jsy.obj
 0002:00018710       ?D3DXMatrixIdentity@@YAPAUD3DXMATRIX@@PAU1@@Z 00576e90 f i jsy.obj
 0002:00018ba0       ?GetType@D3DResource@@QAG?AW4_D3DRESOURCETYPE@@XZ 00577320 f i jsy.obj
 0002:00018bf0       ?Register@D3DResource@@QAGXPAX@Z 00577370 f i jsy.obj
 0002:00018c50       ?JsyGClose@@YA?AW4JSY_ERROR_S@@PAX@Z 005773d0 f   jsy.obj
 0002:00018cb0       ?JStGLoadTexture@@YA?AW4JSY_ERROR_S@@PAXIPAI@Z 00577430 f   jsy.obj
 0002:00018d40       ?JsyGDrawBackGround@@YA?AW4JSY_ERROR_S@@PAXIMMMI@Z 005774c0 f   jsy.obj
 0002:000190a0       ?SetTexture@D3DDevice@@SGJKPAUD3DBaseTexture@@@Z 00577820 f i jsy.obj
 0002:00019100       ?DrawPrimitive@D3DDevice@@SGJW4_D3DPRIMITIVETYPE@@II@Z 00577880 f i jsy.obj
 0002:00019180       ?SetVertexShader@D3DDevice@@SGJK@Z 00577900 f i jsy.obj
 0002:000191d0       ?SetStreamSource@D3DDevice@@SGJIPAUD3DVertexBuffer@@I@Z 00577950 f i jsy.obj
 0002:00019230       ?Lock@D3DVertexBuffer@@QAGJIIPAPAEK@Z 005779b0 f i jsy.obj
 0002:00019290       ?Unlock@D3DVertexBuffer@@QAGJXZ 00577a10 f i jsy.obj
 0002:00019310       ?JsyGClear@@YA?AW4JSY_ERROR_S@@PAX@Z 00577a90 f   jsy.obj
 0002:00019380       ?BeginScene@D3DDevice@@SGJXZ 00577b00 f i jsy.obj
 0002:00019400       ?Clear@D3DDevice@@SGJKPBU_D3DRECT@@KKMK@Z 00577b80 f i jsy.obj
 0002:00019470       ?JsyGSwapBuffer@@YA?AW4JSY_ERROR_S@@PAX@Z 00577bf0 f   jsy.obj
 0002:000194d0       ?Present@D3DDevice@@SGJPBUtagRECT@@0PAX1@Z 00577c50 f i jsy.obj
 0002:00019520       ?EndScene@D3DDevice@@SGJXZ 00577ca0 f i jsy.obj
 0002:000195a0       ?JsyGDrawLine@@YA?AW4JSY_ERROR_S@@PAXMMMMDDDM@Z 00577d20 f   jsy.obj
 0002:000195e0       ?JsyGDrawSprite@@YA?AW4JSY_ERROR_S@@PAXIHMMMMMI@Z 00577d60 f   jsy.obj
 0002:00019960       ?JsyAudioOpen@@YA?AW4JSY_ERROR_S@@PAPAX@Z 005780e0 f   jsy.obj
 0002:000199c0       ?JsyAudioClose@@YA?AW4JSY_ERROR_S@@PAX@Z 00578140 f   jsy.obj
 0002:00019a00       ?JsyAudioLoad@@YAIPAXPBD@Z 00578180 f   jsy.obj
 0002:00019a40       ?JsyAudioPlaySound@@YA?AW4JSY_ERROR_S@@PAXI@Z 005781c0 f   jsy.obj
 0002:00019a80       ?Initialize@@YA_NXZ        00578200 f   main.obj
 0002:00019af0       ?gameLoop@@YA_NXZ          00578270 f   main.obj
 0002:00019bb0       ?GetQuit@CGame@@QAE_NXZ    00578330 f i main.obj
 0002:00019bf0       _main                      00578370 f   main.obj
 0002:00019c70       ??0ObjectC@@QAE@MMMM@Z     005783f0 f   object.obj
 0002:00019d00       ??_EObjectC@@UAEPAXI@Z     00578480 f i object.obj
 0002:00019d00       ??_GObjectC@@UAEPAXI@Z     00578480 f i object.obj
 0002:00019d70       ??0ObjectC@@QAE@XZ         005784f0 f   object.obj
 0002:00019e10       ??1ObjectC@@UAE@XZ         00578590 f   object.obj
 0002:00019e50       ?CreatePlayer@Player@@SAPAV1@MMMMH@Z 005785d0 f   Player.obj
 0002:0001a010       ??0Player@@AAE@MMMMH@Z     00578790 f   Player.obj
 0002:0001a310       ??_EPlayer@@UAEPAXI@Z      00578a90 f i Player.obj
 0002:0001a310       ??_GPlayer@@UAEPAXI@Z      00578a90 f i Player.obj
 0002:0001a380       ??1Player@@UAE@XZ          00578b00 f   Player.obj
 0002:0001a3e0       ?updateET@Player@@QAEXI@Z  00578b60 f   Player.obj
 0002:0001a550       ?playerHit@Player@@QAEXXZ  00578cd0 f   Player.obj
 0002:0001a660       ?CheckForUserInput@Player@@AAEXXZ 00578de0 f   Player.obj
 0002:0001a940       ?Shoot@Player@@AAEXXZ      005790c0 f   Player.obj
 0002:0001ab60       _atanf                     005792e0 f i Player.obj
 0002:0001abc0       ?CheckBoundaries@Player@@AAEXXZ 00579340 f   Player.obj
 0002:0001ae60       ?getWidth@FieldC@@QAEIXZ   005795e0 f i Player.obj
 0002:0001aea0       ?DrawLivesLeft@Player@@QAEXXZ 00579620 f   Player.obj
 0002:0001af40       ?getRangedRandom@@YAMMM@Z  005796c0 f   random.obj
 0002:0001afd0       ?getRangedRandom@@YAHHH@Z  00579750 f   random.obj
 0002:0001b080       ??0Scoreboard@@QAE@XZ      00579800 f   Scoreboard.obj
 0002:0001b700       ??1Scoreboard@@QAE@XZ      00579e80 f   Scoreboard.obj
 0002:0001b840       ?Reset@Scoreboard@@QAEXXZ  00579fc0 f   Scoreboard.obj
 0002:0001b8d0       ?disable@Sprite@@QAEXXZ    0057a050 f i Scoreboard.obj
 0002:0001b920       ?Render@Scoreboard@@QAEXXZ 0057a0a0 f   Scoreboard.obj
 0002:0001c590       ?enable@Sprite@@QAEXXZ     0057ad10 f i Scoreboard.obj
 0002:0001c5e0       ??0SideTrajectory@@QAE@PAVSprite@@@Z 0057ad60 f   SideTrajectory.obj
 0002:0001c6c0       ??_ESideTrajectory@@UAEPAXI@Z 0057ae40 f i SideTrajectory.obj
 0002:0001c6c0       ??_GSideTrajectory@@UAEPAXI@Z 0057ae40 f i SideTrajectory.obj
 0002:0001c730       ??1SideTrajectory@@UAE@XZ  0057aeb0 f   SideTrajectory.obj
 0002:0001c790       ?update@SideTrajectory@@UAEXI@Z 0057af10 f   SideTrajectory.obj
 0002:0001c820       ?checkBoundary@SideTrajectory@@AAEXXZ 0057afa0 f   SideTrajectory.obj
 0002:0001caa0       ?getWidth@Sprite@@QAEMXZ   0057b220 f i SideTrajectory.obj
 0002:0001cae0       ?GetSjis@@YAGPBEPAH@Z      0057b260 f   sjis2unicode.obj
 0002:0001cc60       ?Sjis2Unicode@@YGIPAGPBDI@Z 0057b3e0 f   sjis2unicode.obj
 0002:0001cfb0       ??0Sprite@@QAE@XZ          0057b730 f   Sprite.obj
 0002:0001d010       ??_GSprite@@UAEPAXI@Z      0057b790 f i Sprite.obj
 0002:0001d010       ??_ESprite@@UAEPAXI@Z      0057b790 f i Sprite.obj
 0002:0001d080       ??0Sprite@@QAE@MMMMH@Z     0057b800 f   Sprite.obj
 0002:0001d1a0       ??0Sprite@@QAE@MMMMHHH@Z   0057b920 f   Sprite.obj
 0002:0001d2b0       ??1Sprite@@UAE@XZ          0057ba30 f   Sprite.obj
 0002:0001d310       ?update@Sprite@@QAEXI@Z    0057ba90 f   Sprite.obj
 0002:0001d3d0       ?render@Sprite@@UAEXXZ     0057bb50 f   Sprite.obj
 0002:0001d560       ?setSpriteType@Sprite@@UAEXH@Z 0057bce0 f   Sprite.obj
 0002:0001d5b0       ?setCurrentSprite@Sprite@@QAEXH@Z 0057bd30 f   Sprite.obj
 0002:0001d600       ?CreateInstance@SpriteManager@@SAPAV1@XZ 0057bd80 f   SpriteManager.obj
 0002:0001d710       ??0SpriteManager@@AAE@XZ   0057be90 f   SpriteManager.obj
 0002:0001d840       ??1SpriteManager@@QAE@XZ   0057bfc0 f   SpriteManager.obj
 0002:0001d930       ?init@SpriteManager@@QAEXXZ 0057c0b0 f   SpriteManager.obj
 0002:0001dcc0       ?updateSprites@SpriteManager@@QAEXI@Z 0057c440 f   SpriteManager.obj
 0002:0001df50       ?GetNearestEnemy@SpriteManager@@QAEPAVEnemy@@PAVSprite@@@Z 0057c6d0 f   SpriteManager.obj
 0002:0001e080       ?GetHeuristicDistance@SpriteManager@@AAEMPAVSprite@@0@Z 0057c800 f   SpriteManager.obj
 0002:0001e150       _powf                      0057c8d0 f i SpriteManager.obj
 0002:0001e1c0       ?renderSprites@SpriteManager@@QAEXXZ 0057c940 f   SpriteManager.obj
 0002:0001e420       ?getSpriteTextureMap@SpriteManager@@QAEIH@Z 0057cba0 f   SpriteManager.obj
 0002:0001e470       ?shutdown@SpriteManager@@QAEXXZ 0057cbf0 f   SpriteManager.obj
 0002:0001e7b0       ?resetGame@SpriteManager@@QAEXXZ 0057cf30 f   SpriteManager.obj
 0002:0001ebd0       ?startGame@SpriteManager@@QAEXXZ 0057d350 f   SpriteManager.obj
 0002:0001ecf0       ?endGame@SpriteManager@@QAEXXZ 0057d470 f   SpriteManager.obj
 0002:0001ee10       ?CreateBullet@SpriteManager@@QAEPAVBullet@@MMMMH@Z 0057d590 f   SpriteManager.obj
 0002:0001ef70       ?CreateWeaponDrop@SpriteManager@@QAEXMMMMH@Z 0057d6f0 f   SpriteManager.obj
 0002:0001f140       ?CreateExplosion@SpriteManager@@QAEXMMII@Z 0057d8c0 f   SpriteManager.obj
 0002:0001f280       ?CheckBoundaryCollisions@SpriteManager@@AAEXXZ 0057da00 f   SpriteManager.obj
 0002:0001f480       ?CheckWeaponDropCollisions@SpriteManager@@AAEXXZ 0057dc00 f   SpriteManager.obj
 0002:0001f5e0       ?GetWeaponType@WeaponDrop@@QAEHXZ 0057dd60 f i SpriteManager.obj
 0002:0001f620       ?CheckBulletCollisions@SpriteManager@@AAEXXZ 0057dda0 f   SpriteManager.obj
 0002:0001f9c0       ?getType@Sprite@@QAEHXZ    0057e140 f i SpriteManager.obj
 0002:0001fa00       ?GetOwnerType@Bullet@@QAEHXZ 0057e180 f i SpriteManager.obj
 0002:0001fa40       ?spawnEnemy@SpriteManager@@QAEXI@Z 0057e1c0 f   SpriteManager.obj
 0002:0001ff10       ?setKillSfxId@Enemy@@QAEXI@Z 0057e690 f i SpriteManager.obj
 0002:0001ff60       ?CheckSpriteHitBoundaries@SpriteManager@@AAEHPAVSprite@@@Z 0057e6e0 f   SpriteManager.obj
 0002:000201e0       ?CheckSpriteCollision@SpriteManager@@AAEHPAVSprite@@0@Z 0057e960 f   SpriteManager.obj
 0002:000203b0       ?CreateInstance@StateManagerC@@SAPAV1@XZ 0057eb30 f   stateManager.obj
 0002:000204b0       ??0StateManagerC@@AAE@XZ   0057ec30 f i stateManager.obj
 0002:000204f0       ?getState@StateManagerC@@QAEHXZ 0057ec70 f   stateManager.obj
 0002:00020530       ?setState@StateManagerC@@QAEXH@Z 0057ecb0 f   stateManager.obj
 0002:00020580       ?shutdown@StateManagerC@@QAEXXZ 0057ed00 f   stateManager.obj
 0002:000205c0       ??0Trajectory@@QAE@XZ      0057ed40 f   Trajectory.obj
 0002:00020610       ??_GTrajectory@@UAEPAXI@Z  0057ed90 f i Trajectory.obj
 0002:00020610       ??_ETrajectory@@UAEPAXI@Z  0057ed90 f i Trajectory.obj
 0002:00020680       ??0Trajectory@@QAE@ABUVector2D@@@Z 0057ee00 f   Trajectory.obj
 0002:00020710       ??1Trajectory@@UAE@XZ      0057ee90 f   Trajectory.obj
 0002:00020750       ?GetPosition@Trajectory@@QBEXAAUVector2D@@@Z 0057eed0 f   Trajectory.obj
 0002:000207b0       ?SetPosition@Trajectory@@QAEXABUVector2D@@@Z 0057ef30 f   Trajectory.obj
 0002:00020820       ?reset@Trajectory@@QAEXXZ  0057efa0 f   Trajectory.obj
 0002:00020880       ??0WeaponDrop@@QAE@MMMMHH@Z 0057f000 f   WeaponDrop.obj
 0002:000209a0       ??_EWeaponDrop@@UAEPAXI@Z  0057f120 f i WeaponDrop.obj
 0002:000209a0       ??_GWeaponDrop@@UAEPAXI@Z  0057f120 f i WeaponDrop.obj
 0002:00020a10       ??1WeaponDrop@@UAE@XZ      0057f190 f   WeaponDrop.obj
 0002:00020a70       ?UpdateWeaponDrop@WeaponDrop@@QAEXI@Z 0057f1f0 f   WeaponDrop.obj
 0002:00020ab0       ??0CXBApplication@@QAE@XZ  0057f230 f   xbapp.obj
 0002:00020c50       ?Initialize@CXBApplication@@MAEJXZ 0057f3d0 f i xbapp.obj
 0002:00020c90       ?FrameMove@CXBApplication@@MAEJXZ 0057f410 f i xbapp.obj
 0002:00020cd0       ?Render@CXBApplication@@MAEJXZ 0057f450 f i xbapp.obj
 0002:00020d10       ?Cleanup@CXBApplication@@MAEJXZ 0057f490 f i xbapp.obj
 0002:00020d50       ?Create@CXBApplication@@QAEJXZ 0057f4d0 f   xbapp.obj
 0002:00020f00       ?GetBackBuffer@D3DDevice@@SGJHKPAPAUD3DSurface@@@Z 0057f680 f i xbapp.obj
 0002:00020f60       ?GetDepthStencilSurface@D3DDevice@@SGJPAPAUD3DSurface@@@Z 0057f6e0 f i xbapp.obj
 0002:00020fd0       ?Destroy@CXBApplication@@QAEXXZ 0057f750 f   xbapp.obj
 0002:00021070       ?Release@Direct3D@@SGKXZ   0057f7f0 f i xbapp.obj
 0002:00021100       ?Release@D3DDevice@@SGKXZ  0057f880 f i xbapp.obj
 0002:00021150       ?Run@CXBApplication@@QAEHXZ 0057f8d0 f   xbapp.obj
 0002:00021bf0       ?XBProfiling_IsFastCAPRequested@@YAHXZ 00580370 f i xbapp.obj
 0002:00021c20       ??0CXBSimpleFastCapProfile@@QAE@XZ 005803a0 f i xbapp.obj
 0002:00021c60       ??1CXBSimpleFastCapProfile@@QAE@XZ 005803e0 f i xbapp.obj
 0002:00021cb0       ?BeginProfiling@CXBSimpleFastCapProfile@@QAEXK@Z 00580430 f i xbapp.obj
 0002:00021cf0       ?EndProfiling@CXBSimpleFastCapProfile@@QAEXXZ 00580470 f i xbapp.obj
 0002:00021d30       ?RenderGradientBackground@CXBApplication@@IAEJKK@Z 005804b0 f   xbapp.obj
 0002:00021f50       ?GetDisplayMode@D3DDevice@@SGJPAU_D3DDISPLAYMODE@@@Z 005806d0 f i xbapp.obj
 0002:000223b0       ?SetTextureStageState@D3DDevice@@SGJKW4_D3DTEXTURESTAGESTATETYPE@@K@Z 00580b30 f i xbapp.obj
 0002:00022560       ?SetVertexData4f@D3DDevice@@SGJHMMMM@Z 00580ce0 f i xbapp.obj
 0002:000225d0       ?SetVertexDataColor@D3DDevice@@SGJHK@Z 00580d50 f i xbapp.obj
 0002:00022630       ?Begin@D3DDevice@@SGJW4_D3DPRIMITIVETYPE@@@Z 00580db0 f i xbapp.obj
 0002:00022680       ?End@D3DDevice@@SGJXZ      00580e00 f i xbapp.obj
 0002:000226d0       ?FormatDateTime@CXBConfig@@SAXABU_FILETIME@@PAG1H@Z 00580e50 f   xbconfig.obj
 0002:00022a70       ?FormatInt@CXBConfig@@SAXHPAG@Z 005811f0 f   xbconfig.obj
 0002:00022bb0       ?FormatFloat@CXBConfig@@SAXNPAGHH@Z 00581330 f   xbconfig.obj
 0002:00022e10       ?GetDecimalSymbol@CXBConfig@@SAGXZ 00581590 f   xbconfig.obj
 0002:00022e90       ?GetThousandsSeparator@CXBConfig@@SAGXZ 00581610 f   xbconfig.obj
 0002:00022f40       ??0CXBFont@@QAE@XZ         005816c0 f   xbfont.obj
 0002:000230b0       ??1CXBFont@@QAE@XZ         00581830 f   xbfont.obj
 0002:00023150       ?CreateShaders@CXBFont@@QAEJXZ 005818d0 f   xbfont.obj
 0002:00023310       ?CreateVertexShader@D3DDevice@@SGJPBK0PAKK@Z 00581a90 f i xbfont.obj
 0002:00023370       ?CreatePixelShader@D3DDevice@@SGJPBU_D3DPixelShaderDef@@PAK@Z 00581af0 f i xbfont.obj
 0002:000233d0       ?Create@CXBFont@@QAEJPBDK@Z 00581b50 f   xbfont.obj
 0002:00023480       ?GetData@CXBPackedResource@@QBEPAXK@Z 00581c00 f i xbfont.obj
 0002:000234d0       ?GetTexture@CXBPackedResource@@QBEPAUD3DTexture@@K@Z 00581c50 f i xbfont.obj
 0002:00023530       ?GetResource@CXBPackedResource@@QBEPAUD3DResource@@K@Z 00581cb0 f i xbfont.obj
 0002:000235a0       ?RegisterResource@CXBPackedResource@@QBEPAUD3DResource@@PAU2@@Z 00581d20 f i xbfont.obj
 0002:00023660       ?AddRef@D3DResource@@QAGKXZ 00581de0 f i xbfont.obj
 0002:000236b0       ?Create@CXBFont@@QAEJPAUD3DTexture@@PAX@Z 00581e30 f   xbfont.obj
 0002:00023bf0       ?GetCreationParameters@D3DDevice@@SGJPAU_D3DDEVICE_CREATION_PARAMETERS@@@Z 00582370 f i xbfont.obj
 0002:00023c40       ?Destroy@CXBFont@@QAEJXZ   005823c0 f   xbfont.obj
 0002:00023d70       ?SetCursorPosition@CXBFont@@QAEXMM@Z 005824f0 f   xbfont.obj
 0002:00023df0       _floorf                    00582570 f i xbfont.obj
 0002:00023e50       ?SetScaleFactors@CXBFont@@QAEXMM@Z 005825d0 f   xbfont.obj
 0002:00023eb0       ?SetSlantFactor@CXBFont@@QAEXM@Z 00582630 f   xbfont.obj
 0002:00023f00       ?GetTextExtent@CXBFont@@QBEJPBGPAM1H@Z 00582680 f   xbfont.obj
 0002:00024120       ?GetTextWidth@CXBFont@@QBEMPBG@Z 005828a0 f   xbfont.obj
 0002:00024210       ?Begin@CXBFont@@QAEJXZ     00582990 f   xbfont.obj
 0002:000248a0       ?GetRenderState@D3DDevice@@SGJW4_D3DRENDERSTATETYPE@@PAK@Z 00583020 f i xbfont.obj
 0002:00024950       ?GetTextureStageState@D3DDevice@@SGJKW4_D3DTEXTURESTAGESTATETYPE@@PAK@Z 005830d0 f i xbfont.obj
 0002:00024b50       ?SetPixelShader@D3DDevice@@SGJK@Z 005832d0 f i xbfont.obj
 0002:00024ba0       ?DrawText@CXBFont@@QAEJKPBGKM@Z 00583320 f   xbfont.obj
 0002:00024c20       ?DrawText@CXBFont@@QAEJMMKPBGKM@Z 005833a0 f   xbfont.obj
 0002:00025280       ?End@CXBFont@@QAEJXZ       00583a00 f   xbfont.obj
 0002:00025440       ?CreateTexture@CXBFont@@QAEPAUD3DTexture@@PBGKKW4_D3DFORMAT@@@Z 00583bc0 f   xbfont.obj
 0002:00025900       ?CreateTexture@D3DDevice@@SGJIIIKW4_D3DFORMAT@@KPAPAUD3DTexture@@@Z 00584080 f i xbfont.obj
 0002:00025990       ?SetRenderTarget@D3DDevice@@SGJPAUD3DSurface@@0@Z 00584110 f i xbfont.obj
 0002:000259f0       ?GetRenderTarget@D3DDevice@@SGJPAPAUD3DSurface@@@Z 00584170 f i xbfont.obj
 0002:00025a40       ?SetViewport@D3DDevice@@SGJPBU_D3DVIEWPORT8@@@Z 005841c0 f i xbfont.obj
 0002:00025a90       ?Release@D3DResource@@QAGKXZ 00584210 f i xbfont.obj
 0002:00025ae0       ?GetSurfaceLevel@D3DTexture@@QAGJIPAPAUD3DSurface@@@Z 00584260 f i xbfont.obj
 0002:00025b50       ??0CXBHelp@@QAE@XZ         005842d0 f   xbhelp.obj
 0002:00025bd0       ??1CXBHelp@@QAE@XZ         00584350 f   xbhelp.obj
 0002:00025c70       ?Create@CXBHelp@@QAEJPAD@Z 005843f0 f   xbhelp.obj
 0002:00026280       ?GetLevelDesc@D3DTexture@@QAGJIPAU_D3DSURFACE_DESC@@@Z 00584a00 f i xbhelp.obj
 0002:000262e0       ?LockRect@D3DTexture@@QAGJIPAU_D3DLOCKED_RECT@@PBUtagRECT@@K@Z 00584a60 f i xbhelp.obj
 0002:00026350       ?UnlockRect@D3DTexture@@QAGJI@Z 00584ad0 f i xbhelp.obj
 0002:00026410       ??0D3DXVECTOR4@@QAE@MMMM@Z 00584b90 f i xbhelp.obj
 0002:00026490       ?Destroy@CXBHelp@@QAEJXZ   00584c10 f   xbhelp.obj
 0002:00026500       ?Render@CXBHelp@@QAEJPAUXBHELP_CALLOUT@@K@Z 00584c80 f   xbhelp.obj
 0002:00026570       ?Render@CXBHelp@@QAEJPAVCXBFont@@PAUXBHELP_CALLOUT@@K@Z 00584cf0 f   xbhelp.obj
 0002:00027150       ?SetVertexData2f@D3DDevice@@SGJHMM@Z 005858d0 f i xbhelp.obj
 0002:000271b0       ??0D3DXVECTOR3@@QAE@MMM@Z  00585930 f i xbhelp.obj
 0002:00027220       ?XBInput_CreateGamepads@@YAJPAPAUXBGAMEPAD@@@Z 005859a0 f   xbinput.obj
 0002:00027410       ?XBInput_RefreshDeviceList@@YAXPAUXBGAMEPAD@@@Z 00585b90 f   xbinput.obj
 0002:00027760       ?XBInput_GetInput@@YAXPAUXBGAMEPAD@@@Z 00585ee0 f   xbinput.obj
 0002:00028120       _fabsf                     005868a0 f i xbinput.obj
 0002:00028180       ?DebugPresent@@YAJXZ       00586900 f   xbMediaDebug.obj
 0002:000281d0       ?MapLinearToSwizzledFormat@@YA?AW4_D3DFORMAT@@W41@@Z 00586950 f   xbMediaDebug.obj
 0002:000283f0       ?MapSwizzledToLinearFormat@@YA?AW4_D3DFORMAT@@W41@@Z 00586b70 f   xbMediaDebug.obj
 0002:00028610       ?MapToColorFormat@@YA?AW4_D3DFORMAT@@W41@@Z 00586d90 f   xbMediaDebug.obj
 0002:00028780       ?DebugClear@@YAXXZ         00586f00 f   xbMediaDebug.obj
 0002:000287f0       ??BD3DXCOLOR@@QBEKXZ       00586f70 f i xbMediaDebug.obj
 0002:00028a60       _DebugPixels               005871e0 f   xbMediaDebug.obj
 0002:0002a2f0       ?GetLevelCount@D3DBaseTexture@@QAGKXZ 00588a70 f i xbMediaDebug.obj
 0002:0002a340       ?GetDesc@D3DSurface@@QAGJPAU_D3DSURFACE_DESC@@@Z 00588ac0 f i xbMediaDebug.obj
 0002:0002a3a0       ??0DebugSetupRenderTarget@?CL@??DebugPixels@@9@QAE@XZ 00588b20 f   xbMediaDebug.obj
 0002:0002a440       ??1DebugSetupRenderTarget@?CL@??DebugPixels@@9@QAE@XZ 00588bc0 f   xbMediaDebug.obj
 0002:0002a4d0       ??0D3DVERTEXSHADER@?CM@??DebugPixels@@9@QAE@K@Z 00588c50 f   xbMediaDebug.obj
 0002:0002a540       ??1D3DVERTEXSHADER@?CM@??DebugPixels@@9@QAE@XZ 00588cc0 f   xbMediaDebug.obj
 0002:0002a5a0       ??0D3DPIXELSHADER@?CN@??DebugPixels@@9@QAE@K@Z 00588d20 f   xbMediaDebug.obj
 0002:0002a610       ??1D3DPIXELSHADER@?CN@??DebugPixels@@9@QAE@XZ 00588d90 f   xbMediaDebug.obj
 0002:0002a670       ??0D3DRS_D3DRS_FILLMODE@?CO@??DebugPixels@@9@QAE@K@Z 00588df0 f   xbMediaDebug.obj
 0002:0002ab50       ??1D3DRS_D3DRS_FILLMODE@?CO@??DebugPixels@@9@QAE@XZ 005892d0 f   xbMediaDebug.obj
 0002:0002abb0       ??0D3DRS_D3DRS_BACKFILLMODE@?CP@??DebugPixels@@9@QAE@K@Z 00589330 f   xbMediaDebug.obj
 0002:0002ac30       ??1D3DRS_D3DRS_BACKFILLMODE@?CP@??DebugPixels@@9@QAE@XZ 005893b0 f   xbMediaDebug.obj
 0002:0002ac90       ??0D3DRS_D3DRS_CULLMODE@?DA@??DebugPixels@@9@QAE@K@Z 00589410 f   xbMediaDebug.obj
 0002:0002ad10       ??1D3DRS_D3DRS_CULLMODE@?DA@??DebugPixels@@9@QAE@XZ 00589490 f   xbMediaDebug.obj
 0002:0002ad70       ??0D3DRS_D3DRS_DITHERENABLE@?DB@??DebugPixels@@9@QAE@K@Z 005894f0 f   xbMediaDebug.obj
 0002:0002ade0       ??1D3DRS_D3DRS_DITHERENABLE@?DB@??DebugPixels@@9@QAE@XZ 00589560 f   xbMediaDebug.obj
 0002:0002ae40       ??0D3DRS_D3DRS_ALPHATESTENABLE@?DC@??DebugPixels@@9@QAE@K@Z 005895c0 f   xbMediaDebug.obj
 0002:0002aeb0       ??1D3DRS_D3DRS_ALPHATESTENABLE@?DC@??DebugPixels@@9@QAE@XZ 00589630 f   xbMediaDebug.obj
 0002:0002af10       ??0D3DRS_D3DRS_ALPHABLENDENABLE@?DD@??DebugPixels@@9@QAE@K@Z 00589690 f   xbMediaDebug.obj
 0002:0002af80       ??1D3DRS_D3DRS_ALPHABLENDENABLE@?DD@??DebugPixels@@9@QAE@XZ 00589700 f   xbMediaDebug.obj
 0002:0002afe0       ??0D3DRS_D3DRS_FOGENABLE@?DE@??DebugPixels@@9@QAE@K@Z 00589760 f   xbMediaDebug.obj
 0002:0002b050       ??1D3DRS_D3DRS_FOGENABLE@?DE@??DebugPixels@@9@QAE@XZ 005897d0 f   xbMediaDebug.obj
 0002:0002b0b0       ??0D3DRS_D3DRS_EDGEANTIALIAS@?DF@??DebugPixels@@9@QAE@K@Z 00589830 f   xbMediaDebug.obj
 0002:0002b130       ??1D3DRS_D3DRS_EDGEANTIALIAS@?DF@??DebugPixels@@9@QAE@XZ 005898b0 f   xbMediaDebug.obj
 0002:0002b190       ??0D3DRS_D3DRS_STENCILENABLE@?DG@??DebugPixels@@9@QAE@K@Z 00589910 f   xbMediaDebug.obj
 0002:0002b210       ??1D3DRS_D3DRS_STENCILENABLE@?DG@??DebugPixels@@9@QAE@XZ 00589990 f   xbMediaDebug.obj
 0002:0002b270       ??0D3DRS_D3DRS_LIGHTING@?DH@??DebugPixels@@9@QAE@K@Z 005899f0 f   xbMediaDebug.obj
 0002:0002b2e0       ??1D3DRS_D3DRS_LIGHTING@?DH@??DebugPixels@@9@QAE@XZ 00589a60 f   xbMediaDebug.obj
 0002:0002b340       ??0D3DRS_D3DRS_MULTISAMPLEMASK@?DI@??DebugPixels@@9@QAE@K@Z 00589ac0 f   xbMediaDebug.obj
 0002:0002b3c0       ??1D3DRS_D3DRS_MULTISAMPLEMASK@?DI@??DebugPixels@@9@QAE@XZ 00589b40 f   xbMediaDebug.obj
 0002:0002b420       ??0D3DRS_D3DRS_LOGICOP@?DJ@??DebugPixels@@9@QAE@K@Z 00589ba0 f   xbMediaDebug.obj
 0002:0002b4a0       ??1D3DRS_D3DRS_LOGICOP@?DJ@??DebugPixels@@9@QAE@XZ 00589c20 f   xbMediaDebug.obj
 0002:0002b500       ??0D3DRS_D3DRS_COLORWRITEENABLE@?DK@??DebugPixels@@9@QAE@K@Z 00589c80 f   xbMediaDebug.obj
 0002:0002b570       ??1D3DRS_D3DRS_COLORWRITEENABLE@?DK@??DebugPixels@@9@QAE@XZ 00589cf0 f   xbMediaDebug.obj
 0002:0002b5d0       ??0D3DRS_D3DRS_YUVENABLE@?DL@??DebugPixels@@9@QAE@K@Z 00589d50 f   xbMediaDebug.obj
 0002:0002b650       ??1D3DRS_D3DRS_YUVENABLE@?DL@??DebugPixels@@9@QAE@XZ 00589dd0 f   xbMediaDebug.obj
 0002:0002b6b0       ??0D3DRS_D3DRS_SPECULARENABLE@?DM@??DebugPixels@@9@QAE@K@Z 00589e30 f   xbMediaDebug.obj
 0002:0002b720       ??1D3DRS_D3DRS_SPECULARENABLE@?DM@??DebugPixels@@9@QAE@XZ 00589ea0 f   xbMediaDebug.obj
 0002:0002b780       ??0D3DRS_D3DRS_ZBIAS@?DN@??DebugPixels@@9@QAE@K@Z 00589f00 f   xbMediaDebug.obj
 0002:0002b800       ??1D3DRS_D3DRS_ZBIAS@?DN@??DebugPixels@@9@QAE@XZ 00589f80 f   xbMediaDebug.obj
 0002:0002b860       ??0D3DRS_D3DRS_MULTISAMPLERENDERTARGETMODE@?DO@??DebugPixels@@9@QAE@K@Z 00589fe0 f   xbMediaDebug.obj
 0002:0002b8e0       ??1D3DRS_D3DRS_MULTISAMPLERENDERTARGETMODE@?DO@??DebugPixels@@9@QAE@XZ 0058a060 f   xbMediaDebug.obj
 0002:0002b940       ??0D3DRS_D3DRS_ZENABLE@?DP@??DebugPixels@@9@QAE@K@Z 0058a0c0 f   xbMediaDebug.obj
 0002:0002b9c0       ??1D3DRS_D3DRS_ZENABLE@?DP@??DebugPixels@@9@QAE@XZ 0058a140 f   xbMediaDebug.obj
 0002:0002ba20       ??0D3DTEXTURE_STAGE0@?EA@??DebugPixels@@9@QAE@PAUD3DBaseTexture@@@Z 0058a1a0 f   xbMediaDebug.obj
 0002:0002ba90       ??1D3DTEXTURE_STAGE0@?EA@??DebugPixels@@9@QAE@XZ 0058a210 f   xbMediaDebug.obj
 0002:0002bb00       ??0D3DTSS_STAGE0_D3DTSS_COLOROP@?EB@??DebugPixels@@9@QAE@K@Z 0058a280 f   xbMediaDebug.obj
 0002:0002bd20       ??1D3DTSS_STAGE0_D3DTSS_COLOROP@?EB@??DebugPixels@@9@QAE@XZ 0058a4a0 f   xbMediaDebug.obj
 0002:0002bd80       ??0D3DTSS_STAGE0_D3DTSS_COLORARG1@?EC@??DebugPixels@@9@QAE@K@Z 0058a500 f   xbMediaDebug.obj
 0002:0002be00       ??1D3DTSS_STAGE0_D3DTSS_COLORARG1@?EC@??DebugPixels@@9@QAE@XZ 0058a580 f   xbMediaDebug.obj
 0002:0002be60       ??0D3DTSS_STAGE0_D3DTSS_ALPHAOP@?ED@??DebugPixels@@9@QAE@K@Z 0058a5e0 f   xbMediaDebug.obj
 0002:0002bee0       ??1D3DTSS_STAGE0_D3DTSS_ALPHAOP@?ED@??DebugPixels@@9@QAE@XZ 0058a660 f   xbMediaDebug.obj
 0002:0002bf40       ??0D3DTSS_STAGE0_D3DTSS_ALPHAARG1@?EE@??DebugPixels@@9@QAE@K@Z 0058a6c0 f   xbMediaDebug.obj
 0002:0002bfc0       ??1D3DTSS_STAGE0_D3DTSS_ALPHAARG1@?EE@??DebugPixels@@9@QAE@XZ 0058a740 f   xbMediaDebug.obj
 0002:0002c020       ??0D3DTSS_STAGE0_D3DTSS_TEXCOORDINDEX@?EF@??DebugPixels@@9@QAE@K@Z 0058a7a0 f   xbMediaDebug.obj
 0002:0002c0a0       ??1D3DTSS_STAGE0_D3DTSS_TEXCOORDINDEX@?EF@??DebugPixels@@9@QAE@XZ 0058a820 f   xbMediaDebug.obj
 0002:0002c100       ??0D3DTSS_STAGE0_D3DTSS_ADDRESSU@?EG@??DebugPixels@@9@QAE@K@Z 0058a880 f   xbMediaDebug.obj
 0002:0002c180       ??1D3DTSS_STAGE0_D3DTSS_ADDRESSU@?EG@??DebugPixels@@9@QAE@XZ 0058a900 f   xbMediaDebug.obj
 0002:0002c1e0       ??0D3DTSS_STAGE0_D3DTSS_ADDRESSV@?EH@??DebugPixels@@9@QAE@K@Z 0058a960 f   xbMediaDebug.obj
 0002:0002c260       ??1D3DTSS_STAGE0_D3DTSS_ADDRESSV@?EH@??DebugPixels@@9@QAE@XZ 0058a9e0 f   xbMediaDebug.obj
 0002:0002c2c0       ??0D3DTSS_STAGE0_D3DTSS_ADDRESSW@?EI@??DebugPixels@@9@QAE@K@Z 0058aa40 f   xbMediaDebug.obj
 0002:0002c340       ??1D3DTSS_STAGE0_D3DTSS_ADDRESSW@?EI@??DebugPixels@@9@QAE@XZ 0058aac0 f   xbMediaDebug.obj
 0002:0002c3a0       ??0D3DTSS_STAGE0_D3DTSS_COLORKEYOP@?EJ@??DebugPixels@@9@QAE@K@Z 0058ab20 f   xbMediaDebug.obj
 0002:0002c420       ??1D3DTSS_STAGE0_D3DTSS_COLORKEYOP@?EJ@??DebugPixels@@9@QAE@XZ 0058aba0 f   xbMediaDebug.obj
 0002:0002c480       ??0D3DTSS_STAGE0_D3DTSS_COLORSIGN@?EK@??DebugPixels@@9@QAE@K@Z 0058ac00 f   xbMediaDebug.obj
 0002:0002c500       ??1D3DTSS_STAGE0_D3DTSS_COLORSIGN@?EK@??DebugPixels@@9@QAE@XZ 0058ac80 f   xbMediaDebug.obj
 0002:0002c560       ??0D3DTSS_STAGE0_D3DTSS_ALPHAKILL@?EL@??DebugPixels@@9@QAE@K@Z 0058ace0 f   xbMediaDebug.obj
 0002:0002c5e0       ??1D3DTSS_STAGE0_D3DTSS_ALPHAKILL@?EL@??DebugPixels@@9@QAE@XZ 0058ad60 f   xbMediaDebug.obj
 0002:0002c640       ??0D3DTSS_STAGE0_D3DTSS_MINFILTER@?EM@??DebugPixels@@9@QAE@K@Z 0058adc0 f   xbMediaDebug.obj
 0002:0002c6c0       ??1D3DTSS_STAGE0_D3DTSS_MINFILTER@?EM@??DebugPixels@@9@QAE@XZ 0058ae40 f   xbMediaDebug.obj
 0002:0002c720       ??0D3DTSS_STAGE0_D3DTSS_MAGFILTER@?EN@??DebugPixels@@9@QAE@K@Z 0058aea0 f   xbMediaDebug.obj
 0002:0002c7a0       ??1D3DTSS_STAGE0_D3DTSS_MAGFILTER@?EN@??DebugPixels@@9@QAE@XZ 0058af20 f   xbMediaDebug.obj
 0002:0002c800       ??0D3DTSS_STAGE0_D3DTSS_MIPMAPLODBIAS@?EO@??DebugPixels@@9@QAE@K@Z 0058af80 f   xbMediaDebug.obj
 0002:0002c880       ??1D3DTSS_STAGE0_D3DTSS_MIPMAPLODBIAS@?EO@??DebugPixels@@9@QAE@XZ 0058b000 f   xbMediaDebug.obj
 0002:0002c8e0       ??0D3DTSS_STAGE0_D3DTSS_MAXMIPLEVEL@?EP@??DebugPixels@@9@QAE@K@Z 0058b060 f   xbMediaDebug.obj
 0002:0002c960       ??1D3DTSS_STAGE0_D3DTSS_MAXMIPLEVEL@?EP@??DebugPixels@@9@QAE@XZ 0058b0e0 f   xbMediaDebug.obj
 0002:0002c9c0       ??0D3DTSS_STAGE0_D3DTSS_MIPFILTER@?FA@??DebugPixels@@9@QAE@K@Z 0058b140 f   xbMediaDebug.obj
 0002:0002ca40       ??1D3DTSS_STAGE0_D3DTSS_MIPFILTER@?FA@??DebugPixels@@9@QAE@XZ 0058b1c0 f   xbMediaDebug.obj
 0002:0002caa0       ??0D3DTEXTURE_STAGE1@?FB@??DebugPixels@@9@QAE@PAUD3DBaseTexture@@@Z 0058b220 f   xbMediaDebug.obj
 0002:0002cb10       ??1D3DTEXTURE_STAGE1@?FB@??DebugPixels@@9@QAE@XZ 0058b290 f   xbMediaDebug.obj
 0002:0002cb80       ??0D3DTSS_STAGE1_D3DTSS_COLOROP@?FC@??DebugPixels@@9@QAE@K@Z 0058b300 f   xbMediaDebug.obj
 0002:0002cc00       ??1D3DTSS_STAGE1_D3DTSS_COLOROP@?FC@??DebugPixels@@9@QAE@XZ 0058b380 f   xbMediaDebug.obj
 0002:0002cc60       ??0D3DTSS_STAGE1_D3DTSS_ALPHAOP@?FD@??DebugPixels@@9@QAE@K@Z 0058b3e0 f   xbMediaDebug.obj
 0002:0002cce0       ??1D3DTSS_STAGE1_D3DTSS_ALPHAOP@?FD@??DebugPixels@@9@QAE@XZ 0058b460 f   xbMediaDebug.obj
 0002:0002cd40       ??0D3DTSS_STAGE1_D3DTSS_ALPHAKILL@?FE@??DebugPixels@@9@QAE@K@Z 0058b4c0 f   xbMediaDebug.obj
 0002:0002cdc0       ??1D3DTSS_STAGE1_D3DTSS_ALPHAKILL@?FE@??DebugPixels@@9@QAE@XZ 0058b540 f   xbMediaDebug.obj
 0002:0002ce20       ??0D3DTEXTURE_STAGE2@?FF@??DebugPixels@@9@QAE@PAUD3DBaseTexture@@@Z 0058b5a0 f   xbMediaDebug.obj
 0002:0002ce90       ??1D3DTEXTURE_STAGE2@?FF@??DebugPixels@@9@QAE@XZ 0058b610 f   xbMediaDebug.obj
 0002:0002cf00       ??0D3DTSS_STAGE2_D3DTSS_COLOROP@?FG@??DebugPixels@@9@QAE@K@Z 0058b680 f   xbMediaDebug.obj
 0002:0002cf80       ??1D3DTSS_STAGE2_D3DTSS_COLOROP@?FG@??DebugPixels@@9@QAE@XZ 0058b700 f   xbMediaDebug.obj
 0002:0002cfe0       ??0D3DTSS_STAGE2_D3DTSS_ALPHAOP@?FH@??DebugPixels@@9@QAE@K@Z 0058b760 f   xbMediaDebug.obj
 0002:0002d060       ??1D3DTSS_STAGE2_D3DTSS_ALPHAOP@?FH@??DebugPixels@@9@QAE@XZ 0058b7e0 f   xbMediaDebug.obj
 0002:0002d0c0       ??0D3DTSS_STAGE2_D3DTSS_ALPHAKILL@?FI@??DebugPixels@@9@QAE@K@Z 0058b840 f   xbMediaDebug.obj
 0002:0002d140       ??1D3DTSS_STAGE2_D3DTSS_ALPHAKILL@?FI@??DebugPixels@@9@QAE@XZ 0058b8c0 f   xbMediaDebug.obj
 0002:0002d1a0       ??0D3DTEXTURE_STAGE3@?FJ@??DebugPixels@@9@QAE@PAUD3DBaseTexture@@@Z 0058b920 f   xbMediaDebug.obj
 0002:0002d210       ??1D3DTEXTURE_STAGE3@?FJ@??DebugPixels@@9@QAE@XZ 0058b990 f   xbMediaDebug.obj
 0002:0002d280       ??0D3DTSS_STAGE3_D3DTSS_COLOROP@?FK@??DebugPixels@@9@QAE@K@Z 0058ba00 f   xbMediaDebug.obj
 0002:0002d300       ??1D3DTSS_STAGE3_D3DTSS_COLOROP@?FK@??DebugPixels@@9@QAE@XZ 0058ba80 f   xbMediaDebug.obj
 0002:0002d360       ??0D3DTSS_STAGE3_D3DTSS_ALPHAOP@?FL@??DebugPixels@@9@QAE@K@Z 0058bae0 f   xbMediaDebug.obj
 0002:0002d3e0       ??1D3DTSS_STAGE3_D3DTSS_ALPHAOP@?FL@??DebugPixels@@9@QAE@XZ 0058bb60 f   xbMediaDebug.obj
 0002:0002d440       ??0D3DTSS_STAGE3_D3DTSS_ALPHAKILL@?FM@??DebugPixels@@9@QAE@K@Z 0058bbc0 f   xbMediaDebug.obj
 0002:0002d4c0       ??1D3DTSS_STAGE3_D3DTSS_ALPHAKILL@?FM@??DebugPixels@@9@QAE@XZ 0058bc40 f   xbMediaDebug.obj
 0002:0002d520       ??0D3DXCOLOR@@QAE@MMMM@Z   0058bca0 f i xbMediaDebug.obj
 0002:0002d5a0       ??0CXBMemUnit@@QAE@KK@Z    0058bd20 f   xbmemunit.obj
 0002:0002d6b0       ??_ECXBMemUnit@@UAEPAXI@Z  0058be30 f i xbmemunit.obj
 0002:0002d6b0       ??_GCXBMemUnit@@UAEPAXI@Z  0058be30 f i xbmemunit.obj
 0002:0002d720       ??0CXBMemUnit@@QAE@ABV0@@Z 0058bea0 f   xbmemunit.obj
 0002:0002d7d0       ??4CXBMemUnit@@QAEAAV0@ABV0@@Z 0058bf50 f   xbmemunit.obj
 0002:0002d880       ??1CXBMemUnit@@UAE@XZ      0058c000 f   xbmemunit.obj
 0002:0002d8e0       ?Insert@CXBMemUnit@@QAEXKK@Z 0058c060 f   xbmemunit.obj
 0002:0002d9f0       ?Mount@CXBMemUnit@@QAEHAAK@Z 0058c170 f   xbmemunit.obj
 0002:0002db10       ?Unmount@CXBMemUnit@@QAEXXZ 0058c290 f   xbmemunit.obj
 0002:0002dbc0       ?Remove@CXBMemUnit@@QAEXXZ 0058c340 f   xbmemunit.obj
 0002:0002dc30       ?IsValid@CXBMemUnit@@QBEHXZ 0058c3b0 f   xbmemunit.obj
 0002:0002dca0       ?IsMounted@CXBMemUnit@@QBEHXZ 0058c420 f   xbmemunit.obj
 0002:0002dd30       ?GetDrive@CXBMemUnit@@QBEDXZ 0058c4b0 f   xbmemunit.obj
 0002:0002ddb0       ?GetPort@CXBMemUnit@@QBEKXZ 0058c530 f   xbmemunit.obj
 0002:0002de30       ?GetSlot@CXBMemUnit@@QBEKXZ 0058c5b0 f   xbmemunit.obj
 0002:0002deb0       ?GetName@CXBMemUnit@@QBEXPAG@Z 0058c630 f   xbmemunit.obj
 0002:0002e0a0       ?GetMemUnitSnapshot@CXBMemUnit@@SAKXZ 0058c820 f   xbmemunit.obj
 0002:0002e0f0       ?GetMemUnitChanges@CXBMemUnit@@SAHAAK0@Z 0058c870 f   xbmemunit.obj
 0002:0002e150       ?GetMemUnitMask@CXBMemUnit@@SAKK@Z 0058c8d0 f   xbmemunit.obj
 0002:0002e1d0       ?GetMemUnitPort@CXBMemUnit@@SAKK@Z 0058c950 f   xbmemunit.obj
 0002:0002e210       ?GetMemUnitSlot@CXBMemUnit@@SAKK@Z 0058c990 f   xbmemunit.obj
 0002:0002e260       ??0CXBMesh@@QAE@XZ         0058c9e0 f   xbmesh.obj
 0002:0002e2f0       ?RenderMeshCallback@CXBMesh@@UAEXKPAUXBMESH_FRAME@@K@Z 0058ca70 f i xbmesh.obj
 0002:0002e330       ?RenderCallback@CXBMesh@@UAEHKPAUXBMESH_SUBSET@@K@Z 0058cab0 f i xbmesh.obj
 0002:0002e370       ??_GCXBMesh@@UAEPAXI@Z     0058caf0 f i xbmesh.obj
 0002:0002e370       ??_ECXBMesh@@UAEPAXI@Z     0058caf0 f i xbmesh.obj
 0002:0002e3e0       ??1CXBMesh@@UAE@XZ         0058cb60 f   xbmesh.obj
 0002:0002e570       ?Create@CXBMesh@@QAEJPADPAVCXBPackedResource@@@Z 0058ccf0 f   xbmesh.obj
 0002:0002eb10       ?GetTexture@CXBPackedResource@@QBEPAUD3DTexture@@PBD@Z 0058d290 f i xbmesh.obj
 0002:0002eb70       ?GetResource@CXBPackedResource@@QBEPAUD3DResource@@PBD@Z 0058d2f0 f i xbmesh.obj
 0002:0002ebe0       ?WriteToXBG@CXBMesh@@QAEJPAD@Z 0058d360 f   xbmesh.obj
 0002:0002f310       ?Lock@D3DIndexBuffer@@QAGJIIPAPAEK@Z 0058da90 f i xbmesh.obj
 0002:0002f3d0       ?Unlock@D3DIndexBuffer@@QAGJXZ 0058db50 f i xbmesh.obj
 0002:0002f450       ??0XBMESH_FRAME@@QAE@XZ    0058dbd0 f i xbmesh.obj
 0002:0002f4b0       ?Render@CXBMesh@@QAEJK@Z   0058dc30 f   xbmesh.obj
 0002:0002f530       ?RenderFrame@CXBMesh@@UAEJPAUXBMESH_FRAME@@K@Z 0058dcb0 f   xbmesh.obj
 0002:0002f720       ?GetTransform@D3DDevice@@SGJW4_D3DTRANSFORMSTATETYPE@@PAU_D3DMATRIX@@@Z 0058dea0 f i xbmesh.obj
 0002:0002f780       ?RenderMesh@CXBMesh@@UAEJPAUXBMESH_DATA@@K@Z 0058df00 f   xbmesh.obj
 0002:0002faa0       ?SetMaterial@D3DDevice@@SGJPBU_D3DMATERIAL8@@@Z 0058e220 f i xbmesh.obj
 0002:0002faf0       ?DrawIndexedPrimitive@D3DDevice@@SGJW4_D3DPRIMITIVETYPE@@IIII@Z 0058e270 f i xbmesh.obj
 0002:0002fb70       ?SetIndices@D3DDevice@@SGJPAUD3DIndexBuffer@@I@Z 0058e2f0 f i xbmesh.obj
 0002:0002fbd0       ?ComputeRadius@CXBMesh@@QAEMXZ 0058e350 f   xbmesh.obj
 0002:0002fc90       ?ComputeFrameRadius@CXBMesh@@QAEMPAUXBMESH_FRAME@@PAUD3DXMATRIX@@@Z 0058e410 f   xbmesh.obj
 0002:0002fe00       ?ComputeMeshRadius@CXBMesh@@QAEMPAUXBMESH_DATA@@PAUD3DXMATRIX@@@Z 0058e580 f   xbmesh.obj
 0002:0002ff90       ??0D3DXVECTOR3@@QAE@XZ     0058e710 f i xbmesh.obj
 0002:0002ffd0       ?ComputeBoundingBox@CXBMesh@@QAEJPAUD3DXVECTOR3@@0@Z 0058e750 f   xbmesh.obj
 0002:00030090       ?ComputeFrameBoundingBox@CXBMesh@@QAEJPAUXBMESH_FRAME@@PAUD3DXMATRIX@@PAUD3DXVECTOR3@@2@Z 0058e810 f   xbmesh.obj
 0002:000304e0       ?MAX@@YAMMM@Z              0058ec60 f i xbmesh.obj
 0002:00030550       ?MIN@@YAMMM@Z              0058ecd0 f i xbmesh.obj
 0002:000305c0       ?ComputeMeshBoundingBox@CXBMesh@@QAEJPAUXBMESH_DATA@@PAUD3DXMATRIX@@PAUD3DXVECTOR3@@2@Z 0058ed40 f   xbmesh.obj
 0002:00030780       ?XBNet_Init@@YAJE@Z        0058ef00 f   xbNet.obj
 0002:00030880       ?XBNet_Cleanup@@YAJXZ      0058f000 f   xbNet.obj
 0002:00030910       ??0CXBNetLink@@QAE@XZ      0058f090 f   xbNet.obj
 0002:00030970       ?IsActive@CXBNetLink@@QBEHXZ 0058f0f0 f   xbNet.obj
 0002:00030a20       ??0CXBNetMessage@@QAE@E@Z  0058f1a0 f   xbNetMsg.obj
 0002:00030a70       ?GetSize@CXBNetMessage@@QBEHXZ 0058f1f0 f   xbNetMsg.obj
 0002:00030b70       ??0CXBNetMsgHandler@@QAE@XZ 0058f2f0 f   xbNetMsg.obj
 0002:00030c10       ??_ECXBNetMsgHandler@@UAEPAXI@Z 0058f390 f i xbNetMsg.obj
 0002:00030c10       ??_GCXBNetMsgHandler@@UAEPAXI@Z 0058f390 f i xbNetMsg.obj
 0002:00030c80       ??1CXBNetMsgHandler@@UAE@XZ 0058f400 f   xbNetMsg.obj
 0002:00030ce0       ?Initialize@CXBNetMsgHandler@@QAEJXZ 0058f460 f   xbNetMsg.obj
 0002:00030e30       ?SetUser@CXBNetMsgHandler@@QAEXPBGH@Z 0058f5b0 f   xbNetMsg.obj
 0002:00030ea0       ?SetSessionID@CXBNetMsgHandler@@QAEXABUXNKID@@@Z 0058f620 f   xbNetMsg.obj
 0002:00030f10       ?SendJoinGame@CXBNetMsgHandler@@QAEXABUsockaddr_in@@PBG_K@Z 0058f690 f   xbNetMsg.obj
 0002:00031050       ?GetJoinGame@CXBNetMessage@@QAEAAUCXBNetMsgJoinGame@@XZ 0058f7d0 f i xbNetMsg.obj
 0002:00031090       ?SendWave@CXBNetMsgHandler@@QAEXABV?$vector@UCXBNetPlayerInfo@@V?$allocator@UCXBNetPlayerInfo@@@std@@@std@@@Z 0058f810 f   xbNetMsg.obj
 0002:000311a0       ?SendWave@CXBNetMsgHandler@@AAEXABUsockaddr_in@@@Z 0058f920 f   xbNetMsg.obj
 0002:00031270       ?SendBlob@CXBNetMsgHandler@@QAEXABV?$vector@UCXBNetPlayerInfo@@V?$allocator@UCXBNetPlayerInfo@@@std@@@std@@ABUCXBNetBlob@@@Z 0058f9f0 f   xbNetMsg.obj
 0002:000313b0       ?SendBlob@CXBNetMsgHandler@@AAEXABUsockaddr_in@@ABUCXBNetBlob@@@Z 0058fb30 f   xbNetMsg.obj
 0002:00031490       ?GetBlob@CXBNetMessage@@QAEAAUCXBNetBlob@@XZ 0058fc10 f i xbNetMsg.obj
 0002:000314d0       ?SendHeartbeat@CXBNetMsgHandler@@QAEXABV?$vector@UCXBNetPlayerInfo@@V?$allocator@UCXBNetPlayerInfo@@@std@@@std@@@Z 0058fc50 f   xbNetMsg.obj
 0002:000315e0       ?SendHeartbeat@CXBNetMsgHandler@@AAEXABUsockaddr_in@@@Z 0058fd60 f   xbNetMsg.obj
 0002:000316b0       ?ProcessMessages@CXBNetMsgHandler@@QAEHAAV?$vector@UCXBNetPlayerInfo@@V?$allocator@UCXBNetPlayerInfo@@@std@@@std@@@Z 0058fe30 f   xbNetMsg.obj
 0002:00031880       ?GetMaxSize@CXBNetMessage@@QBEHXZ 00590000 f i xbNetMsg.obj
 0002:000318c0       ?ProcessPlayerDropouts@CXBNetMsgHandler@@QAEHABV?$vector@UCXBNetPlayerInfo@@V?$allocator@UCXBNetPlayerInfo@@@std@@@std@@K@Z 00590040 f   xbNetMsg.obj
 0002:00031a70       ?ProcessMessage@CXBNetMsgHandler@@AAEXAAVCXBNetMessage@@ABUsockaddr_in@@AAV?$vector@UCXBNetPlayerInfo@@V?$allocator@UCXBNetPlayerInfo@@@std@@@std@@@Z 005901f0 f   xbNetMsg.obj
 0002:00031c00       ?GetId@CXBNetMessage@@QBEEXZ 00590380 f i xbNetMsg.obj
 0002:00031c40       ?GetJoinApproved@CXBNetMessage@@QAEAAUCXBNetMsgJoinApproved@@XZ 005903c0 f i xbNetMsg.obj
 0002:00031c80       ?GetPlayerJoined@CXBNetMessage@@QAEAAUCXBNetMsgPlayerJoined@@XZ 00590400 f i xbNetMsg.obj
 0002:00031cc0       ?ProcessJoinGame@CXBNetMsgHandler@@AAEXABUCXBNetMsgJoinGame@@ABUsockaddr_in@@AAV?$vector@UCXBNetPlayerInfo@@V?$allocator@UCXBNetPlayerInfo@@@std@@@std@@@Z 00590440 f   xbNetMsg.obj
 0002:00032080       ??0MatchUserID@@QAE@_K@Z   00590800 f i xbNetMsg.obj
 0002:000320d0       ?ProcessJoinApproved@CXBNetMsgHandler@@AAEXABUCXBNetMsgJoinApproved@@ABUsockaddr_in@@@Z 00590850 f   xbNetMsg.obj
 0002:00032380       ?ProcessJoinDenied@CXBNetMsgHandler@@AAEXXZ 00590b00 f   xbNetMsg.obj
 0002:00032420       ?ProcessPlayerJoined@CXBNetMsgHandler@@AAEXABUCXBNetMsgPlayerJoined@@ABUsockaddr_in@@@Z 00590ba0 f   xbNetMsg.obj
 0002:000325d0       ?ProcessWave@CXBNetMsgHandler@@AAEXABUsockaddr_in@@ABV?$vector@UCXBNetPlayerInfo@@V?$allocator@UCXBNetPlayerInfo@@@std@@@std@@@Z 00590d50 f   xbNetMsg.obj
 0002:00032710       ??0MatchInAddr@@QAE@ABUsockaddr_in@@@Z 00590e90 f i xbNetMsg.obj
 0002:00032760       ?ProcessBlob@CXBNetMsgHandler@@AAEXABUCXBNetBlob@@ABUsockaddr_in@@ABV?$vector@UCXBNetPlayerInfo@@V?$allocator@UCXBNetPlayerInfo@@@std@@@std@@@Z 00590ee0 f   xbNetMsg.obj
 0002:000328a0       ?ProcessHeartbeat@CXBNetMsgHandler@@AAEXABUsockaddr_in@@ABV?$vector@UCXBNetPlayerInfo@@V?$allocator@UCXBNetPlayerInfo@@@std@@@std@@@Z 00591020 f   xbNetMsg.obj
 0002:000329e0       ?SendJoinApproved@CXBNetMsgHandler@@AAEXABUsockaddr_in@@ABV?$vector@UCXBNetPlayerInfo@@V?$allocator@UCXBNetPlayerInfo@@@std@@@std@@@Z 00591160 f   xbNetMsg.obj
 0002:00032ca0       ?SendJoinDenied@CXBNetMsgHandler@@AAEXABUsockaddr_in@@@Z 00591420 f   xbNetMsg.obj
 0002:00032da0       ?SendPlayerJoined@CXBNetMsgHandler@@AAEXABUCXBNetPlayer@@ABUsockaddr_in@@@Z 00591520 f   xbNetMsg.obj
 0002:00032ed0       ?OnJoinGame@CXBNetMsgHandler@@UAEXABUCXBNetPlayerInfo@@@Z 00591650 f   xbNetMsg.obj
 0002:00032f10       ?OnJoinApproved@CXBNetMsgHandler@@UAEXABUCXBNetPlayerInfo@@@Z 00591690 f   xbNetMsg.obj
 0002:00032f50       ?OnJoinApprovedAddPlayer@CXBNetMsgHandler@@UAEXABUCXBNetPlayerInfo@@@Z 005916d0 f   xbNetMsg.obj
 0002:00032f90       ?OnJoinDenied@CXBNetMsgHandler@@UAEXXZ 00591710 f   xbNetMsg.obj
 0002:00032fd0       ?OnPlayerJoined@CXBNetMsgHandler@@UAEXABUCXBNetPlayerInfo@@@Z 00591750 f   xbNetMsg.obj
 0002:00033010       ?OnWave@CXBNetMsgHandler@@UAEXABUCXBNetPlayerInfo@@@Z 00591790 f   xbNetMsg.obj
 0002:00033050       ?OnHeartbeat@CXBNetMsgHandler@@UAEXABUCXBNetPlayerInfo@@@Z 005917d0 f   xbNetMsg.obj
 0002:00033090       ?OnPlayerDropout@CXBNetMsgHandler@@UAEXABUCXBNetPlayerInfo@@H@Z 00591810 f   xbNetMsg.obj
 0002:000330d0       ?OnBlob@CXBNetMsgHandler@@UAEXABUCXBNetPlayerInfo@@ABUCXBNetBlob@@@Z 00591850 f   xbNetMsg.obj
 0002:00033110       ?begin@?$vector@UCXBNetPlayerInfo@@V?$allocator@UCXBNetPlayerInfo@@@std@@@std@@QAE?AViterator@12@XZ 00591890 f i xbNetMsg.obj
 0002:00033170       ?begin@?$vector@UCXBNetPlayerInfo@@V?$allocator@UCXBNetPlayerInfo@@@std@@@std@@QBE?AVconst_iterator@12@XZ 005918f0 f i xbNetMsg.obj
 0002:000331d0       ?end@?$vector@UCXBNetPlayerInfo@@V?$allocator@UCXBNetPlayerInfo@@@std@@@std@@QAE?AViterator@12@XZ 00591950 f i xbNetMsg.obj
 0002:00033230       ?end@?$vector@UCXBNetPlayerInfo@@V?$allocator@UCXBNetPlayerInfo@@@std@@@std@@QBE?AVconst_iterator@12@XZ 005919b0 f i xbNetMsg.obj
 0002:00033290       ?size@?$vector@UCXBNetPlayerInfo@@V?$allocator@UCXBNetPlayerInfo@@@std@@@std@@QBEIXZ 00591a10 f i xbNetMsg.obj
 0002:00033310       ?erase@?$vector@UCXBNetPlayerInfo@@V?$allocator@UCXBNetPlayerInfo@@@std@@@std@@QAE?AViterator@12@V312@@Z 00591a90 f i xbNetMsg.obj
 0002:000333c0       ??Dconst_iterator@?$vector@UCXBNetPlayerInfo@@V?$allocator@UCXBNetPlayerInfo@@@std@@@std@@QBEABUCXBNetPlayerInfo@@XZ 00591b40 f i xbNetMsg.obj
 0002:00033400       ??Cconst_iterator@?$vector@UCXBNetPlayerInfo@@V?$allocator@UCXBNetPlayerInfo@@@std@@@std@@QBEPBUCXBNetPlayerInfo@@XZ 00591b80 f i xbNetMsg.obj
 0002:00033450       ??Econst_iterator@?$vector@UCXBNetPlayerInfo@@V?$allocator@UCXBNetPlayerInfo@@@std@@@std@@QAEAAV012@XZ 00591bd0 f i xbNetMsg.obj
 0002:000334a0       ??8const_iterator@?$vector@UCXBNetPlayerInfo@@V?$allocator@UCXBNetPlayerInfo@@@std@@@std@@QBE_NABV012@@Z 00591c20 f i xbNetMsg.obj
 0002:000334f0       ??9const_iterator@?$vector@UCXBNetPlayerInfo@@V?$allocator@UCXBNetPlayerInfo@@@std@@@std@@QBE_NABV012@@Z 00591c70 f i xbNetMsg.obj
 0002:00033550       ?_Destroy@?$vector@UCXBNetPlayerInfo@@V?$allocator@UCXBNetPlayerInfo@@@std@@@std@@IAEXPAUCXBNetPlayerInfo@@0@Z 00591cd0 f i xbNetMsg.obj
 0002:000335b0       ??0const_iterator@?$vector@UCXBNetPlayerInfo@@V?$allocator@UCXBNetPlayerInfo@@@std@@@std@@QAE@PAUCXBNetPlayerInfo@@@Z 00591d30 f i xbNetMsg.obj
 0002:00033600       ??0iterator@?$vector@UCXBNetPlayerInfo@@V?$allocator@UCXBNetPlayerInfo@@@std@@@std@@QAE@PAUCXBNetPlayerInfo@@@Z 00591d80 f i xbNetMsg.obj
 0002:00033660       ??$find_if@Viterator@?$vector@UCXBNetPlayerInfo@@V?$allocator@UCXBNetPlayerInfo@@@std@@@std@@UMatchUserID@@@std@@YA?AViterator@?$vector@UCXBNetPlayerInfo@@V?$allocator@UCXBNetPlayerInfo@@@std@@@0@V120@0UMatchUserID@@@Z 00591de0 f i xbNetMsg.obj
 0002:00033700       ??RMatchUserID@@QBE_NABUCXBNetPlayerInfo@@@Z 00591e80 f i xbNetMsg.obj
 0002:000337b0       ??$find_if@Vconst_iterator@?$vector@UCXBNetPlayerInfo@@V?$allocator@UCXBNetPlayerInfo@@@std@@@std@@UMatchInAddr@@@std@@YA?AVconst_iterator@?$vector@UCXBNetPlayerInfo@@V?$allocator@UCXBNetPlayerInfo@@@std@@@0@V120@0UMatchInAddr@@@Z 00591f30 f i xbNetMsg.obj
 0002:00033850       ??RMatchInAddr@@QBE_NABUCXBNetPlayerInfo@@@Z 00591fd0 f i xbNetMsg.obj
 0002:000338a0       ??$copy@PAUCXBNetPlayerInfo@@PAU1@@std@@YAPAUCXBNetPlayerInfo@@PAU1@00@Z 00592020 f i xbNetMsg.obj
 0002:00033920       ??$_Destroy_range@UCXBNetPlayerInfo@@V?$allocator@UCXBNetPlayerInfo@@@std@@@std@@YAXPAUCXBNetPlayerInfo@@0AAV?$allocator@UCXBNetPlayerInfo@@@0@@Z 005920a0 f i xbNetMsg.obj
 0002:000339a0       ??Diterator@?$vector@UCXBNetPlayerInfo@@V?$allocator@UCXBNetPlayerInfo@@@std@@@std@@QBEAAUCXBNetPlayerInfo@@XZ 00592120 f i xbNetMsg.obj
 0002:000339f0       ??Eiterator@?$vector@UCXBNetPlayerInfo@@V?$allocator@UCXBNetPlayerInfo@@@std@@@std@@QAEAAV012@XZ 00592170 f i xbNetMsg.obj
 0002:00033a40       ??$_Ptr_cat@PAUCXBNetPlayerInfo@@PAU1@@std@@YA?AU_Nonscalar_ptr_iterator_tag@0@AAPAUCXBNetPlayerInfo@@0@Z 005921c0 f i xbNetMsg.obj
 0002:00033ab0       ??$_Copy_opt@PAUCXBNetPlayerInfo@@PAU1@@std@@YAPAUCXBNetPlayerInfo@@PAU1@00U_Nonscalar_ptr_iterator_tag@0@@Z 00592230 f i xbNetMsg.obj
 0002:00033b20       ??$_Destroy_range@UCXBNetPlayerInfo@@V?$allocator@UCXBNetPlayerInfo@@@std@@@std@@YAXPAUCXBNetPlayerInfo@@0AAV?$allocator@UCXBNetPlayerInfo@@@0@U_Nonscalar_ptr_iterator_tag@0@@Z 005922a0 f i xbNetMsg.obj
 0002:00033b90       ?destroy@?$allocator@UCXBNetPlayerInfo@@@std@@QAEXPAUCXBNetPlayerInfo@@@Z 00592310 f i xbNetMsg.obj
 0002:00033bf0       ??$_Destroy@UCXBNetPlayerInfo@@@std@@YAXPAUCXBNetPlayerInfo@@@Z 00592370 f i xbNetMsg.obj
 0002:00033c20       ?XBNet_OnlineInit@@YAJEPAU_XONLINE_STARTUP_PARAMS@@@Z 005923a0 f   xbOnline.obj
 0002:00033cf0       ?XBNet_OnlineCleanup@@YAJXZ 00592470 f   xbOnline.obj
 0002:00033d60       ?XBOnline_GetUserList@@YAJPAU_XONLINE_USER@@PAK@Z 005924e0 f   xbOnline.obj
 0002:00033dd0       ?XBOnline_GetUserList@@YAJAAV?$vector@U_XONLINE_USER@@V?$allocator@U_XONLINE_USER@@@std@@@std@@@Z 00592550 f   xbOnline.obj
 0002:00033f00       ??0CXBOnlineUI@@QAE@XZ     00592680 f   xbOnline.obj
 0002:00033fc0       ?SetErrorStr@CXBOnlineUI@@QAEXPBGPAD@Z 00592740 f   xbOnline.obj
 0002:00034060       ?Initialize@CXBOnlineUI@@QAEJXZ 005927e0 f   xbOnline.obj
 0002:000341e0       ?RenderCreateAccount@CXBOnlineUI@@QBEXH@Z 00592960 f   xbOnline.obj
 0002:00034270       ?RenderSelectAccount@CXBOnlineUI@@QBEXKABV?$vector@U_XONLINE_USER@@V?$allocator@U_XONLINE_USER@@@std@@@std@@@Z 005929f0 f   xbOnline.obj
 0002:00034490       ?RenderLoggingOn@CXBOnlineUI@@QBEXPBU_XONLINE_USER@@@Z 00592c10 f   xbOnline.obj
 0002:00034740       ?RenderError@CXBOnlineUI@@QBEXH@Z 00592ec0 f   xbOnline.obj
 0002:00034810       ?RenderHeader@CXBOnlineUI@@QBEXXZ 00592f90 f   xbOnline.obj
 0002:00034880       ?RenderOnlineNotificationIcon@CXBOnlineUI@@QBEXMMW4ONLINEICON@@@Z 00593000 f   xbOnline.obj
 0002:000348f0       ?XBOnline_RenderOnlineNotificationIcon@@YAXPAVCXBFont@@MMW4ONLINEICON@@@Z 00593070 f   xbOnline.obj
 0002:000349a0       ?XBOnline_GetOnlineHResultString@@YAPBGJ@Z 00593120 f   xbOnline.obj
 0002:000354c0       ?size@?$vector@U_XONLINE_USER@@V?$allocator@U_XONLINE_USER@@@std@@@std@@QBEIXZ 00593c40 f i xbOnline.obj
 0002:00035540       ?empty@?$vector@U_XONLINE_USER@@V?$allocator@U_XONLINE_USER@@@std@@@std@@QBE_NXZ 00593cc0 f i xbOnline.obj
 0002:000355a0       ??A?$vector@U_XONLINE_USER@@V?$allocator@U_XONLINE_USER@@@std@@@std@@QBEABU_XONLINE_USER@@I@Z 00593d20 f i xbOnline.obj
 0002:00035620       ?push_back@?$vector@U_XONLINE_USER@@V?$allocator@U_XONLINE_USER@@@std@@@std@@QAEXABU_XONLINE_USER@@@Z 00593da0 f i xbOnline.obj
 0002:000356e0       ?capacity@?$vector@U_XONLINE_USER@@V?$allocator@U_XONLINE_USER@@@std@@@std@@QBEIXZ 00593e60 f i xbOnline.obj
 0002:00035760       ?begin@?$vector@U_XONLINE_USER@@V?$allocator@U_XONLINE_USER@@@std@@@std@@QBE?AVconst_iterator@12@XZ 00593ee0 f i xbOnline.obj
 0002:000357c0       ?end@?$vector@U_XONLINE_USER@@V?$allocator@U_XONLINE_USER@@@std@@@std@@QAE?AViterator@12@XZ 00593f40 f i xbOnline.obj
 0002:00035820       ?insert@?$vector@U_XONLINE_USER@@V?$allocator@U_XONLINE_USER@@@std@@@std@@QAE?AViterator@12@V312@ABU_XONLINE_USER@@@Z 00593fa0 f i xbOnline.obj
 0002:00035900       ?_Ufill@?$vector@U_XONLINE_USER@@V?$allocator@U_XONLINE_USER@@@std@@@std@@IAEPAU_XONLINE_USER@@PAU3@IABU3@@Z 00594080 f i xbOnline.obj
 0002:00035970       ??Dconst_iterator@?$vector@U_XONLINE_USER@@V?$allocator@U_XONLINE_USER@@@std@@@std@@QBEABU_XONLINE_USER@@XZ 005940f0 f i xbOnline.obj
 0002:000359b0       ??Hconst_iterator@?$vector@U_XONLINE_USER@@V?$allocator@U_XONLINE_USER@@@std@@@std@@QBE?AV012@H@Z 00594130 f i xbOnline.obj
 0002:00035a60       ?begin@?$vector@U_XONLINE_USER@@V?$allocator@U_XONLINE_USER@@@std@@@std@@QAE?AViterator@12@XZ 005941e0 f i xbOnline.obj
 0002:00035ac0       ?_Insert_n@?$vector@U_XONLINE_USER@@V?$allocator@U_XONLINE_USER@@@std@@@std@@IAEXViterator@12@IABU_XONLINE_USER@@@Z 00594240 f i xbOnline.obj
 0002:00035fc0       ??0const_iterator@?$vector@U_XONLINE_USER@@V?$allocator@U_XONLINE_USER@@@std@@@std@@QAE@PAU_XONLINE_USER@@@Z 00594740 f i xbOnline.obj
 0002:00036010       ??Yconst_iterator@?$vector@U_XONLINE_USER@@V?$allocator@U_XONLINE_USER@@@std@@@std@@QAEAAV012@H@Z 00594790 f i xbOnline.obj
 0002:00036060       ??0iterator@?$vector@U_XONLINE_USER@@V?$allocator@U_XONLINE_USER@@@std@@@std@@QAE@PAU_XONLINE_USER@@@Z 005947e0 f i xbOnline.obj
 0002:000360c0       ??Hiterator@?$vector@U_XONLINE_USER@@V?$allocator@U_XONLINE_USER@@@std@@@std@@QBE?AV012@H@Z 00594840 f i xbOnline.obj
 0002:00036170       ??Giterator@?$vector@U_XONLINE_USER@@V?$allocator@U_XONLINE_USER@@@std@@@std@@QBEHABVconst_iterator@12@@Z 005948f0 f i xbOnline.obj
 0002:000361e0       ?max_size@?$vector@U_XONLINE_USER@@V?$allocator@U_XONLINE_USER@@@std@@@std@@QBEIXZ 00594960 f i xbOnline.obj
 0002:00036230       ?_Destroy@?$vector@U_XONLINE_USER@@V?$allocator@U_XONLINE_USER@@@std@@@std@@IAEXPAU_XONLINE_USER@@0@Z 005949b0 f i xbOnline.obj
 0002:00036290       ?_Xlen@?$vector@U_XONLINE_USER@@V?$allocator@U_XONLINE_USER@@@std@@@std@@IBEXXZ 00594a10 f i xbOnline.obj
 0002:00036350       ??0length_error@std@@QAE@ABV?$basic_string@DU?$char_traits@D@std@@V?$allocator@D@2@@1@@Z 00594ad0 f i xbOnline.obj
 0002:000363c0       ??0logic_error@std@@QAE@ABV?$basic_string@DU?$char_traits@D@std@@V?$allocator@D@2@@1@@Z 00594b40 f i xbOnline.obj
 0002:00036470       ?what@logic_error@std@@UBEPBDXZ 00594bf0 f i xbOnline.obj
 0002:000364d0       ??_Glogic_error@std@@UAEPAXI@Z 00594c50 f i xbOnline.obj
 0002:000364d0       ??_Elogic_error@std@@UAEPAXI@Z 00594c50 f i xbOnline.obj
 0002:00036540       ??1logic_error@std@@UAE@XZ 00594cc0 f i xbOnline.obj
 0002:000365e0       ??1length_error@std@@UAE@XZ 00594d60 f i xbOnline.obj
 0002:00036640       ??_Elength_error@std@@UAEPAXI@Z 00594dc0 f i xbOnline.obj
 0002:00036640       ??_Glength_error@std@@UAEPAXI@Z 00594dc0 f i xbOnline.obj
 0002:000366b0       ??0?$basic_string@DU?$char_traits@D@std@@V?$allocator@D@2@@std@@QAE@ABV01@@Z 00594e30 f i xbOnline.obj
 0002:00036740       ??1?$basic_string@DU?$char_traits@D@std@@V?$allocator@D@2@@std@@QAE@XZ 00594ec0 f i xbOnline.obj
 0002:000367a0       ?c_str@?$basic_string@DU?$char_traits@D@std@@V?$allocator@D@2@@std@@QBEPBDXZ 00594f20 f i xbOnline.obj
 0002:000367f0       ?assign@?$basic_string@DU?$char_traits@D@std@@V?$allocator@D@2@@std@@QAEAAV12@ABV12@II@Z 00594f70 f i xbOnline.obj
 0002:00036910       ?copy@?$char_traits@D@std@@SAPADPADPBDI@Z 00595090 f i xbOnline.obj
 0002:00036970       ?_Tidy@?$basic_string@DU?$char_traits@D@std@@V?$allocator@D@2@@std@@IAEX_NI@Z 005950f0 f i xbOnline.obj
 0002:00036a40       ?_Myptr@?$basic_string@DU?$char_traits@D@std@@V?$allocator@D@2@@std@@QBEPBDXZ 005951c0 f i xbOnline.obj
 0002:00036ab0       ??0?$_String_val@DV?$allocator@D@std@@@std@@IAE@V?$allocator@D@1@@Z 00595230 f i xbOnline.obj
 0002:00036b10       ??0?$allocator@D@std@@QAE@ABV01@@Z 00595290 f i xbOnline.obj
 0002:00036b50       ?erase@?$basic_string@DU?$char_traits@D@std@@V?$allocator@D@2@@std@@QAEAAV12@II@Z 005952d0 f i xbOnline.obj
 0002:00036c40       ?move@?$char_traits@D@std@@SAPADPADPBDI@Z 005953c0 f i xbOnline.obj
 0002:00036ca0       ?size@?$basic_string@DU?$char_traits@D@std@@V?$allocator@D@2@@std@@QBEIXZ 00595420 f i xbOnline.obj
 0002:00036ce0       ?_Eos@?$basic_string@DU?$char_traits@D@std@@V?$allocator@D@2@@std@@IAEXI@Z 00595460 f i xbOnline.obj
 0002:00036d60       ?assign@?$char_traits@D@std@@SAXAADABD@Z 005954e0 f i xbOnline.obj
 0002:00036da0       ?_Grow@?$basic_string@DU?$char_traits@D@std@@V?$allocator@D@2@@std@@IAE_NI_N@Z 00595520 f i xbOnline.obj
 0002:00036ea0       ?_Myptr@?$basic_string@DU?$char_traits@D@std@@V?$allocator@D@2@@std@@QAEPADXZ 00595620 f i xbOnline.obj
 0002:00036f10       ?deallocate@?$allocator@D@std@@QAEXPADI@Z 00595690 f i xbOnline.obj
 0002:00036f70       ?max_size@?$basic_string@DU?$char_traits@D@std@@V?$allocator@D@2@@std@@QBEIXZ 005956f0 f i xbOnline.obj
 0002:00036ff0       ?_Copy@?$basic_string@DU?$char_traits@D@std@@V?$allocator@D@2@@std@@IAEXII@Z 00595770 f i xbOnline.obj
 0002:000371e0       ?deallocate@?$allocator@U_XONLINE_USER@@@std@@QAEXPAU_XONLINE_USER@@I@Z 00595960 f i xbOnline.obj
 0002:00037240       ?allocate@?$allocator@U_XONLINE_USER@@@std@@QAEPAU_XONLINE_USER@@I@Z 005959c0 f i xbOnline.obj
 0002:000372a0       ??Gconst_iterator@?$vector@U_XONLINE_USER@@V?$allocator@U_XONLINE_USER@@@std@@@std@@QBEHABV012@@Z 00595a20 f i xbOnline.obj
 0002:000372f0       ??Yiterator@?$vector@U_XONLINE_USER@@V?$allocator@U_XONLINE_USER@@@std@@@std@@QAEAAV012@H@Z 00595a70 f i xbOnline.obj
 0002:00037340       ??0length_error@std@@QAE@ABV01@@Z 00595ac0 f i xbOnline.obj
 0002:000373b0       ??0logic_error@std@@QAE@ABV01@@Z 00595b30 f i xbOnline.obj
 0002:00037470       ??0?$basic_string@DU?$char_traits@D@std@@V?$allocator@D@2@@std@@QAE@PBD@Z 00595bf0 f i xbOnline.obj
 0002:000374f0       ?allocate@?$allocator@D@std@@QAEPADI@Z 00595c70 f i xbOnline.obj
 0002:00037550       ?max_size@?$allocator@D@std@@QBEIXZ 00595cd0 f i xbOnline.obj
 0002:000375c0       ?max_size@?$allocator@U_XONLINE_USER@@@std@@QBEIXZ 00595d40 f i xbOnline.obj
 0002:00037630       ?assign@?$basic_string@DU?$char_traits@D@std@@V?$allocator@D@2@@std@@QAEAAV12@PBD@Z 00595db0 f i xbOnline.obj
 0002:000376a0       ?length@?$char_traits@D@std@@SAIPBD@Z 00595e20 f i xbOnline.obj
 0002:000376f0       ??0?$allocator@D@std@@QAE@XZ 00595e70 f i xbOnline.obj
 0002:00037730       ?assign@?$basic_string@DU?$char_traits@D@std@@V?$allocator@D@2@@std@@QAEAAV12@PBDI@Z 00595eb0 f i xbOnline.obj
 0002:00037810       ?_Inside@?$basic_string@DU?$char_traits@D@std@@V?$allocator@D@2@@std@@IAE_NPBD@Z 00595f90 f i xbOnline.obj
 0002:00037890       ??$_Uninitialized_fill_n@PAU_XONLINE_USER@@IU1@V?$allocator@U_XONLINE_USER@@@std@@@std@@YAXPAU_XONLINE_USER@@IABU1@AAV?$allocator@U_XONLINE_USER@@@0@@Z 00596010 f i xbOnline.obj
 0002:00037910       ??$_Ucopy@PAU_XONLINE_USER@@@?$vector@U_XONLINE_USER@@V?$allocator@U_XONLINE_USER@@@std@@@std@@IAEPAU_XONLINE_USER@@PAU2@00@Z 00596090 f i xbOnline.obj
 0002:00037980       ??$fill@PAU_XONLINE_USER@@U1@@std@@YAXPAU_XONLINE_USER@@0ABU1@@Z 00596100 f i xbOnline.obj
 0002:000379e0       ??$copy_backward@PAU_XONLINE_USER@@PAU1@@std@@YAPAU_XONLINE_USER@@PAU1@00@Z 00596160 f i xbOnline.obj
 0002:00037a60       ??$_Destroy_range@U_XONLINE_USER@@V?$allocator@U_XONLINE_USER@@@std@@@std@@YAXPAU_XONLINE_USER@@0AAV?$allocator@U_XONLINE_USER@@@0@@Z 005961e0 f i xbOnline.obj
 0002:00037ae0       ??$_Allocate@U_XONLINE_USER@@@std@@YAPAU_XONLINE_USER@@IPAU1@@Z 00596260 f i xbOnline.obj
 0002:00037b40       ??$_Allocate@D@std@@YAPADIPAD@Z 005962c0 f i xbOnline.obj
 0002:00037b90       ??$_Ptr_cat@PAU_XONLINE_USER@@PAU1@@std@@YA?AU_Nonscalar_ptr_iterator_tag@0@AAPAU_XONLINE_USER@@0@Z 00596310 f i xbOnline.obj
 0002:00037c00       ??$_Uninit_fill_n@PAU_XONLINE_USER@@IU1@V?$allocator@U_XONLINE_USER@@@std@@@std@@YAXPAU_XONLINE_USER@@IABU1@AAV?$allocator@U_XONLINE_USER@@@0@U_Nonscalar_ptr_iterator_tag@0@@Z 00596380 f i xbOnline.obj
 0002:00037d00       ??$_Uninitialized_copy@PAU_XONLINE_USER@@PAU1@V?$allocator@U_XONLINE_USER@@@std@@@std@@YAPAU_XONLINE_USER@@PAU1@00AAV?$allocator@U_XONLINE_USER@@@0@@Z 00596480 f i xbOnline.obj
 0002:00037d80       ??$_Copy_backward_opt@PAU_XONLINE_USER@@PAU1@@std@@YAPAU_XONLINE_USER@@PAU1@00U_Nonscalar_ptr_iterator_tag@0@@Z 00596500 f i xbOnline.obj
 0002:00037df0       ??$_Destroy_range@U_XONLINE_USER@@V?$allocator@U_XONLINE_USER@@@std@@@std@@YAXPAU_XONLINE_USER@@0AAV?$allocator@U_XONLINE_USER@@@0@U_Nonscalar_ptr_iterator_tag@0@@Z 00596570 f i xbOnline.obj
 0002:00037e60       ?construct@?$allocator@U_XONLINE_USER@@@std@@QAEXPAU_XONLINE_USER@@ABU3@@Z 005965e0 f i xbOnline.obj
 0002:00037ec0       ?destroy@?$allocator@U_XONLINE_USER@@@std@@QAEXPAU_XONLINE_USER@@@Z 00596640 f i xbOnline.obj
 0002:00037f20       ??$_Uninit_copy@PAU_XONLINE_USER@@PAU1@V?$allocator@U_XONLINE_USER@@@std@@@std@@YAPAU_XONLINE_USER@@PAU1@00AAV?$allocator@U_XONLINE_USER@@@0@U_Nonscalar_ptr_iterator_tag@0@@Z 005966a0 f i xbOnline.obj
 0002:00038020       ??$_Construct@U_XONLINE_USER@@U1@@std@@YAXPAU_XONLINE_USER@@ABU1@@Z 005967a0 f i xbOnline.obj
 0002:000380c0       ??2@YAPAXIPAX@Z            00596840 f i xbOnline.obj
 0002:00038100       ??$_Destroy@U_XONLINE_USER@@@std@@YAXPAU_XONLINE_USER@@@Z 00596880 f i xbOnline.obj
 0002:00038130       ??0CXBOnlineTask@@QAE@PAUXONLINETASK_HANDLE__@@@Z 005968b0 f   xbOnlineTask.obj
 0002:00038180       ??1CXBOnlineTask@@QAE@XZ   00596900 f   xbOnlineTask.obj
 0002:000381d0       ??BCXBOnlineTask@@QBEPAUXONLINETASK_HANDLE__@@XZ 00596950 f   xbOnlineTask.obj
 0002:00038210       ??ICXBOnlineTask@@QAEPAPAUXONLINETASK_HANDLE__@@XZ 00596990 f   xbOnlineTask.obj
 0002:00038290       ?IsOpen@CXBOnlineTask@@QBEHXZ 00596a10 f   xbOnlineTask.obj
 0002:000382e0       ?IsClosed@CXBOnlineTask@@QBEHXZ 00596a60 f   xbOnlineTask.obj
 0002:00038330       ?Close@CXBOnlineTask@@QAEXXZ 00596ab0 f   xbOnlineTask.obj
 0002:000383a0       ?Continue@CXBOnlineTask@@QAEJXZ 00596b20 f   xbOnlineTask.obj
 0002:00038400       ?XBPerf_CalcCacheHits@@YAJW4_D3DPRIMITIVETYPE@@KPAGKPAK22@Z 00596b80 f   xbperf.obj
 0002:000386a0       ?XBPerf_GetCpuSpeed@@YANXZ 00596e20 f   xbperf.obj
 0002:00038810       ?XBRandName_GetRandomName@@YAXPAGK@Z 00596f90 f   xbRandName.obj
 0002:000391a0       ?XBResource_SizeOf@@YAKPAUD3DResource@@@Z 00597920 f   xbresource.obj
 0002:00039280       ??0CXBPackedResource@@QAE@XZ 00597a00 f   xbresource.obj
 0002:00039310       ??1CXBPackedResource@@QAE@XZ 00597a90 f   xbresource.obj
 0002:00039360       ?GetData@CXBPackedResource@@QBEPAXPBD@Z 00597ae0 f   xbresource.obj
 0002:00039430       ?Create@CXBPackedResource@@QAEJPBDKPAUXBRESOURCE@@@Z 00597bb0 f   xbresource.obj
 0002:00039780       ?GetResourceTags@CXBPackedResource@@QAEJPAKPAPAUXBRESOURCE@@@Z 00597f00 f   xbresource.obj
 0002:000397f0       ?Destroy@CXBPackedResource@@QAEXXZ 00597f70 f   xbresource.obj
 0002:000398d0       ??0CXBSavedGame@@QAE@XZ    00598050 f   xbsavedgame.obj
 0002:00039970       ??0CXBSavedGame@@QAE@ABV0@@Z 005980f0 f   xbsavedgame.obj
 0002:00039a90       ??4CXBSavedGame@@QAEAAV0@ABV0@@Z 00598210 f   xbsavedgame.obj
 0002:00039bd0       ??1CXBSavedGame@@QAE@XZ    00598350 f   xbsavedgame.obj
 0002:00039c50       ??0CXBSavedGame@@QAE@ABU_XGAME_FIND_DATA@@@Z 005983d0 f   xbsavedgame.obj
 0002:00039d30       ??0CXBSavedGame@@QAE@PBGPBD@Z 005984b0 f   xbsavedgame.obj
 0002:00039e50       ?CreateGame@CXBSavedGame@@QAEKDPBG@Z 005985d0 f   xbsavedgame.obj
 0002:00039eb0       ?OpenGame@CXBSavedGame@@QAEKDPBGK@Z 00598630 f   xbsavedgame.obj
 0002:00039fd0       ?DeleteGame@CXBSavedGame@@QAEHXZ 00598750 f   xbsavedgame.obj
 0002:0003a0d0       ?IsEmpty@CXBSavedGame@@QBEHXZ 00598850 f   xbsavedgame.obj
 0002:0003a120       ?GetDrive@CXBSavedGame@@QBEDXZ 005988a0 f   xbsavedgame.obj
 0002:0003a160       ?GetSize@CXBSavedGame@@QBEKXZ 005988e0 f   xbsavedgame.obj
 0002:0003a250       ?GetLastWriteTime@CXBSavedGame@@QBE?AU_FILETIME@@XZ 005989d0 f   xbsavedgame.obj
 0002:0003a480       ??0FindHandle@@QAE@PAX@Z   00598c00 f i xbsavedgame.obj
 0002:0003a4d0       ??1FindHandle@@QAE@XZ      00598c50 f i xbsavedgame.obj
 0002:0003a530       ??BFindHandle@@QBEPAXXZ    00598cb0 f i xbsavedgame.obj
 0002:0003a570       ?GetLastWriteQword@CXBSavedGame@@QBE_KXZ 00598cf0 f   xbsavedgame.obj
 0002:0003a610       ?GetName@CXBSavedGame@@QBEPBGXZ 00598d90 f   xbsavedgame.obj
 0002:0003a650       ?GetDirectory@CXBSavedGame@@QBEPBDXZ 00598dd0 f   xbsavedgame.obj
 0002:0003a690       ?GetImage@CXBSavedGame@@QBEHPAPAUD3DTexture@@@Z 00598e10 f   xbsavedgame.obj
 0002:0003aae0       ?SaveImage@CXBSavedGame@@QAEHQAUD3DTexture@@@Z 00599260 f   xbsavedgame.obj
 0002:0003ad50       ?CreateImageSurface@D3DDevice@@SGJIIW4_D3DFORMAT@@PAPAUD3DSurface@@@Z 005994d0 f i xbsavedgame.obj
 0002:0003add0       ?Init@CXBSavedGame@@AAEXXZ 00599550 f   xbsavedgame.obj
 0002:0003aea0       ??0CXBSocket@@QAE@I@Z      00599620 f   xbsocket.obj
 0002:0003aef0       ??0CXBSocket@@QAE@W4SocketType@0@@Z 00599670 f   xbsocket.obj
 0002:0003af90       ??0CXBSocket@@QAE@HH@Z     00599710 f   xbsocket.obj
 0002:0003b030       ??1CXBSocket@@QAE@XZ       005997b0 f   xbsocket.obj
 0002:0003b080       ?Open@CXBSocket@@QAEHW4SocketType@1@@Z 00599800 f   xbsocket.obj
 0002:0003b150       ?Open@CXBSocket@@QAEHHH@Z  005998d0 f   xbsocket.obj
 0002:0003b1d0       ?IsOpen@CXBSocket@@QBEHXZ  00599950 f   xbsocket.obj
 0002:0003b220       ?Close@CXBSocket@@QAEHXZ   005999a0 f   xbsocket.obj
 0002:0003b2a0       ?Accept@CXBSocket@@QAEIPAUsockaddr_in@@@Z 00599a20 f   xbsocket.obj
 0002:0003b3b0       ?Bind@CXBSocket@@QAEHPBUsockaddr_in@@@Z 00599b30 f   xbsocket.obj
 0002:0003b4a0       ?Connect@CXBSocket@@QAEHPBUsockaddr_in@@@Z 00599c20 f   xbsocket.obj
 0002:0003b590       ?GetSocket@CXBSocket@@QBEIXZ 00599d10 f   xbsocket.obj
 0002:0003b5d0       ?GetSockName@CXBSocket@@QBEHPAUsockaddr_in@@@Z 00599d50 f   xbsocket.obj
 0002:0003b700       ?GetSockOpt@CXBSocket@@QBEHHHPAXPAH@Z 00599e80 f   xbsocket.obj
 0002:0003b7f0       ?IoCtlSocket@CXBSocket@@QAEHJPAK@Z 00599f70 f   xbsocket.obj
 0002:0003b8b0       ?Listen@CXBSocket@@QAEHH@Z 0059a030 f   xbsocket.obj
 0002:0003b940       ?Recv@CXBSocket@@QAEHPAXH@Z 0059a0c0 f   xbsocket.obj
 0002:0003ba30       ?RecvFrom@CXBSocket@@QAEHPAXHPAUsockaddr_in@@@Z 0059a1b0 f   xbsocket.obj
 0002:0003bba0       ?Select@CXBSocket@@QAEHPAH00@Z 0059a320 f   xbsocket.obj
 0002:0003c070       ?Send@CXBSocket@@QAEHPBXH@Z 0059a7f0 f   xbsocket.obj
 0002:0003c160       ?SendTo@CXBSocket@@QAEHPBXHPBUsockaddr_in@@@Z 0059a8e0 f   xbsocket.obj
 0002:0003c250       ?SetSockOpt@CXBSocket@@QAEHHHPBXH@Z 0059a9d0 f   xbsocket.obj
 0002:0003c320       ?Shutdown@CXBSocket@@QAEHH@Z 0059aaa0 f   xbsocket.obj
 0002:0003c3b0       ??0CRiffChunk@@QAE@XZ      0059ab30 f   xbsound.obj
 0002:0003c440       ?Initialize@CRiffChunk@@QAEXKPBV1@PAX@Z 0059abc0 f   xbsound.obj
 0002:0003c4a0       ?Open@CRiffChunk@@QAEJXZ   0059ac20 f   xbsound.obj
 0002:0003c6c0       ?ReadData@CRiffChunk@@QAEJJPAXK@Z 0059ae40 f   xbsound.obj
 0002:0003c820       ??0CWaveFile@@QAE@XZ       0059afa0 f   xbsound.obj
 0002:0003c8c0       ??1CWaveFile@@QAE@XZ       0059b040 f   xbsound.obj
 0002:0003c910       ?Open@CWaveFile@@QAEJPBD@Z 0059b090 f   xbsound.obj
 0002:0003cb80       ?GetFormat@CWaveFile@@QAEJPAUWAVEFORMATEXTENSIBLE@@@Z 0059b300 f   xbsound.obj
 0002:0003cc60       ?GetDataSize@CRiffChunk@@QAEKXZ 0059b3e0 f i xbsound.obj
 0002:0003cca0       ?ReadSample@CWaveFile@@QAEJKPAXKPAK@Z 0059b420 f   xbsound.obj
 0002:0003cda0       ?GetDuration@CWaveFile@@QAEXPAK@Z 0059b520 f i xbsound.obj
 0002:0003ce00       ?GetLoopRegion@CWaveFile@@QAEJPAK0@Z 0059b580 f   xbsound.obj
 0002:0003d060       ?IsValid@CRiffChunk@@QAEHXZ 0059b7e0 f i xbsound.obj
 0002:0003d0b0       ?GetLoopRegionBytes@CWaveFile@@QAEJPAK0@Z 0059b830 f   xbsound.obj
 0002:0003d2a0       _==                        0059ba20 f i xbsound.obj
 0002:0003d300       _IsEqualGUID               0059ba80 f i xbsound.obj
 0002:0003d360       ?Close@CWaveFile@@QAEXXZ   0059bae0 f   xbsound.obj
 0002:0003d3d0       ??0CXBSound@@QAE@XZ        0059bb50 f   xbsound.obj
 0002:0003d420       ??1CXBSound@@QAE@XZ        0059bba0 f   xbsound.obj
 0002:0003d470       ?Create@CXBSound@@QAEJPBDK@Z 0059bbf0 f   xbsound.obj
 0002:0003d8f0       ?Lock@IDirectSoundBuffer@@QAGJKKPAPAXPAK01K@Z 0059c070 f i xbsound.obj
 0002:0003d960       ?Unlock@IDirectSoundBuffer@@QAGJPAXK0K@Z 0059c0e0 f i xbsound.obj
 0002:0003d9c0       ?Create@CXBSound@@QAEJPBUWAVEFORMATEXTENSIBLE@@KPBXK@Z 0059c140 f   xbsound.obj
 0002:0003daf0       ?SetBufferData@IDirectSoundBuffer@@QAGJPAXK@Z 0059c270 f i xbsound.obj
 0002:0003db50       ?Destroy@CXBSound@@QAEXXZ  0059c2d0 f   xbsound.obj
 0002:0003dbc0       ?Release@IDirectSoundBuffer@@QAGKXZ 0059c340 f i xbsound.obj
 0002:0003dc10       ?Play@CXBSound@@QBEJK@Z    0059c390 f   xbsound.obj
 0002:0003dc90       ?Play@IDirectSoundBuffer@@QAGJKKK@Z 0059c410 f i xbsound.obj
 0002:0003dcf0       ?Stop@CXBSound@@QBEJXZ     0059c470 f   xbsound.obj
 0002:0003dd60       ?Stop@IDirectSoundBuffer@@QAGJXZ 0059c4e0 f i xbsound.obj
 0002:0003ddb0       ?SetPosition@CXBSound@@QBEJABUD3DXVECTOR3@@@Z 0059c530 f   xbsound.obj
 0002:0003de40       ?SetPosition@IDirectSoundBuffer@@QAGJMMMK@Z 0059c5c0 f i xbsound.obj
 0002:0003dea0       ?SetVelocity@CXBSound@@QBEJABUD3DXVECTOR3@@@Z 0059c620 f   xbsound.obj
 0002:0003df30       ?SetVelocity@IDirectSoundBuffer@@QAGJMMMK@Z 0059c6b0 f i xbsound.obj
 0002:0003df90       ?XBSound_DrawLevelMeters@@YAJPAU_DSOUTPUTLEVELS@@MMMM@Z 0059c710 f   xbsound.obj
 0002:0003e8b0       _log10f                    0059d030 f i xbsound.obj
 0002:0003e910       ?XBSound_DrawLevelMeters@@YAJPAUIDirectSound@@MMMM@Z 0059d090 f   xbsound.obj
 0002:0003e9c0       ?GetOutputLevels@IDirectSound@@QAGJPAU_DSOUTPUTLEVELS@@H@Z 0059d140 f i xbsound.obj
 0002:0003ea20       ??0CXBStopWatch@@QAE@XZ    0059d1a0 f   xbstopwatch.obj
 0002:0003eb10       ?Start@CXBStopWatch@@QAEXXZ 0059d290 f   xbstopwatch.obj
 0002:0003eb80       ?StartZero@CXBStopWatch@@QAEXXZ 0059d300 f   xbstopwatch.obj
 0002:0003ec00       ?Stop@CXBStopWatch@@QAEXXZ 0059d380 f   xbstopwatch.obj
 0002:0003eca0       ?Reset@CXBStopWatch@@QAEXXZ 0059d420 f   xbstopwatch.obj
 0002:0003ed20       ?IsRunning@CXBStopWatch@@QBEHXZ 0059d4a0 f   xbstopwatch.obj
 0002:0003ed60       ?GetElapsedSeconds@CXBStopWatch@@QBEMXZ 0059d4e0 f   xbstopwatch.obj
 0002:0003ee00       ?GetElapsedMilliseconds@CXBStopWatch@@QBEMXZ 0059d580 f   xbstopwatch.obj
 0002:0003ee60       ?GetTicks@CXBStopWatch@@ABE_JXZ 0059d5e0 f   xbstopwatch.obj
 0002:0003ef00       ??0CXBStorageDevice@@QAE@D@Z 0059d680 f   xbstoragedevice.obj
 0002:0003ef90       ??_GCXBStorageDevice@@UAEPAXI@Z 0059d710 f i xbstoragedevice.obj
 0002:0003ef90       ??_ECXBStorageDevice@@UAEPAXI@Z 0059d710 f i xbstoragedevice.obj
 0002:0003f000       ??0CXBStorageDevice@@QAE@ABV0@@Z 0059d780 f   xbstoragedevice.obj
 0002:0003f090       ??4CXBStorageDevice@@QAEAAV0@ABV0@@Z 0059d810 f   xbstoragedevice.obj
 0002:0003f100       ??1CXBStorageDevice@@UAE@XZ 0059d880 f   xbstoragedevice.obj
 0002:0003f160       ?GetUserRegion@CXBStorageDevice@@SA?AV1@XZ 0059d8e0 f   xbstoragedevice.obj
 0002:0003f1d0       ?GetTitleRegion@CXBStorageDevice@@SA?AV1@XZ 0059d950 f   xbstoragedevice.obj
 0002:0003f240       ?GetUtilityRegion@CXBStorageDevice@@SA?AV1@H@Z 0059d9c0 f   xbstoragedevice.obj
 0002:0003f2c0       ?GetBlockSize@CXBStorageDevice@@SAKXZ 0059da40 f   xbstoragedevice.obj
 0002:0003f300       ?GetDrive@CXBStorageDevice@@QBEDXZ 0059da80 f   xbstoragedevice.obj
 0002:0003f340       ?SetDrive@CXBStorageDevice@@QAEXD@Z 0059dac0 f   xbstoragedevice.obj
 0002:0003f3a0       ?IsValid@CXBStorageDevice@@QBEHXZ 0059db20 f   xbstoragedevice.obj
 0002:0003f3f0       ?IsTitleRegion@CXBStorageDevice@@QBEHXZ 0059db70 f   xbstoragedevice.obj
 0002:0003f440       ?IsUtilityRegion@CXBStorageDevice@@QBEHXZ 0059dbc0 f   xbstoragedevice.obj
 0002:0003f490       ?GetSize@CXBStorageDevice@@QBEHAA_K00@Z 0059dc10 f   xbstoragedevice.obj
 0002:0003f600       ?GetSavedGameCount@CXBStorageDevice@@QBEKXZ 0059dd80 f   xbstoragedevice.obj
 0002:0003f790       ?GetSectorSize@CXBStorageDevice@@QBEKXZ 0059df10 f   xbstoragedevice.obj
 0002:0003f7f0       ?GetClusterSize@CXBStorageDevice@@QBEKXZ 0059df70 f   xbstoragedevice.obj
 0002:0003f850       ?GetSaveGameOverhead@CXBStorageDevice@@QBEKXZ 0059dfd0 f   xbstoragedevice.obj
 0002:0003f940       ?GetFileBytes@CXBStorageDevice@@QBEKK@Z 0059e0c0 f   xbstoragedevice.obj
 0002:0003f9c0       ?FindFirstSaveGame@CXBStorageDevice@@QBEHAAU_XGAME_FIND_DATA@@@Z 0059e140 f   xbstoragedevice.obj
 0002:0003fa60       ?FindNextSaveGame@CXBStorageDevice@@QBEHAAU_XGAME_FIND_DATA@@@Z 0059e1e0 f   xbstoragedevice.obj
 0002:0003fac0       ?Cleanup@CXBStorageDevice@@ABEXXZ 0059e240 f   xbstoragedevice.obj
 0002:0003fb30       ?CreateStrip@CStripper@@QAEHHHHPAHHHH0@Z 0059e2b0 f   xbstrip.obj
 0002:00040110       ?GetNeighborCount@CStripper@@QAEHH@Z 0059e890 f i xbstrip.obj
 0002:000401e0       ?CreateIndices@CStripper@@QAEHHHPAHPAG@Z 0059e960 f   xbstrip.obj
 0002:00040600       ?FindBestStrip@@YAPAPAUCStrip@@PAUCStripList@@ABVCVertCache@@@Z 0059ed80 f   xbstrip.obj
 0002:00040aa0       ?begin@CStripList@@QAEPAPAUCStrip@@XZ 0059f220 f i xbstrip.obj
 0002:00040b10       ??1CVertCache@@QAE@XZ      0059f290 f i xbstrip.obj
 0002:00040b50       ?NumCacheHits@CVertCache@@QBEHXZ 0059f2d0 f i xbstrip.obj
 0002:00040b90       ?FindBestCachedStrip@CStripper@@QAEPAPAUCStrip@@PAUCStripList@@ABVCVertCache@@@Z 0059f310 f   xbstrip.obj
 0002:00041080       ?CreateManyStrips@CStripper@@QAEHPAUCStripList@@PAPAG@Z 0059f800 f   xbstrip.obj
 0002:00041390       ?RemoveFirst@CStripList@@QAEXXZ 0059fb10 f i xbstrip.obj
 0002:000413f0       ?RemoveStripFromList@CStripList@@QAEXPAPAUCStrip@@@Z 0059fb70 f i xbstrip.obj
 0002:00041530       ??_GCStrip@@QAEPAXI@Z      0059fcb0 f i xbstrip.obj
 0002:000415a0       ??1CStrip@@QAE@XZ          0059fd20 f i xbstrip.obj
 0002:00041630       ??0CVertCache@@QAE@XZ      0059fdb0 f i xbstrip.obj
 0002:00041690       ?Reset@CVertCache@@QAEXXZ  0059fe10 f i xbstrip.obj
 0002:00041710       ?CreateLongStrip@CStripper@@QAEHPAUCStripList@@PAPAG@Z 0059fe90 f   xbstrip.obj
 0002:00041b00       ?CreateCachedStrip@CStripper@@QAEHPAUCStripList@@PAPAG@Z 005a0280 f   xbstrip.obj
 0002:000423c0       ??0CStrip@@QAE@KK@Z        005a0b40 f i xbstrip.obj
 0002:00042480       ??0CStripList@@QAE@K@Z     005a0c00 f i xbstrip.obj
 0002:00042500       ??_GCStripList@@QAEPAXI@Z  005a0c80 f i xbstrip.obj
 0002:00042570       ??1CStripList@@QAE@XZ      005a0cf0 f i xbstrip.obj
 0002:00042660       ?BuildStrips@CStripper@@QAEXPAUCStripList@@HHHH@Z 005a0de0 f   xbstrip.obj
 0002:00042c70       ?AddStripToList@CStripList@@QAEXPAUCStrip@@@Z 005a13f0 f i xbstrip.obj
 0002:00042cd0       ?InitTriangleInfo@CStripper@@QAEXHH@Z 005a1450 f   xbstrip.obj
 0002:00042ef0       ??0CStripper@@QAE@HPAY02G@Z 005a1670 f   xbstrip.obj
 0002:000430d0       ??1CStripper@@QAE@XZ       005a1850 f   xbstrip.obj
 0002:00043180       ?Add@CVertCache@@QAEHHH@Z  005a1900 f   xbstrip.obj
 0002:000432f0       ?CountCacheMisses@@YAKKPAG@Z 005a1a70 f   xbstrip.obj
 0002:00043450       ?TriStripToTriList@@YAKKPBGPAG@Z 005a1bd0 f   xbstrip.obj
 0002:00043600       ?Stripify@@YAKKPAGPAKPAPAGK@Z 005a1d80 f   xbstrip.obj
 0002:00043b00       ?ComputeVertexPermutation@@YAXKPAGKPAPAG@Z 005a2280 f   xbstrip.obj
 0002:00043d60       ??$sort@PAUSortEntry@@@std@@YAXPAUSortEntry@@0@Z 005a24e0 f i xbstrip.obj
 0002:00043dc0       ??$_Sort@PAUSortEntry@@H@std@@YAXPAUSortEntry@@0H@Z 005a2540 f i xbstrip.obj
 0002:00043f50       ??$_Unguarded_partition@PAUSortEntry@@@std@@YA?AU?$pair@PAUSortEntry@@PAU1@@0@PAUSortEntry@@0@Z 005a26d0 f i xbstrip.obj
 0002:00044300       ??MSortEntry@@QAEHABU0@@Z  005a2a80 f i xbstrip.obj
 0002:00044350       ??$make_heap@PAUSortEntry@@@std@@YAXPAUSortEntry@@0@Z 005a2ad0 f i xbstrip.obj
 0002:000443e0       ??$sort_heap@PAUSortEntry@@@std@@YAXPAUSortEntry@@0@Z 005a2b60 f i xbstrip.obj
 0002:00044460       ??$_Insertion_sort@PAUSortEntry@@@std@@YAXPAUSortEntry@@0@Z 005a2be0 f i xbstrip.obj
 0002:00044590       ??0?$pair@PAUSortEntry@@PAU1@@std@@QAE@ABQAUSortEntry@@0@Z 005a2d10 f i xbstrip.obj
 0002:000445f0       ??$_Median@PAUSortEntry@@@std@@YAXPAUSortEntry@@00@Z 005a2d70 f i xbstrip.obj
 0002:00044730       ??$iter_swap@PAUSortEntry@@PAU1@@std@@YAXPAUSortEntry@@0@Z 005a2eb0 f i xbstrip.obj
 0002:00044790       ??$_Dist_type@PAUSortEntry@@@std@@YAPAHPAUSortEntry@@@Z 005a2f10 f i xbstrip.obj
 0002:000447c0       ??$_Val_type@PAUSortEntry@@@std@@YAPAUSortEntry@@PAU1@@Z 005a2f40 f i xbstrip.obj
 0002:000447f0       ??$_Make_heap@PAUSortEntry@@HU1@@std@@YAXPAUSortEntry@@0PAH0@Z 005a2f70 f i xbstrip.obj
 0002:000448b0       ??$pop_heap@PAUSortEntry@@@std@@YAXPAUSortEntry@@0@Z 005a3030 f i xbstrip.obj
 0002:00044930       ??$rotate@PAUSortEntry@@@std@@YAXPAUSortEntry@@00@Z 005a30b0 f i xbstrip.obj
 0002:000449c0       ??$_Med3@PAUSortEntry@@@std@@YAXPAUSortEntry@@00@Z 005a3140 f i xbstrip.obj
 0002:00044a80       ??$swap@USortEntry@@@std@@YAXAAUSortEntry@@0@Z 005a3200 f i xbstrip.obj
 0002:00044b20       ??$_Adjust_heap@PAUSortEntry@@HU1@@std@@YAXPAUSortEntry@@HHU1@@Z 005a32a0 f i xbstrip.obj
 0002:00044c40       ??$_Pop_heap_0@PAUSortEntry@@U1@@std@@YAXPAUSortEntry@@00@Z 005a33c0 f i xbstrip.obj
 0002:00044ce0       ??$_Iter_cat@PAUSortEntry@@@std@@YA?AUrandom_access_iterator_tag@0@ABQAUSortEntry@@@Z 005a3460 f i xbstrip.obj
 0002:00044d50       ??$_Rotate@PAUSortEntry@@@std@@YAXPAUSortEntry@@00Urandom_access_iterator_tag@0@@Z 005a34d0 f i xbstrip.obj
 0002:00044dd0       ??$_Push_heap@PAUSortEntry@@HU1@@std@@YAXPAUSortEntry@@HHU1@@Z 005a3550 f i xbstrip.obj
 0002:00044ea0       ??$_Pop_heap@PAUSortEntry@@HU1@@std@@YAXPAUSortEntry@@00U1@PAH@Z 005a3620 f i xbstrip.obj
 0002:00044f20       ??$_Rotate@PAUSortEntry@@HU1@@std@@YAXPAUSortEntry@@00PAH0@Z 005a36a0 f i xbstrip.obj
 0002:00045100       ?XBUtil_DebugPrint@@YAXPBDZZ 005a3880 f   xbutil.obj
 0002:000451d0       ?XBUtil_SetMediaPath@@YAXPBD@Z 005a3950 f   xbutil.obj
 0002:00045230       ?XBUtil_FindMediaFile@@YAJPADPBD@Z 005a39b0 f   xbutil.obj
 0002:00045380       ?XBUtil_Timer@@YAMW4TIMER_COMMAND@@@Z 005a3b00 f   xbutil.obj
 0002:00045570       ?XBUtil_DrawRect@@YAXMMMMKK@Z 005a3cf0 f   xbutil.obj
 0002:00045db0       ?DrawVerticesUP@D3DDevice@@SGJW4_D3DPRIMITIVETYPE@@IPBXI@Z 005a4530 f i xbutil.obj
 0002:00045e10       ??0D3DXVECTOR4@@QAE@XZ     005a4590 f i xbutil.obj
 0002:00045e50       ??_H@YGXPAXIHP6EPAX0@Z@Z   005a45d0 f i xbutil.obj
 0002:00045ec0       ?XBUtil_InitMaterial@@YAXAAU_D3DMATERIAL8@@MMMM@Z 005a4640 f   xbutil.obj
 0002:00045fa0       ?XBUtil_InitLight@@YAXAAU_D3DLIGHT8@@W4_D3DLIGHTTYPE@@MMM@Z 005a4720 f   xbutil.obj
 0002:00046110       ?XBUtil_CreateTexture@@YAJPAUD3DDevice@@PBDPAPAUD3DTexture@@W4_D3DFORMAT@@@Z 005a4890 f   xbutil.obj
 0002:000461f0       ?XBUtil_UnswizzleTexture2D@@YAXPAU_D3DLOCKED_RECT@@PBU_D3DSURFACE_DESC@@@Z 005a4970 f   xbutil.obj
 0002:000462f0       ?XBUtil_UnswizzleTexture3D@@YAXPAU_D3DLOCKED_BOX@@PBU_D3DVOLUME_DESC@@@Z 005a4a70 f   xbutil.obj
 0002:00046410       ?XBUtil_SwizzleTexture2D@@YAXPAU_D3DLOCKED_RECT@@PBU_D3DSURFACE_DESC@@@Z 005a4b90 f   xbutil.obj
 0002:00046510       ?XBUtil_SwizzleTexture3D@@YAXPAU_D3DLOCKED_BOX@@PBU_D3DVOLUME_DESC@@@Z 005a4c90 f   xbutil.obj
 0002:00046630       ?XBUtil_CreateVertexShader@@YAJPBDPBKPAK@Z 005a4db0 f   xbutil.obj
 0002:00046850       ?XBUtil_CreatePixelShader@@YAJPBDPAK@Z 005a4fd0 f   xbutil.obj
 0002:00046a30       ?XBUtil_GetCubeMapViewMatrix@@YA?AUD3DXMATRIX@@K@Z 005a51b0 f   xbutil.obj
 0002:00046e00       ?XBUtil_CreateNormalizationCubeMap@@YAJKPAPAUD3DCubeTexture@@@Z 005a5580 f   xbutil.obj
 0002:000472e0       ?CreateCubeTexture@D3DDevice@@SGJIIKW4_D3DFORMAT@@KPAPAUD3DCubeTexture@@@Z 005a5a60 f i xbutil.obj
 0002:00047370       ?GetCubeMapSurface@D3DCubeTexture@@QAGJW4_D3DCUBEMAP_FACES@@IPAPAUD3DSurface@@@Z 005a5af0 f i xbutil.obj
 0002:000473f0       ?LockRect@D3DSurface@@QAGJPAU_D3DLOCKED_RECT@@PBUtagRECT@@K@Z 005a5b70 f i xbutil.obj
 0002:00047450       ?UnlockRect@D3DSurface@@QAGJXZ 005a5bd0 f i xbutil.obj
 0002:000474d0       ?XBUtil_VectorToRGBA@@YAKPBUD3DXVECTOR3@@M@Z 005a5c50 f i xbutil.obj
 0002:000475a0       ?XBUtil_DumpSurface@@YAJPAUD3DSurface@@PBDH@Z 005a5d20 f   xbutil.obj
 0002:00047820       ?XBUtil_EvaluateHermite@@YA?AUD3DXVECTOR3@@ABU1@000M@Z 005a5fa0 f   xbutil.obj
 0002:00047a90       ??HD3DXVECTOR3@@QBE?AU0@ABU0@@Z 005a6210 f i xbutil.obj
 0002:00047b40       ??GD3DXVECTOR3@@QBE?AU0@ABU0@@Z 005a62c0 f i xbutil.obj
 0002:00047bf0       ??DD3DXVECTOR3@@QBE?AU0@M@Z 005a6370 f i xbutil.obj
 0002:00047c90       ??D@YA?AUD3DXVECTOR3@@MABU0@@Z 005a6410 f i xbutil.obj
 0002:00047d30       ?XBUtil_EvaluateCatmullRom@@YA?AUD3DXVECTOR3@@ABU1@000M@Z 005a64b0 f   xbutil.obj
 0002:00047fd0       ??GD3DXVECTOR3@@QBE?AU0@XZ 005a6750 f i xbutil.obj
 0002:00048080       ?XBUtil_GetSplinePoint@@YAXPBUD3DXVECTOR3@@KMPAU1@1@Z 005a6800 f   xbutil.obj
 0002:00048320       ?XBUtil_RenderSpline@@YAXPBUD3DXVECTOR3@@KKH@Z 005a6aa0 f   xbutil.obj
 0002:000486d0       ?DrawPrimitiveUP@D3DDevice@@SGJW4_D3DPRIMITIVETYPE@@IPBXI@Z 005a6e50 f i xbutil.obj
 0002:00048750       ??KD3DXVECTOR3@@QBE?AU0@M@Z 005a6ed0 f i xbutil.obj
 0002:00048810       ?D3DXVec3Cross@@YAPAUD3DXVECTOR3@@PAU1@PBU1@1@Z 005a6f90 f i xbutil.obj
 0002:00048940       ?XBUtil_DeclaratorFromFVF@@YAJKQAK@Z 005a70c0 f   xbutil.obj
 0002:00048c00       ?XBUtil_GetWide@@YAXPBDPAGK@Z 005a7380 f   xbutil.obj
 0002:00048d40       ?XBUtil_LoadFile@@YAJPBDPAPAXPAK@Z 005a74c0 f   xbutil.obj
 0002:00048ff0       ?XBVoice_HasDevice@@YAHXZ  005a7770 f   xbVoice.obj
 0002:00049081       _XboxTimeZoneNameToWstr@8  005a7801 f i xapilibd:datetime.obj
 0002:000490ac       _XboxTimeZoneDateToSystemTime@8 005a782c f i xapilibd:datetime.obj
 0002:000490f4       _XapipQueryTimeZoneInformation@8 005a7874 f   xapilibd:datetime.obj
 0002:000491c8       _XapipUseDaylightSavingTime@0 005a7948 f   xapilibd:datetime.obj
 0002:000491ff       _GetSystemTime@4           005a797f f   xapilibd:datetime.obj
 0002:0004927c       _GetTickCount@0            005a79fc f   xapilibd:datetime.obj
 0002:00049286       _FileTimeToSystemTime@8    005a7a06 f   xapilibd:datetime.obj
 0002:00049329       _SystemTimeToFileTime@8    005a7aa9 f   xapilibd:datetime.obj
 0002:000493bb       _CompareFileTime@8         005a7b3b f   xapilibd:datetime.obj
 0002:00049402       _RtlpCutoverTimeToSystemTime@16 005a7b82 f   xapilibd:datetime.obj
 0002:0004968e       _GetTimeZoneInformation@4  005a7e0e f   xapilibd:datetime.obj
 0002:00049841       _XapipGetTimeZoneBias@4    005a7fc1 f   xapilibd:datetime.obj
 0002:000498b1       _GetLocalTime@4            005a8031 f   xapilibd:datetime.obj
 0002:0004994f       _FileTimeToLocalFileTime@8 005a80cf f   xapilibd:datetime.obj
 0002:00049984       _LocalFileTimeToFileTime@8 005a8104 f   xapilibd:datetime.obj
 0002:000499b9       _OutputDebugStringA@4      005a8139 f   xapilibd:outputdebugstringa.obj
 0002:000499f7       _vXDebugPrint@16           005a8177 f   xapilibd:outputdebugstringa.obj
 0002:00049a79       _XDebugPrint               005a81f9 f   xapilibd:outputdebugstringa.obj
 0002:00049a95       _XDebugError               005a8215 f   xapilibd:outputdebugstringa.obj
 0002:00049ab0       _XDebugWarning             005a8230 f   xapilibd:outputdebugstringa.obj
 0002:00049acb       _XDebugTrace               005a824b f   xapilibd:outputdebugstringa.obj
 0002:00049ae6       _XDebugEntry               005a8266 f   xapilibd:outputdebugstringa.obj
 0002:00049b01       _XDebugExit                005a8281 f   xapilibd:outputdebugstringa.obj
 0002:00049b1c       _XLaunchNewImageA@8        005a829c f   xapilibd:launch.obj
 0002:00049b6e       _XWriteTitleInfoNoReboot@24 005a82ee f   xapilibd:launch.obj
 0002:00049c87       _XGetLaunchInfo@8          005a8407 f   xapilibd:launch.obj
 0002:00049d63       _XWriteTitleInfoAndRebootA@20 005a84e3 f   xapilibd:launch.obj
 0002:00049dde       _QueryPerformanceCounter@4 005a855e f   xapilibd:perfctr.obj
 0002:00049df3       _QueryPerformanceFrequency@4 005a8573 f   xapilibd:perfctr.obj
 0002:00049e0f       _lstrcmpW@8                005a858f f   xapilibd:lcompat.obj
 0002:00049e65       _lstrcmpiW@8               005a85e5 f   xapilibd:lcompat.obj
 0002:00049ebb       _lstrcpyW@8                005a863b f   xapilibd:lcompat.obj
 0002:00049f01       _lstrcpynW@12              005a8681 f   xapilibd:lcompat.obj
 0002:00049f88       _lstrcatW@8                005a8708 f   xapilibd:lcompat.obj
 0002:00049fce       _lstrlenW@4                005a874e f   xapilibd:lcompat.obj
 0002:0004a016       _DebugBreak@0              005a8796 f   xapilibd:kthunks.obj
 0002:0004a01b       _GetSystemTimeAsFileTime@4 005a879b f   xapilibd:kthunks.obj
 0002:0004a027       _wvsprintfW@12             005a87a7 f   xapilibd:kthunks.obj
 0002:0004a045       _wvsprintfA@12             005a87c5 f   xapilibd:kthunks.obj
 0002:0004a063       _DebugPrint                005a87e3 f   xapilibd:kthunks.obj
 0002:0004a0a9       _wsprintfW                 005a8829 f   xapilibd:kthunks.obj
 0002:0004a0c2       _wsprintfA                 005a8842 f   xapilibd:kthunks.obj
 0002:0004a0db       _XGetLanguage@0            005a885b f   xapilibd:xgetlanguage.obj
 0002:0004a11e       _GetDiskFreeSpaceExA@16    005a889e f   xapilibd:pathmisc.obj
 0002:0004a269       _GetVolumeInformationA@32  005a89e9 f   xapilibd:pathmisc.obj
 0002:0004a570       _XapiSelectCachePartition@12 005a8cf0 f   xapilibd:pathmisc.obj
 0002:0004a8e5       _XMountUtilityDrive@4      005a9065 f   xapilibd:pathmisc.obj
 0002:0004aa59       _XFormatUtilityDrive@0     005a91d9 f   xapilibd:pathmisc.obj
 0002:0004ab27       _XMountSecondaryUtilityDrive@0 005a92a7 f   xapilibd:pathmisc.obj
 0002:0004ae88       _XSwapUtilityDrives@0      005a9608 f   xapilibd:pathmisc.obj
 0002:0004b14b       _XFormatSecondaryUtilityDrive@0 005a98cb f   xapilibd:pathmisc.obj
 0002:0004b219       _XMountAlternateTitleA@12  005a9999 f   xapilibd:pathmisc.obj
 0002:0004b535       _XUnmountAlternateTitleA@4 005a9cb5 f   xapilibd:pathmisc.obj
 0002:0004b5c9       _XGetDiskClusterSizeA@4    005a9d49 f   xapilibd:pathmisc.obj
 0002:0004b6d7       _XGetDiskSectorSizeA@4     005a9e57 f   xapilibd:pathmisc.obj
 0002:0004b7d9       _XMUNameFromDriveLetter@12 005a9f59 f   xapilibd:pathmisc.obj
 0002:0004b90d       _CloseHandle@4             005aa08d f   xapilibd:handle.obj
 0002:0004b936       _DuplicateHandle@28        005aa0b6 f   xapilibd:handle.obj
 0002:0004b966       _ReadFile@20               005aa0e6 f   xapilibd:filehops.obj
 0002:0004ba8e       _WriteFile@20              005aa20e f   xapilibd:filehops.obj
 0002:0004bb99       _SetEndOfFile@4            005aa319 f   xapilibd:filehops.obj
 0002:0004bc3e       _SetFilePointer@16         005aa3be f   xapilibd:filehops.obj
 0002:0004bd8a       _SetFilePointerEx@20       005aa50a f   xapilibd:filehops.obj
 0002:0004be95       _GetFileInformationByHandle@8 005aa615 f   xapilibd:filehops.obj
 0002:0004bfa4       _GetFileTime@16            005aa724 f   xapilibd:filehops.obj
 0002:0004c023       _SetFileTime@16            005aa7a3 f   xapilibd:filehops.obj
 0002:0004c0b1       _FlushFileBuffers@4        005aa831 f   xapilibd:filehops.obj
 0002:0004c0e1       _GetFileSizeEx@8           005aa861 f   xapilibd:filehops.obj
 0002:0004c12e       _ReadFileEx@20             005aa8ae f   xapilibd:filehops.obj
 0002:0004c193       _WriteFileEx@20            005aa913 f   xapilibd:filehops.obj
 0002:0004c1f8       _DeviceIoControl@32        005aa978 f   xapilibd:filehops.obj
 0002:0004c335       _ReadFileScatter@20        005aaab5 f   xapilibd:filehops.obj
 0002:0004c45d       _WriteFileGather@20        005aabdd f   xapilibd:filehops.obj
 0002:0004c568       _XGetFilePhysicalSortKey@4 005aace8 f   xapilibd:filehops.obj
 0002:0004c638       _GetFileSize@8             005aadb8 f   xapilibd:filehops.obj
 0002:0004c681       _CreateFileA@28            005aae01 f   xapilibd:fileopcr.obj
 0002:0004c886       _CopyFileExA@24            005ab006 f   xapilibd:fileopcr.obj
 0002:0004cc3c       _CopyFileA@12              005ab3bc f   xapilibd:fileopcr.obj
 0002:0004cc64       _CreateEventA@16           005ab3e4 f   xapilibd:synch.obj
 0002:0004ccdd       _OpenEventA@12             005ab45d f   xapilibd:synch.obj
 0002:0004cd50       _SetEvent@4                005ab4d0 f   xapilibd:synch.obj
 0002:0004cd7b       _ResetEvent@4              005ab4fb f   xapilibd:synch.obj
 0002:0004cda4       _PulseEvent@4              005ab524 f   xapilibd:synch.obj
 0002:0004cdcf       _CreateSemaphoreA@16       005ab54f f   xapilibd:synch.obj
 0002:0004ce40       _OpenSemaphoreA@12         005ab5c0 f   xapilibd:synch.obj
 0002:0004ceb3       _ReleaseSemaphore@12       005ab633 f   xapilibd:synch.obj
 0002:0004cee3       _CreateMutexA@12           005ab663 f   xapilibd:synch.obj
 0002:0004cf51       _OpenMutexA@12             005ab6d1 f   xapilibd:synch.obj
 0002:0004cfc4       _ReleaseMutex@4            005ab744 f   xapilibd:synch.obj
 0002:0004cfef       _WaitForSingleObjectEx@12  005ab76f f   xapilibd:synch.obj
 0002:0004d044       _SignalObjectAndWait@16    005ab7c4 f   xapilibd:synch.obj
 0002:0004d09c       _WaitForMultipleObjectsEx@20 005ab81c f   xapilibd:synch.obj
 0002:0004d13c       _SleepEx@8                 005ab8bc f   xapilibd:synch.obj
 0002:0004d1a2       _CreateWaitableTimerA@12   005ab922 f   xapilibd:synch.obj
 0002:0004d217       _OpenWaitableTimerA@12     005ab997 f   xapilibd:synch.obj
 0002:0004d28a       _SetWaitableTimer@24       005aba0a f   xapilibd:synch.obj
 0002:0004d2e1       _CancelWaitableTimer@4     005aba61 f   xapilibd:synch.obj
 0002:0004d30c       _WaitForSingleObject@8     005aba8c f   xapilibd:synch.obj
 0002:0004d325       _WaitForMultipleObjects@16 005abaa5 f   xapilibd:synch.obj
 0002:0004d345       _Sleep@4                   005abac5 f   xapilibd:synch.obj
 0002:0004d370       _MulDiv@12                 005abaf0 f   xapilibd:muldiv.obj
 0002:0004d4d8       _XapiCallThreadNotifyRoutines@4 005abc58 f   xapilibd:thread.obj
 0002:0004d521       _SetThreadPriority@8       005abca1 f   xapilibd:thread.obj
 0002:0004d587       _GetThreadPriority@4       005abd07 f   xapilibd:thread.obj
 0002:0004d5f0       _SetThreadPriorityBoost@8  005abd70 f   xapilibd:thread.obj
 0002:0004d647       _GetThreadPriorityBoost@8  005abdc7 f   xapilibd:thread.obj
 0002:0004d698       _SuspendThread@4           005abe18 f   xapilibd:thread.obj
 0002:0004d6c7       _ResumeThread@4            005abe47 f   xapilibd:thread.obj
 0002:0004d6f6       _RaiseException@16         005abe76 f   xapilibd:thread.obj
 0002:0004d761       _XapiDispatchAPC@12        005abee1 f   xapilibd:thread.obj
 0002:0004d771       _QueueUserAPC@12           005abef1 f   xapilibd:thread.obj
 0002:0004d7a0       _SwitchToThread@0          005abf20 f   xapilibd:thread.obj
 0002:0004d7be       _ExitThread@4              005abf3e f   xapilibd:thread.obj
 0002:0004d7e2       _GetExitCodeThread@8       005abf62 f   xapilibd:thread.obj
 0002:0004d84f       _SetUnhandledExceptionFilter@4 005abfcf f   xapilibd:thread.obj
 0002:0004d869       _GetThreadTimes@20         005abfe9 f   xapilibd:thread.obj
 0002:0004d914       _XRegisterThreadNotifyRoutine@8 005ac094 f   xapilibd:thread.obj
 0002:0004d970       _XSetProcessQuantumLength@4 005ac0f0 f   xapilibd:thread.obj
 0002:0004d9b2       _XGetProcessQuantumLength@0 005ac132 f   xapilibd:thread.obj
 0002:0004da13       _UnhandledExceptionFilter@4 005ac193 f   xapilibd:thread.obj
 0002:0004da9b       _XapiThreadStartup@8       005ac21b f   xapilibd:thread.obj
 0002:0004dc23       _CreateThread@24           005ac3a3 f   xapilibd:thread.obj
 0002:0004dcac       _GetCurrentThreadId@0      005ac42c f   xapilibd:thread.obj
 0002:0004dcbc       _lstrcmpA@8                005ac43c f   xapilibd:lcompata.obj
 0002:0004dd39       _lstrcmpiA@8               005ac4b9 f   xapilibd:lcompata.obj
 0002:0004dd8f       _lstrcpyA@8                005ac50f f   xapilibd:lcompata.obj
 0002:0004dddc       _lstrcpynA@12              005ac55c f   xapilibd:lcompata.obj
 0002:0004de5a       _lstrcatA@8                005ac5da f   xapilibd:lcompata.obj
 0002:0004deca       _lstrlenA@4                005ac64a f   xapilibd:lcompata.obj
 0002:0004df17       _HexDigitToChar@4          005ac697 f i xapilibd:xsaveapi.obj
 0002:0004df33       _XapiSaveGameHashEncode@12 005ac6b3 f   xapilibd:xsaveapi.obj
 0002:0004e039       _XapiValidateAndSkipUnicodeSignature@8 005ac7b9 f   xapilibd:xsaveapi.obj
 0002:0004e0d7       _XapiFindValueInMetaFile@16 005ac857 f   xapilibd:xsaveapi.obj
 0002:0004e330       _XapiFillInSaveGameData@12 005acab0 f   xapilibd:xsaveapi.obj
 0002:0004e516       _XapiVerifyGameName@8      005acc96 f   xapilibd:xsaveapi.obj
 0002:0004e5b6       _XapiTouchDirectoryTimestamp@4 005acd36 f   xapilibd:xsaveapi.obj
 0002:0004e629       _XCreateSaveGame@24        005acda9 f   xapilibd:xsaveapi.obj
 0002:0004ea40       _XDeleteSaveGame@8         005ad1c0 f   xapilibd:xsaveapi.obj
 0002:0004ebf5       _XFindFirstSaveGame@8      005ad375 f   xapilibd:xsaveapi.obj
 0002:0004edbf       _XFindNextSaveGame@8       005ad53f f   xapilibd:xsaveapi.obj
 0002:0004ee2f       _XFindClose@4              005ad5af f   xapilibd:xsaveapi.obj
 0002:0004eeed       _SetFileAttributesA@8      005ad66d f   xapilibd:filemisc.obj
 0002:0004efbc       _GetFileAttributesA@4      005ad73c f   xapilibd:filemisc.obj
 0002:0004f019       _GetFileAttributesExA@12   005ad799 f   xapilibd:filemisc.obj
 0002:0004f0df       _MoveFileA@8               005ad85f f   xapilibd:filemisc.obj
 0002:0004f19a       _DeleteFileA@4             005ad91a f   xapilibd:filemisc.obj
 0002:0004f24b       _XSetFileCacheSize@4       005ad9cb f   xapilibd:filemisc.obj
 0002:0004f284       _XGetFileCacheSize@0       005ada04 f   xapilibd:filemisc.obj
 0002:0004f290       _XapiGetDirectoryDisplayBlocks@12 005ada10 f   xapilibd:filemisc.obj
 0002:0004f412       _XGetDisplayBlocks@4       005adb92 f   xapilibd:filemisc.obj
 0002:0004f520       _MoveFileWithProgressA@20  005adca0 f   xapilibd:filemisc.obj
 0002:0004f64c       _MoveFileExA@12            005addcc f   xapilibd:filemisc.obj
 0002:0004f66b       _XapiDirectoryInformationToFindData@8 005addeb f   xapilibd:filefind.obj
 0002:0004f6f4       _FindFirstFileA@8          005ade74 f   xapilibd:filefind.obj
 0002:0004f844       _FindNextFileA@8           005adfc4 f   xapilibd:filefind.obj
 0002:0004f8e1       _GetLastError@0            005ae061 f   xapilibd:error.obj
 0002:0004f92f       _SetLastError@4            005ae0af f   xapilibd:error.obj
 0002:0004f989       _XapiSetLastNTError@4      005ae109 f   xapilibd:error.obj
 0002:0004f9ac       _CreateIoCompletionPort@16 005ae12c f   xapilibd:error.obj
 0002:0004fa5b       _PostQueuedCompletionStatus@16 005ae1db f   xapilibd:error.obj
 0002:0004fa94       _GetQueuedCompletionStatus@20 005ae214 f   xapilibd:error.obj
 0002:0004fb22       _GetOverlappedResult@16    005ae2a2 f   xapilibd:error.obj
 0002:0004fba0       _UTF8ToUnicode@16          005ae320 f   xapilibd:widechar.obj
 0002:0004fd4b       _UnicodeToUTF8@16          005ae4cb f   xapilibd:widechar.obj
 0002:0004fe31       _MultiByteToWideChar@24    005ae5b1 f   xapilibd:widechar.obj
 0002:0004ff33       _WideCharToMultiByte@32    005ae6b3 f   xapilibd:widechar.obj
 0002:00050095       _mainXapiStartup@4         005ae815 f   xapilibd:xapi0.obj
 0002:00050135       _mainCRTStartup            005ae8b5 f   xapilibd:xapi0.obj
 0002:000501c3       _XQueryValue@20            005ae943 f   xapilibd:xqueryvalue.obj
 0002:000501ed       _BuildUpdateFilePath@12    005ae96d f   xapilibd:bootutil.obj
 0002:00050249       _XapipUpdateMountDashPartition@0 005ae9c9 f   xapilibd:bootutil.obj
 0002:000502e7       _XoUpdateLoadXBEInfo@8     005aea67 f   xapilibd:bootutil.obj
 0002:000503e6       _XoRebootToUpdaterWhilePreservingDDrive@12 005aeb66 f   xapilibd:bootutil.obj
 0002:000504dc       _XoUpdateGetSavedDataFromLaunchPage@12 005aec5c f   xapilibd:bootutil.obj
 0002:000505ab       _XapipUpdateGetCurrentDDriveMapping@8 005aed2b f   xapilibd:bootutil.obj
 0002:000506a1       _XapipUpdateSaveDDriveMappingToLaunchPage@8 005aee21 f   xapilibd:bootutil.obj
 0002:000507a5       _XapipUpdateDetectAndVerify@16 005aef25 f   xapilibd:bootutil.obj
 0002:00050a41       _XapipUpdateDashIfNecessary@4 005af1c1 f   xapilibd:bootutil.obj
 0002:00050af9       _XapipLaunchNewImageInternal@16 005af279 f   xapilibd:bootutil.obj
 0002:00050d3d       _XapipUpdateRebootIfNecessary@0 005af4bd f   xapilibd:bootutil.obj
 0002:00051005       _xCompareStringW@20        005af785 f   xapilibd:compstr.obj
 0002:00051256       _XapiValidateDiskPartitionEx@8 005af9d6 f   xapilibd:xapiinit.obj
 0002:000512ec       _XapiCopySectionToFile@16  005afa6c f   xapilibd:xapiinit.obj
 0002:0005146e       _XapiMapLetterToDirectory@24 005afbee f   xapilibd:xapiinit.obj
 0002:000519a2       _XapiSetupPerTitleDriveLetters@8 005b0122 f   xapilibd:xapiinit.obj
 0002:00051a0c       _XapiBootToDash@12         005b018c f   xapilibd:xapiinit.obj
 0002:00051a8a       _XapiValidateDiskPartition@4 005b020a f   xapilibd:xapiinit.obj
 0002:00051aa3       _XapiInitProcess@0         005b0223 f   xapilibd:xapiinit.obj
 0002:00051cdb       _XMemAlloc@8               005b045b f   xapilibd:xmem.obj
 0002:00051e09       _XMemFree@8                005b0589 f   xapilibd:xmem.obj
 0002:00051f9a       _XMemSize@8                005b071a f   xapilibd:xmem.obj
 0002:00051fbd       _XapiFormatFATVolumeEx@8   005b073d f   xapilibd:format.obj
 0002:000523aa       _XapiFormatFATVolume@4     005b0b2a f   xapilibd:format.obj
 0002:000523c3       _XapiFormatObjectAttributes@12 005b0b43 f   xapilibd:support.obj
 0002:000523f6       _XapiFormatTimeOut@8       005b0b76 f   xapilibd:support.obj
 0002:00052466       _RootHubPortToPortNumber@4 005b0be6 f i xapilibd:roothub.obj
 0002:00052476       _PortNumberToRootHubPort@4 005b0bf6 f i xapilibd:roothub.obj
 0002:000524ca       _xCompareStringA@20        005b0c4a f   xapilibd:compstra.obj
 0002:000526b5       _CreateDirectoryA@8        005b0e35 f   xapilibd:dir.obj
 0002:0005273c       _RemoveDirectoryA@4        005b0ebc f   xapilibd:dir.obj
 0002:000527ed       _XapiNukeDirectoryFromHandle@8 005b0f6d f   xapilibd:xclndrv.obj
 0002:000529c9       _XapiNukeDirectory@8       005b1149 f   xapilibd:xclndrv.obj
 0002:00052ae3       __cinit@0                  005b1263 f   xapilibd:xapi0dat.obj
 0002:00052b36       __rtinit@0                 005b12b6 f   xapilibd:xapi0dat.obj
 0002:00052b51       _XapiRestrictCodeSelectorLimit@0 005b12d1 f   xapilibd:krnlptch.obj
 0002:00052bce       _XapiApplyKernelPatches@0  005b134e f   xapilibd:krnlptch.obj
 0002:00052cc4       _XapiComputeContentMetadataFileName@8 005b1444 f   xapilibd:contsig.obj
 0002:00052d34       _XComputeContentSignatureKey@8 005b14b4 f   xapilibd:contsig.obj
 0002:00052d5d       _XapiComputeContentHeaderSignature@16 005b14dd f   xapilibd:contsig.obj
 0002:00052e84       _XapiLoadContentMetadataHeader@16 005b1604 f   xapilibd:contsig.obj
 0002:00052f9d       _XapiVerifyAndLoadOptionalSectionData@12 005b171d f   xapilibd:contsig.obj
 0002:0005309c       _XapipGetAlternateTitleID@0 005b181c f   xapilibd:contsig.obj
 0002:000531a0       _XGetContentInstallLocationFromIDs@16 005b1920 f   xapilibd:contsig.obj
 0002:0005321d       _XGetContentInstallLocation@12 005b199d f   xapilibd:contsig.obj
 0002:0005329f       _XInstallContentSignaturesWithFileName@16 005b1a1f f   xapilibd:contsig.obj
 0002:00053551       _XInstallContentSignaturesEx@16 005b1cd1 f   xapilibd:contsig.obj
 0002:0005358e       _XInstallContentSignatures@12 005b1d0e f   xapilibd:contsig.obj
 0002:000535c8       _XCreateContentSimple@24   005b1d48 f   xapilibd:contsig.obj
 0002:0005380e       _XRemoveContent@4          005b1f8e f   xapilibd:contsig.obj
 0002:0005387a       _XLoadContentSignaturesWithFileName@8 005b1ffa f   xapilibd:contsig.obj
 0002:00053a41       _XLoadContentSignaturesEx@8 005b21c1 f   xapilibd:contsig.obj
 0002:00053a76       _XLocateSignatureByIndex@16 005b21f6 f   xapilibd:contsig.obj
 0002:00053b2f       _XLocateSignatureByNameEx@24 005b22af f   xapilibd:contsig.obj
 0002:00053c98       _XLocateSignatureByName@24 005b2418 f   xapilibd:contsig.obj
 0002:00053cbe       _XLocateNextSignature@28   005b243e f   xapilibd:contsig.obj
 0002:00053de7       _XCalculateContentSignature@16 005b2567 f   xapilibd:contsig.obj
 0002:00053e71       _XLocateLiveSignature@12   005b25f1 f   xapilibd:contsig.obj
 0002:00053eee       _XCloseContentSignatures@4 005b266e f   xapilibd:contsig.obj
 0002:00053f2f       _XAutoPowerDownResetTimer@0 005b26af f   xapilibd:powerdwn.obj
 0002:00053f53       _XAutoPowerDownTimeRemaining@0 005b26d3 f   xapilibd:powerdwn.obj
 0002:00053fc3       _XapiAutoPowerDownTimeout@16 005b2743 f   xapilibd:powerdwn.obj
 0002:00053fd9       _XapiInitAutoPowerDown@0   005b2759 f   xapilibd:powerdwn.obj
 0002:00054083       _XGetSectionHandleA@4      005b2803 f   xapilibd:xemodule.obj
 0002:00054120       _XLoadSectionByHandle@4    005b28a0 f   xapilibd:xemodule.obj
 0002:00054180       _XFreeSectionByHandle@4    005b2900 f   xapilibd:xemodule.obj
 0002:000541df       _XLoadSectionA@4           005b295f f   xapilibd:xemodule.obj
 0002:00054221       _XFreeSectionA@4           005b29a1 f   xapilibd:xemodule.obj
 0002:00054263       _XGetSectionSize@4         005b29e3 f   xapilibd:xemodule.obj
 0002:000542a9       _XGetParentalControlSetting@0 005b2a29 f   xapilibd:xgetparentalcontrolsetting.obj
 0002:000542d7       _HeapCreate@12             005b2a57 f   xapilibd:xapiheap.obj
 0002:00054339       _HeapDestroy@4             005b2ab9 f   xapilibd:xapiheap.obj
 0002:0005435f       _HeapFree@12               005b2adf f   xapilibd:xapiheap.obj
 0002:0005437d       _HeapValidate@12           005b2afd f   xapilibd:xapiheap.obj
 0002:0005439b       _GetProcessHeap@0          005b2b1b f   xapilibd:xapiheap.obj
 0002:000543a1       _HeapCompact@8             005b2b21 f   xapilibd:xapiheap.obj
 0002:000543ac       _HeapLock@4                005b2b2c f   xapilibd:xapiheap.obj
 0002:000543c2       _HeapUnlock@4              005b2b42 f   xapilibd:xapiheap.obj
 0002:000543d8       _HeapWalk@8                005b2b58 f   xapilibd:xapiheap.obj
 0002:000544ec       _LocalAlloc@8              005b2c6c f   xapilibd:xapiheap.obj
 0002:0005452f       _LocalReAlloc@12           005b2caf f   xapilibd:xapiheap.obj
 0002:00054587       _LocalSize@4               005b2d07 f   xapilibd:xapiheap.obj
 0002:000545a3       _LocalFree@4               005b2d23 f   xapilibd:xapiheap.obj
 0002:000545cb       _LocalLock@4               005b2d4b f   xapilibd:xapiheap.obj
 0002:000545d7       _LocalHandle@4             005b2d57 f   xapilibd:xapiheap.obj
 0002:000545e3       _LocalUnlock@4             005b2d63 f   xapilibd:xapiheap.obj
 0002:000545e9       _GlobalAlloc@8             005b2d69 f   xapilibd:xapiheap.obj
 0002:0005462c       _GlobalReAlloc@12          005b2dac f   xapilibd:xapiheap.obj
 0002:00054684       _XSetAttributesOnHeapAlloc@8 005b2e04 f   xapilibd:xapiheap.obj
 0002:00054698       _XGetAttributesOnHeapAlloc@4 005b2e18 f   xapilibd:xapiheap.obj
 0002:00054766       _RtlZeroHeap@8             005b2ee6 f   xapilibd:heap.obj
 0002:0005491a       _RtlpCreateUnCommittedRange@4 005b309a f   xapilibd:heap.obj
 0002:00054aca       _RtlpDestroyUnCommittedRange@8 005b324a f   xapilibd:heap.obj
 0002:00054b3f       _RtlpInsertUnCommittedPages@12 005b32bf f   xapilibd:heap.obj
 0002:00054c58       _RtlpFindAndCommitPages@16 005b33d8 f   xapilibd:heap.obj
 0002:00054ebb       _RtlpDestroyHeapSegment@4  005b363b f   xapilibd:heap.obj
 0002:00054f44       _RtlpCoalesceFreeBlocks@16 005b36c4 f   xapilibd:heap.obj
 0002:00055567       _RtlpInsertFreeBlock@12    005b3ce7 f   xapilibd:heap.obj
 0002:00055779       _RtlpGetExtraStuffPointer@4 005b3ef9 f   xapilibd:heap.obj
 0002:0005579f       _RtlpGetSizeOfBigBlock@4   005b3f1f f   xapilibd:heap.obj
 0002:000557ff       _RtlpCheckBusyBlockTail@4  005b3f7f f   xapilibd:heap.obj
 0002:000558cc       _RtlpCheckHeapSignature@8  005b404c f   xapilibd:heap.obj
 0002:00055935       _RtlpValidateHeapHeaders@8 005b40b5 f   xapilibd:heap.obj
 0002:00055a46       _RtlpValidateHeapSegment@32 005b41c6 f   xapilibd:heap.obj
 0002:00055d26       _RtlpValidateHeapEntry@12  005b44a6 f   xapilibd:heap.obj
 0002:00055e17       _RtlpValidateHeap@8        005b4597 f   xapilibd:heap.obj
 0002:00056257       _RtlDebugWalkHeap@8        005b49d7 f   xapilibd:heap.obj
 0002:000562b2       _RtlWalkHeap@8             005b4a32 f   xapilibd:heap.obj
 0002:000565a8       _RtlLockHeap@4             005b4d28 f   xapilibd:heap.obj
 0002:0005662c       _RtlUnlockHeap@4           005b4dac f   xapilibd:heap.obj
 0002:000566b0       _RtlValidateHeap@12        005b4e30 f   xapilibd:heap.obj
 0002:00056783       _RtlDebugCompactHeap@8     005b4f03 f   xapilibd:heap.obj
 0002:0005685c       _RtlDestroyHeap@4          005b4fdc f   xapilibd:heap.obj
 0002:0005696a       _RtlpGrowBlockInPlace@20   005b50ea f   xapilibd:heap.obj
 0002:00057203       _RtlSizeHeap@12            005b5983 f   xapilibd:heap.obj
 0002:00057240       _RtlpInitializeHeapSegment@28 005b59c0 f   xapilibd:heap.obj
 0002:000573ef       _RtlpExtendHeap@8          005b5b6f f   xapilibd:heap.obj
 0002:00057621       _RtlpDeCommitFreeBlock@12  005b5da1 f   xapilibd:heap.obj
 0002:00057b13       _RtlpCoalesceHeap@4        005b6293 f   xapilibd:heap.obj
 0002:00057c3d       _RtlCompactHeap@8          005b63bd f   xapilibd:heap.obj
 0002:00057d1f       _RtlCreateHeap@24          005b649f f   xapilibd:heap.obj
 0002:000582ec       _RtlAllocateHeapSlowly@12  005b6a6c f   xapilibd:heap.obj
 0002:00059201       _RtlFreeHeapSlowly@12      005b7981 f   xapilibd:heap.obj
 0002:00059553       _RtlAllocateHeap@12        005b7cd3 f   xapilibd:heap.obj
 0002:0005a3cc       _RtlFreeHeap@12            005b8b4c f   xapilibd:heap.obj
 0002:0005a8c9       _RtlReAllocateHeap@16      005b9049 f   xapilibd:heap.obj
 0002:0005b50f       _XapiShutdownChannelStartNextPacket@0 005b9c8f f   xapilibd:xapiterm.obj
 0002:0005b556       _XapiShutdownChannelStartPacket@8 005b9cd6 f   xapilibd:xapiterm.obj
 0002:0005b56b       _XapiShutdownNotification@4 005b9ceb f   xapilibd:xapiterm.obj
 0002:0005b5d6       _XPhysicalAlloc@16         005b9d56 f   xapilibd:physical.obj
 0002:0005b699       _XPhysicalAllocEx@20       005b9e19 f   xapilibd:physical.obj
 0002:0005b727       _XPhysicalSize@4           005b9ea7 f   xapilibd:physical.obj
 0002:0005b754       _XPhysicalProtect@12       005b9ed4 f   xapilibd:physical.obj
 0002:0005b7ac       _XPhysicalFree@4           005b9f2c f   xapilibd:physical.obj
 0002:0005b7d9       _XQueryMemoryProtect@4     005b9f59 f   xapilibd:physical.obj
 0002:0005b7f0       @RtlFindFirstSetRightMember@4 005b9f70 f   xapilibd:bitmapa.obj
 0002:0005b87c       _XapiChangeCodeSelectorLimit@8 005b9ffc f   xapilibd:xapidlla.obj
 0002:0005b8aa       _XShaHmacInitialize@12     005ba02a f   xapilibd:xcalcsig.obj
 0002:0005b96b       _XShaHmacUpdate@12         005ba0eb f   xapilibd:xcalcsig.obj
 0002:0005b9c3       _XShaHmacComputeFinal@16   005ba143 f   xapilibd:xcalcsig.obj
 0002:0005ba86       _XapiConvertSignatureToNonRoamable@12 005ba206 f   xapilibd:xcalcsig.obj
 0002:0005bb41       _XapipCalculateSaveGameSignatureBegin@8 005ba2c1 f   xapilibd:xcalcsig.obj
 0002:0005bc29       _XapipCalculateSaveGameSignatureUpdate@12 005ba3a9 f   xapilibd:xcalcsig.obj
 0002:0005bc6a       _XapipCalculateSaveGameSignatureEnd@8 005ba3ea f   xapilibd:xcalcsig.obj
 0002:0005bd0d       _XapipCalculateContentSignatureBegin@0 005ba48d f   xapilibd:xcalcsig.obj
 0002:0005bd50       _XapipCalculateContentSignatureUpdate@12 005ba4d0 f   xapilibd:xcalcsig.obj
 0002:0005bd71       _XapipCalculateContentSignatureEnd@8 005ba4f1 f   xapilibd:xcalcsig.obj
 0002:0005bda6       _XCalculateSignatureGetSize@4 005ba526 f   xapilibd:xcalcsig.obj
 0002:0005bde4       _XCalculateSignatureBeginEx@8 005ba564 f   xapilibd:xcalcsig.obj
 0002:0005be6b       _XCalculateSignatureBegin@4 005ba5eb f   xapilibd:xcalcsig.obj
 0002:0005be87       _XCalculateSignatureUpdate@12 005ba607 f   xapilibd:xcalcsig.obj
 0002:0005bf55       _XCalculateSignatureEnd@8  005ba6d5 f   xapilibd:xcalcsig.obj
 0002:0005bff8       _XGWriteSurfaceOrTextureToXPR@12 005ba778 f   xgraphicsd:writexpr.obj
 0002:0005c352       ??_ECDirectSound@DirectSound@@W7AEPAXI@Z 005baad2 f i dsoundd:dsapi.obj
 0002:0005c35c       ??_ECDirectSoundBuffer@DirectSound@@W7AEPAXI@Z 005baadc f i dsoundd:dsapi.obj
 0002:0005c366       ??_ECDirectSoundStream@DirectSound@@W3AEPAXI@Z 005baae6 f i dsoundd:dsapi.obj
 0002:0005c370       ??_ECDirectSoundStream@DirectSound@@WM@AEPAXI@Z 005baaf0 f i dsoundd:dsapi.obj
 0002:0005c37a       ??_ECMcpxAPU@DirectSound@@W7AEPAXI@Z 005baafa f i dsoundd:mcpapu.obj
 0002:0005c384       ??_ECWaveFileMediaObject@DirectSound@@W3AEPAXI@Z 005bab04 f i dsoundd:wavexmo.obj
 0002:0005c38e       ??_ECFileMediaObject@DirectSound@@W3AEPAXI@Z 005bab0e f i dsoundd:wavexmo.obj
 0002:0005c398       ??_ECAc97MediaObject@DirectSound@@W3AEPAXI@Z 005bab18 f i dsoundd:ac97xmo.obj
 0002:0005c3a2       ??_ECAc97MediaObject@DirectSound@@WM@AEPAXI@Z 005bab22 f i dsoundd:ac97xmo.obj
 0002:0005c3e0       _XNetGetEthernetLinkStatus@0 005bab60 f   xonlined:xnet.obj
 0002:0005c43c       _XcspCleanTable@8          005babbc f   xonlined:xcontent.obj
 0002:0005c493       _XcspCleanFile@4           005bac13 f   xonlined:xcontent.obj
 0002:0005c4bc       _XcspCleanSignature@4      005bac3c f   xonlined:xcontent.obj
 0002:0005c4d3       _XcspFreeEverything@0      005bac53 f   xonlined:xcontent.obj
 0002:0005c591       _XcspGrowTable@8           005bad11 f   xonlined:xcontent.obj
 0002:0005c632       _XcspAllocateSignature@12  005badb2 f   xonlined:xcontent.obj
 0002:0005c74c       _XcspDeleteSignature@4     005baecc f   xonlined:xcontent.obj
 0002:0005c7c7       _XcspCompareFiles          005baf47 f   xonlined:xcontent.obj
 0002:0005c83f       _XcspLookupFile@8          005bafbf f   xonlined:xcontent.obj
 0002:0005c92a       _XcsRegisterSignatureWithData@36 005bb0aa f   xonlined:xcontent.obj
 0002:0005cc34       _XRegisterSignature@28     005bb3b4 f   xonlined:xcontent.obj
 0002:0005cc6c       _XcsUseFileContents@8      005bb3ec f   xonlined:xcontent.obj
 0002:0005cc88       _XcsCreateSignatureFile@8  005bb408 f   xonlined:xcontent.obj
 0002:0005cce4       _XcsSetSignatureFileInformationEx@28 005bb464 f   xonlined:xcontent.obj
 0002:0005cd62       _XcsSetSignatureFileInformation@24 005bb4e2 f   xonlined:xcontent.obj
 0002:0005cd8a       _XcspFixSignatureIndices@0 005bb50a f   xonlined:xcontent.obj
 0002:0005ce7c       _XcspFillFileTableEntry@12 005bb5fc f   xonlined:xcontent.obj
 0002:0005cf5d       _XcspBuildFileTree@12      005bb6dd f   xonlined:xcontent.obj
 0002:0005cfc3       _XcspComputeSectionDigest@8 005bb743 f   xonlined:xcontent.obj
 0002:0005d004       _XcspWriteFileSection@8    005bb784 f   xonlined:xcontent.obj
 0002:0005d180       _XcsWriteSignatureFile@0   005bb900 f   xonlined:xcontent.obj
 0002:0005d51e       _XcsAbandonSignatureFile@0 005bbc9e f   xonlined:xcontent.obj
 0002:0005d524       _RtlTimeToTimeFields@8     005bbca4 f   xboxkrnl:xboxkrnl.exe
 0002:0005d52a       _KeQuerySystemTime@4       005bbcaa f   xboxkrnl:xboxkrnl.exe
 0002:0005d530       _RtlRip@12                 005bbcb0 f   xboxkrnl:xboxkrnl.exe
 0002:0005d536       _RtlTimeFieldsToTime@8     005bbcb6 f   xboxkrnl:xboxkrnl.exe
 0002:0005d53c       @KfLowerIrql@4             005bbcbc f   xboxkrnl:xboxkrnl.exe
 0002:0005d542       _KeRaiseIrqlToDpcLevel@0   005bbcc2 f   xboxkrnl:xboxkrnl.exe
 0002:0005d548       _DbgPrint                  005bbcc8 f   xboxkrnl:xboxkrnl.exe
 0002:0005d54e       _MmPersistContiguousMemory@12 005bbcce f   xboxkrnl:xboxkrnl.exe
 0002:0005d554       _MmAllocateContiguousMemory@4 005bbcd4 f   xboxkrnl:xboxkrnl.exe
 0002:0005d55a       _MmFreeContiguousMemory@4  005bbcda f   xboxkrnl:xboxkrnl.exe
 0002:0005d560       _RtlNtStatusToDosError@4   005bbce0 f   xboxkrnl:xboxkrnl.exe
 0002:0005d566       _HalReturnToFirmware@4     005bbce6 f   xboxkrnl:xboxkrnl.exe
 0002:0005d56c       _DbgBreakPoint@0           005bbcec f   xboxkrnl:xboxkrnl.exe
 0002:0005d572       _ExQueryNonVolatileSetting@20 005bbcf2 f   xboxkrnl:xboxkrnl.exe
 0002:0005d578       @KfRaiseIrql@4             005bbcf8 f   xboxkrnl:xboxkrnl.exe
 0002:0005d57e       _IoDismountVolumeByName@4  005bbcfe f   xboxkrnl:xboxkrnl.exe
 0002:0005d584       _RtlAssert@16              005bbd04 f   xboxkrnl:xboxkrnl.exe
 0002:0005d58a       _RtlInitAnsiString@8       005bbd0a f   xboxkrnl:xboxkrnl.exe
 0002:0005d590       _RtlLeaveCriticalSection@4 005bbd10 f   xboxkrnl:xboxkrnl.exe
 0002:0005d596       _RtlEnterCriticalSection@4 005bbd16 f   xboxkrnl:xboxkrnl.exe
 0002:0005d59c       _IoCreateSymbolicLink@8    005bbd1c f   xboxkrnl:xboxkrnl.exe
 0002:0005d5a2       _NtClose@4                 005bbd22 f   xboxkrnl:xboxkrnl.exe
 0002:0005d5a8       _NtCreateFile@36           005bbd28 f   xboxkrnl:xboxkrnl.exe
 0002:0005d5ae       _IoDeleteSymbolicLink@4    005bbd2e f   xboxkrnl:xboxkrnl.exe
 0002:0005d5b4       _NtFsControlFile@40        005bbd34 f   xboxkrnl:xboxkrnl.exe
 0002:0005d5ba       _IoSynchronousFsdRequest@20 005bbd3a f   xboxkrnl:xboxkrnl.exe
 0002:0005d5c0       _IoSynchronousDeviceIoControlRequest@32 005bbd40 f   xboxkrnl:xboxkrnl.exe
 0002:0005d5c6       _NtQueryVolumeInformationFile@20 005bbd46 f   xboxkrnl:xboxkrnl.exe
 0002:0005d5cc       _NtOpenFile@24             005bbd4c f   xboxkrnl:xboxkrnl.exe
 0002:0005d5d2       _NtWriteFile@32            005bbd52 f   xboxkrnl:xboxkrnl.exe
 0002:0005d5d8       _NtReadFile@32             005bbd58 f   xboxkrnl:xboxkrnl.exe
 0002:0005d5de       _NtQuerySymbolicLinkObject@12 005bbd5e f   xboxkrnl:xboxkrnl.exe
 0002:0005d5e4       _NtOpenSymbolicLinkObject@8 005bbd64 f   xboxkrnl:xboxkrnl.exe
 0002:0005d5ea       _IoCreateDevice@24         005bbd6a f   xboxkrnl:xboxkrnl.exe
 0002:0005d5f0       _KeSetEvent@12             005bbd70 f   xboxkrnl:xboxkrnl.exe
 0002:0005d5f6       _KeWaitForSingleObject@20  005bbd76 f   xboxkrnl:xboxkrnl.exe
 0002:0005d5fc       _KeInitializeTimerEx@8     005bbd7c f   xboxkrnl:xboxkrnl.exe
 0002:0005d602       _KeInitializeDpc@12        005bbd82 f   xboxkrnl:xboxkrnl.exe
 0002:0005d608       _IoInvalidDeviceRequest@8  005bbd88 f   xboxkrnl:xboxkrnl.exe
 0002:0005d60e       _NtDuplicateObject@12      005bbd8e f   xboxkrnl:xboxkrnl.exe
 0002:0005d614       _NtWaitForSingleObject@12  005bbd94 f   xboxkrnl:xboxkrnl.exe
 0002:0005d61a       _NtSetInformationFile@20   005bbd9a f   xboxkrnl:xboxkrnl.exe
 0002:0005d620       _NtQueryInformationFile@20 005bbda0 f   xboxkrnl:xboxkrnl.exe
 0002:0005d626       _NtFlushBuffersFile@8      005bbda6 f   xboxkrnl:xboxkrnl.exe
 0002:0005d62c       _NtUserIoApcDispatcher@12  005bbdac f   xboxkrnl:xboxkrnl.exe
 0002:0005d632       _NtDeviceIoControlFile@40  005bbdb2 f   xboxkrnl:xboxkrnl.exe
 0002:0005d638       _NtReadFileScatter@32      005bbdb8 f   xboxkrnl:xboxkrnl.exe
 0002:0005d63e       _NtWriteFileGather@32      005bbdbe f   xboxkrnl:xboxkrnl.exe
 0002:0005d644       @ObfDereferenceObject@4    005bbdc4 f   xboxkrnl:xboxkrnl.exe
 0002:0005d64a       _IoQueryVolumeInformation@20 005bbdca f   xboxkrnl:xboxkrnl.exe
 0002:0005d650       _ObReferenceObjectByHandle@12 005bbdd0 f   xboxkrnl:xboxkrnl.exe
 0002:0005d656       _MmFreeSystemMemory@8      005bbdd6 f   xboxkrnl:xboxkrnl.exe
 0002:0005d65c       _MmAllocateSystemMemory@8  005bbddc f   xboxkrnl:xboxkrnl.exe
 0002:0005d662       _NtCreateEvent@16          005bbde2 f   xboxkrnl:xboxkrnl.exe
 0002:0005d668       _ObOpenObjectByName@16     005bbde8 f   xboxkrnl:xboxkrnl.exe
 0002:0005d66e       _NtSetEvent@8              005bbdee f   xboxkrnl:xboxkrnl.exe
 0002:0005d674       _NtClearEvent@4            005bbdf4 f   xboxkrnl:xboxkrnl.exe
 0002:0005d67a       _NtPulseEvent@8            005bbdfa f   xboxkrnl:xboxkrnl.exe
 0002:0005d680       _NtCreateSemaphore@16      005bbe00 f   xboxkrnl:xboxkrnl.exe
 0002:0005d686       _NtReleaseSemaphore@12     005bbe06 f   xboxkrnl:xboxkrnl.exe
 0002:0005d68c       _NtCreateMutant@12         005bbe0c f   xboxkrnl:xboxkrnl.exe
 0002:0005d692       _NtReleaseMutant@8         005bbe12 f   xboxkrnl:xboxkrnl.exe
 0002:0005d698       _NtWaitForSingleObjectEx@16 005bbe18 f   xboxkrnl:xboxkrnl.exe
 0002:0005d69e       _NtSignalAndWaitForSingleObjectEx@20 005bbe1e f   xboxkrnl:xboxkrnl.exe
 0002:0005d6a4       _NtWaitForMultipleObjectsEx@24 005bbe24 f   xboxkrnl:xboxkrnl.exe
 0002:0005d6aa       _KeDelayExecutionThread@12 005bbe2a f   xboxkrnl:xboxkrnl.exe
 0002:0005d6b0       _NtCreateTimer@12          005bbe30 f   xboxkrnl:xboxkrnl.exe
 0002:0005d6b6       _NtSetTimerEx@32           005bbe36 f   xboxkrnl:xboxkrnl.exe
 0002:0005d6bc       _NtCancelTimer@8           005bbe3c f   xboxkrnl:xboxkrnl.exe
 0002:0005d6c2       _KeSetTimer@16             005bbe42 f   xboxkrnl:xboxkrnl.exe
 0002:0005d6c8       _KeCancelTimer@4           005bbe48 f   xboxkrnl:xboxkrnl.exe
 0002:0005d6ce       _KeSetBasePriorityThread@8 005bbe4e f   xboxkrnl:xboxkrnl.exe
 0002:0005d6d4       _KeQueryBasePriorityThread@4 005bbe54 f   xboxkrnl:xboxkrnl.exe
 0002:0005d6da       _KeSetDisableBoostThread@8 005bbe5a f   xboxkrnl:xboxkrnl.exe
 0002:0005d6e0       _NtSuspendThread@8         005bbe60 f   xboxkrnl:xboxkrnl.exe
 0002:0005d6e6       _NtResumeThread@8          005bbe66 f   xboxkrnl:xboxkrnl.exe
 0002:0005d6ec       _RtlRaiseException@4       005bbe6c f   xboxkrnl:xboxkrnl.exe
 0002:0005d6f2       _NtQueueApcThread@20       005bbe72 f   xboxkrnl:xboxkrnl.exe
 0002:0005d6f8       _NtYieldExecution@0        005bbe78 f   xboxkrnl:xboxkrnl.exe
 0002:0005d6fe       _PsTerminateSystemThread@4 005bbe7e f   xboxkrnl:xboxkrnl.exe
 0002:0005d704       _PsCreateSystemThreadEx@40 005bbe84 f   xboxkrnl:xboxkrnl.exe
 0002:0005d70a       _NtQueryFullAttributesFile@8 005bbe8a f   xboxkrnl:xboxkrnl.exe
 0002:0005d710       _FscSetCacheSize@4         005bbe90 f   xboxkrnl:xboxkrnl.exe
 0002:0005d716       _FscGetCacheSize@0         005bbe96 f   xboxkrnl:xboxkrnl.exe
 0002:0005d71c       _NtQueryDirectoryFile@40   005bbe9c f   xboxkrnl:xboxkrnl.exe
 0002:0005d722       _NtCreateIoCompletion@16   005bbea2 f   xboxkrnl:xboxkrnl.exe
 0002:0005d728       _NtSetIoCompletion@20      005bbea8 f   xboxkrnl:xboxkrnl.exe
 0002:0005d72e       _NtRemoveIoCompletion@20   005bbeae f   xboxkrnl:xboxkrnl.exe
 0002:0005d734       _RtlAnsiStringToUnicodeString@12 005bbeb4 f   xboxkrnl:xboxkrnl.exe
 0002:0005d73a       _RtlUnicodeStringToAnsiString@12 005bbeba f   xboxkrnl:xboxkrnl.exe
 0002:0005d740       _XcSHAFinal@8              005bbec0 f   xboxkrnl:xboxkrnl.exe
 0002:0005d746       _XcSHAUpdate@12            005bbec6 f   xboxkrnl:xboxkrnl.exe
 0002:0005d74c       _XcSHAInit@4               005bbecc f   xboxkrnl:xboxkrnl.exe
 0002:0005d752       _HalRegisterShutdownNotification@8 005bbed2 f   xboxkrnl:xboxkrnl.exe
 0002:0005d758       _IoStartPacket@12          005bbed8 f   xboxkrnl:xboxkrnl.exe
 0002:0005d75e       @IofCompleteRequest@8      005bbede f   xboxkrnl:xboxkrnl.exe
 0002:0005d764       _IoStartNextPacket@4       005bbee4 f   xboxkrnl:xboxkrnl.exe
 0002:0005d76a       _ExFreePool@4              005bbeea f   xboxkrnl:xboxkrnl.exe
 0002:0005d770       _MmSetAddressProtect@12    005bbef0 f   xboxkrnl:xboxkrnl.exe
 0002:0005d776       _MmQueryAddressProtect@4   005bbef6 f   xboxkrnl:xboxkrnl.exe
 0002:0005d77c       _ExAllocatePoolWithTag@8   005bbefc f   xboxkrnl:xboxkrnl.exe
 0002:0005d782       _IoMarkIrpMustComplete@4   005bbf02 f   xboxkrnl:xboxkrnl.exe
 0002:0005d788       _HalIsResetOrShutdownPending@0 005bbf08 f   xboxkrnl:xboxkrnl.exe
 0002:0005d78e       _HalGetInterruptVector@8   005bbf0e f   xboxkrnl:xboxkrnl.exe
 0002:0005d794       _KeConnectInterrupt@4      005bbf14 f   xboxkrnl:xboxkrnl.exe
 0002:0005d79a       _KeInitializeInterrupt@28  005bbf1a f   xboxkrnl:xboxkrnl.exe
 0002:0005d7a0       _KeStallExecutionProcessor@4 005bbf20 f   xboxkrnl:xboxkrnl.exe
 0002:0005d7a6       _XcHMAC@28                 005bbf26 f   xboxkrnl:xboxkrnl.exe
 0002:0005d7ac       _RtlCompareString@12       005bbf2c f   xboxkrnl:xboxkrnl.exe
 0002:0005d7b2       _KeQueryInterruptTime@0    005bbf32 f   xboxkrnl:xboxkrnl.exe
 0002:0005d7b8       _HalInitiateShutdown@0     005bbf38 f   xboxkrnl:xboxkrnl.exe
 0002:0005d7be       _RtlEqualString@12         005bbf3e f   xboxkrnl:xboxkrnl.exe
 0002:0005d7c4       _XeLoadSection@4           005bbf44 f   xboxkrnl:xboxkrnl.exe
 0002:0005d7ca       _XeUnloadSection@4         005bbf4a f   xboxkrnl:xboxkrnl.exe
 0002:0005d7d0       _RtlFillMemoryUlong@12     005bbf50 f   xboxkrnl:xboxkrnl.exe
 0002:0005d7d6       _NtFreeVirtualMemory@12    005bbf56 f   xboxkrnl:xboxkrnl.exe
 0002:0005d7dc       _NtAllocateVirtualMemory@20 005bbf5c f   xboxkrnl:xboxkrnl.exe
 0002:0005d7e2       _RtlCompareMemoryUlong@12  005bbf62 f   xboxkrnl:xboxkrnl.exe
 0002:0005d7e8       _RtlCompareMemory@12       005bbf68 f   xboxkrnl:xboxkrnl.exe
 0002:0005d7ee       _RtlInitializeCriticalSection@4 005bbf6e f   xboxkrnl:xboxkrnl.exe
 0002:0005d7f4       _NtQueryVirtualMemory@8    005bbf74 f   xboxkrnl:xboxkrnl.exe
 0002:0005d7fa       _MmAllocateContiguousMemoryEx@20 005bbf7a f   xboxkrnl:xboxkrnl.exe
 0002:0005d800       _MmQueryAllocationSize@4   005bbf80 f   xboxkrnl:xboxkrnl.exe
 0002:0005d806       _MmGetPhysicalAddress@4    005bbf86 f   xboxkrnl:xboxkrnl.exe
 0002:0005d80c       _MmLockUnlockBufferPages@12 005bbf8c f   xboxkrnl:xboxkrnl.exe
 0002:0005d812       _KeInsertQueueDpc@12       005bbf92 f   xboxkrnl:xboxkrnl.exe
 0002:0005d818       _MmLockUnlockPhysicalPage@8 005bbf98 f   xboxkrnl:xboxkrnl.exe
 0002:0005d81e       _AvGetSavedDataAddress@0   005bbf9e f   xboxkrnl:xboxkrnl.exe
 0002:0005d824       _AvSendTVEncoderOption@16  005bbfa4 f   xboxkrnl:xboxkrnl.exe
 0002:0005d82a       _AvSetDisplayMode@24       005bbfaa f   xboxkrnl:xboxkrnl.exe
 0002:0005d830       _AvSetSavedDataAddress@4   005bbfb0 f   xboxkrnl:xboxkrnl.exe
 0002:0005d836       _MmQueryStatistics@4       005bbfb6 f   xboxkrnl:xboxkrnl.exe
 0002:0005d83c       _RtlWalkFrameChain@12      005bbfbc f   xboxkrnl:xboxkrnl.exe
 0002:0005d842       _NtDeleteFile@4            005bbfc2 f   xboxkrnl:xboxkrnl.exe
 0002:0005d848       _HalReadWritePCISpace@24   005bbfc8 f   xboxkrnl:xboxkrnl.exe
 0002:0005d84e       _KeDisconnectInterrupt@4   005bbfce f   xboxkrnl:xboxkrnl.exe
 0002:0005d854       _MmClaimGpuInstanceMemory@8 005bbfd4 f   xboxkrnl:xboxkrnl.exe
 0002:0005d85a       _KeSaveFloatingPointState@4 005bbfda f   xboxkrnl:xboxkrnl.exe
 0002:0005d860       _KeRestoreFloatingPointState@4 005bbfe0 f   xboxkrnl:xboxkrnl.exe
 0002:0005d866       _ExQueryPoolBlockSize@4    005bbfe6 f   xboxkrnl:xboxkrnl.exe
 0002:0005d86c       _KeRemoveQueueDpc@4        005bbfec f   xboxkrnl:xboxkrnl.exe
 0002:0005d872       _KeSynchronizeExecution@12 005bbff2 f   xboxkrnl:xboxkrnl.exe
 0002:0005d878       _PhyGetLinkState@4         005bbff8 f   xboxkrnl:xboxkrnl.exe
 0002:0005d87e       _PhyInitialize@8           005bbffe f   xboxkrnl:xboxkrnl.exe
 0002:0005d884       _KeWaitForMultipleObjects@32 005bc004 f   xboxkrnl:xboxkrnl.exe
 0002:0005d88a       _XcBlockCryptCBC@28        005bc00a f   xboxkrnl:xboxkrnl.exe
 0002:0005d890       _XcKeyTable@12             005bc010 f   xboxkrnl:xboxkrnl.exe
 0002:0005d896       _XcDESKeyParity@8          005bc016 f   xboxkrnl:xboxkrnl.exe
 0002:0005d89c       _XcModExp@20               005bc01c f   xboxkrnl:xboxkrnl.exe
 0002:0005d8a2       @IofCallDriver@8           005bc022 f   xboxkrnl:xboxkrnl.exe
 0002:0005d8a8       _IoBuildSynchronousFsdRequest@28 005bc028 f   xboxkrnl:xboxkrnl.exe
 0002:0005d8ae       _ObReferenceObjectByName@20 005bc02e f   xboxkrnl:xboxkrnl.exe
 0002:0005d8b4       _XcVerifyPKCS1Signature@12 005bc034 f   xboxkrnl:xboxkrnl.exe
 0002:0005d8ba       _XcRC4Crypt@12             005bc03a f   xboxkrnl:xboxkrnl.exe
 0002:0005d8c0       _XcRC4Key@12               005bc040 f   xboxkrnl:xboxkrnl.exe
 0002:0005d8c6       _KeSetTimerEx@20           005bc046 f   xboxkrnl:xboxkrnl.exe
 0002:0005d8cc       _KeQueryPerformanceCounter@0 005bc04c f   xboxkrnl:xboxkrnl.exe
 0002:0005d8d2       _KeQueryPerformanceFrequency@0 005bc052 f   xboxkrnl:xboxkrnl.exe
 0002:0005d8d8       _XcPKGetKeyLen@4           005bc058 f   xboxkrnl:xboxkrnl.exe
 0002:0005d8de       _NtSetSystemTime@8         005bc05e f   xboxkrnl:xboxkrnl.exe
 0002:0005d8f0       ??2@YAPAXI@Z               005bc070 f   libcpmtd:newop.obj
 0002:0005d940       ?_Xlen@_String_base@std@@QBEXXZ 005bc0c0 f   libcpmtd:string.obj
 0002:0005d9b0       ?_Xran@_String_base@std@@QBEXXZ 005bc130 f   libcpmtd:string.obj
 0002:0005da20       ??0out_of_range@std@@QAE@ABV?$basic_string@DU?$char_traits@D@std@@V?$allocator@D@2@@1@@Z 005bc1a0 f i libcpmtd:string.obj
 0002:0005da50       ??1out_of_range@std@@UAE@XZ 005bc1d0 f i libcpmtd:string.obj
 0002:0005da80       ??_Eout_of_range@std@@UAEPAXI@Z 005bc200 f i libcpmtd:string.obj
 0002:0005da80       ??_Gout_of_range@std@@UAEPAXI@Z 005bc200 f i libcpmtd:string.obj
 0002:0005dac0       ??0out_of_range@std@@QAE@ABV01@@Z 005bc240 f i libcpmtd:string.obj
 0002:0005daf0       ??_U@YAPAXI@Z              005bc270 f   libcpmtd:newaop.obj
 0002:0005db10       ?_Nomemory@std@@YAXXZ      005bc290 f   libcpmtd:nomemory.obj
 0002:0005db80       ??0bad_alloc@std@@QAE@PBD@Z 005bc300 f i libcpmtd:nomemory.obj
 0002:0005dbb0       ??1bad_alloc@std@@UAE@XZ   005bc330 f i libcpmtd:nomemory.obj
 0002:0005dbe0       ??_Ebad_alloc@std@@UAEPAXI@Z 005bc360 f i libcpmtd:nomemory.obj
 0002:0005dbe0       ??_Gbad_alloc@std@@UAEPAXI@Z 005bc360 f i libcpmtd:nomemory.obj
 0002:0005dc20       ??0bad_alloc@std@@QAE@ABV01@@Z 005bc3a0 f i libcpmtd:nomemory.obj
 0002:0005dc4e       __fpclear                  005bc3ce f   LIBCMTD:fpinit.obj
 0002:0005dc4f       __cfltcvt_init             005bc3cf f   LIBCMTD:fpinit.obj
 0002:0005dc95       ___setfflag                005bc415 f   LIBCMTD:fpinit.obj
 0002:0005dcac       __fpmath                   005bc42c f   LIBCMTD:fpinit.obj
 0002:0005dcd0       __RTC_CheckEsp             005bc450 f   LIBCMTD:stack.obj
 0002:0005dd00       @_RTC_CheckStackVars@8     005bc480 f   LIBCMTD:stack.obj
 0002:0005dd80       __RTC_InitBase             005bc500 f   LIBCMTD:init.obj
 0002:0005ddc0       __RTC_Shutdown             005bc540 f   LIBCMTD:init.obj
 0002:0005dde0       ??3@YAXPAX@Z               005bc560 f   LIBCMTD:dbgdel.obj
 0002:0005deec       __CIsqrt                   005bc66c f   LIBCMTD:sqrt.obj
 0002:0005df00       _sqrt                      005bc680     LIBCMTD:sqrt.obj
 0002:0005dfe0       ?_JumpToContinuation@@YGXPAXPAUEHRegistrationNode@@@Z 005bc760 f   LIBCMTD:trnsctrl.obj
 0002:0005e020       ?_CallMemberFunction0@@YGXPAX0@Z 005bc7a0 f   LIBCMTD:trnsctrl.obj
 0002:0005e030       ?_CallMemberFunction1@@YGXPAX00@Z 005bc7b0 f   LIBCMTD:trnsctrl.obj
 0002:0005e040       ?_CallMemberFunction2@@YGXPAX00H@Z 005bc7c0 f   LIBCMTD:trnsctrl.obj
 0002:0005e050       ?_UnwindNestedFrames@@YGXPAUEHRegistrationNode@@PAUEHExceptionRecord@@@Z 005bc7d0 f   LIBCMTD:trnsctrl.obj
 0002:0005e0c0       ___CxxFrameHandler         005bc840 f   LIBCMTD:trnsctrl.obj
 0002:0005e110       ___CxxLongjmpUnwind@4      005bc890 f   LIBCMTD:trnsctrl.obj
 0002:0005e140       ?_CallCatchBlock2@@YAPAXPAUEHRegistrationNode@@PBU_s_FuncInfo@@PAXHK@Z 005bc8c0 f   LIBCMTD:trnsctrl.obj
 0002:0005e240       ?_CallSETranslator@@YAHPAUEHExceptionRecord@@PAUEHRegistrationNode@@PAX2PBU_s_FuncInfo@@H1@Z 005bc9c0 f   LIBCMTD:trnsctrl.obj
 0002:0005e460       ?_GetRangeOfTrysToCheck@@YAPBU_s_TryBlockMapEntry@@PBU_s_FuncInfo@@HHPAI1@Z 005bcbe0 f   LIBCMTD:trnsctrl.obj
 0002:0005e510       ?_CreateFrameInfo@@YAPAUFrameInfo@@PAU1@PAX@Z 005bcc90 f   LIBCMTD:trnsctrl.obj
 0002:0005e550       ?IsExceptionObjectToBeDestroyed@@YAHPAX@Z 005bccd0 f   LIBCMTD:trnsctrl.obj
 0002:0005e590       ?_FindAndUnlinkFrame@@YAXPAUFrameInfo@@@Z 005bcd10 f   LIBCMTD:trnsctrl.obj
 0002:0005e5fc       __global_unwind2           005bcd7c f   LIBCMTD:exsup.obj
 0002:0005e63e       __local_unwind2            005bcdbe f   LIBCMTD:exsup.obj
 0002:0005e696       __NLG_Return2              005bce16     LIBCMTD:exsup.obj
 0002:0005e6a6       __abnormal_termination     005bce26 f   LIBCMTD:exsup.obj
 0002:0005e6c9       __NLG_Notify1              005bce49 f   LIBCMTD:exsup.obj
 0002:0005e6d2       __NLG_Notify               005bce52 f   LIBCMTD:exsup.obj
 0002:0005e6e5       __NLG_Dispatch             005bce65     LIBCMTD:exsup.obj
 0002:0005e728       __CIsin                    005bcea8 f   LIBCMTD:sin.obj
 0002:0005e73c       _sin                       005bcebc     LIBCMTD:sin.obj
 0002:0005e804       __ftol2                    005bcf84 f   LIBCMTD:ftol2.obj
 0002:0005e8a0       _memset                    005bd020 f   LIBCMTD:memset.obj
 0002:0005e920       _malloc                    005bd0a0 f   LIBCMTD:dbgheap.obj
 0002:0005e950       __malloc_dbg               005bd0d0 f   LIBCMTD:dbgheap.obj
 0002:0005e990       __nh_malloc                005bd110 f   LIBCMTD:dbgheap.obj
 0002:0005e9c0       __nh_malloc_dbg            005bd140 f   LIBCMTD:dbgheap.obj
 0002:0005ea90       __heap_alloc               005bd210 f   LIBCMTD:dbgheap.obj
 0002:0005eab0       __heap_alloc_dbg           005bd230 f   LIBCMTD:dbgheap.obj
 0002:0005ee90       _calloc                    005bd610 f   LIBCMTD:dbgheap.obj
 0002:0005eec0       __calloc_dbg               005bd640 f   LIBCMTD:dbgheap.obj
 0002:0005ef40       _realloc                   005bd6c0 f   LIBCMTD:dbgheap.obj
 0002:0005ef70       __realloc_dbg              005bd6f0 f   LIBCMTD:dbgheap.obj
 0002:0005f680       __expand                   005bde00 f   LIBCMTD:dbgheap.obj
 0002:0005f6b0       __expand_dbg               005bde30 f   LIBCMTD:dbgheap.obj
 0002:0005f760       _free                      005bdee0 f   LIBCMTD:dbgheap.obj
 0002:0005f780       __free_lk                  005bdf00 f   LIBCMTD:dbgheap.obj
 0002:0005f7a0       __free_dbg                 005bdf20 f   LIBCMTD:dbgheap.obj
 0002:0005f830       __free_dbg_lk              005bdfb0 f   LIBCMTD:dbgheap.obj
 0002:0005fd50       __msize                    005be4d0 f   LIBCMTD:dbgheap.obj
 0002:0005fd70       __msize_dbg                005be4f0 f   LIBCMTD:dbgheap.obj
 0002:0005ff40       __CrtSetBreakAlloc         005be6c0 f   LIBCMTD:dbgheap.obj
 0002:0005ff70       __CrtSetDbgBlockType       005be6f0 f   LIBCMTD:dbgheap.obj
 0002:00060080       __CrtSetAllocHook          005be800 f   LIBCMTD:dbgheap.obj
 0002:00060110       __CrtCheckMemory           005be890 f   LIBCMTD:dbgheap.obj
 0002:00060550       __CrtSetDbgFlag            005becd0 f   LIBCMTD:dbgheap.obj
 0002:00060620       __CrtDoForAllClientObjects 005beda0 f   LIBCMTD:dbgheap.obj
 0002:000606f0       __CrtIsValidPointer        005bee70 f   LIBCMTD:dbgheap.obj
 0002:00060750       __CrtIsValidHeapPointer    005beed0 f   LIBCMTD:dbgheap.obj
 0002:000607d0       __CrtIsMemoryBlock         005bef50 f   LIBCMTD:dbgheap.obj
 0002:00060940       __CrtReportBlockType       005bf0c0 f   LIBCMTD:dbgheap.obj
 0002:00060980       __CrtSetDumpClient         005bf100 f   LIBCMTD:dbgheap.obj
 0002:000609b0       __CrtMemCheckpoint         005bf130 f   LIBCMTD:dbgheap.obj
 0002:00060bb0       __CrtMemDifference         005bf330 f   LIBCMTD:dbgheap.obj
 0002:00060d10       __CrtMemDumpAllObjectsSince 005bf490 f   LIBCMTD:dbgheap.obj
 0002:000611c0       __CrtDumpMemoryLeaks       005bf940 f   LIBCMTD:dbgheap.obj
 0002:00061240       __CrtMemDumpStatistics     005bf9c0 f   LIBCMTD:dbgheap.obj
 0002:00061320       __aligned_malloc           005bfaa0 f   LIBCMTD:dbgheap.obj
 0002:00061350       __aligned_malloc_dbg       005bfad0 f   LIBCMTD:dbgheap.obj
 0002:00061380       __aligned_realloc          005bfb00 f   LIBCMTD:dbgheap.obj
 0002:000613b0       __aligned_realloc_dbg      005bfb30 f   LIBCMTD:dbgheap.obj
 0002:000613e0       __aligned_offset_malloc    005bfb60 f   LIBCMTD:dbgheap.obj
 0002:00061410       __aligned_offset_malloc_dbg 005bfb90 f   LIBCMTD:dbgheap.obj
 0002:000615a0       __aligned_offset_realloc   005bfd20 f   LIBCMTD:dbgheap.obj
 0002:000615d0       __aligned_offset_realloc_dbg 005bfd50 f   LIBCMTD:dbgheap.obj
 0002:000618c0       __aligned_free             005c0040 f   LIBCMTD:dbgheap.obj
 0002:000618e0       __aligned_free_dbg         005c0060 f   LIBCMTD:dbgheap.obj
 0002:000619b0       _fclose                    005c0130 f   LIBCMTD:fclose.obj
 0002:00061aa0       __fclose_lk                005c0220 f   LIBCMTD:fclose.obj
 0002:00061b80       _fread                     005c0300 f   LIBCMTD:fread.obj
 0002:00061c20       __fread_lk                 005c03a0 f   LIBCMTD:fread.obj
 0002:00061e60       __fsopen                   005c05e0 f   LIBCMTD:fopen.obj
 0002:00061fe0       _fopen                     005c0760 f   LIBCMTD:fopen.obj
 0002:00062000       __purecall                 005c0780 f   LIBCMTD:purevirt.obj
 0002:00062030       __set_purecall_handler     005c07b0 f   LIBCMTD:purevirt.obj
 0002:0006205c       _atan                      005c07dc f   LIBCMTD:atan.obj
 0002:00062060       __CIatan                   005c07e0 f   LIBCMTD:atan.obj
 0002:00062062       __CIatan_default           005c07e2 f   LIBCMTD:atan.obj
 0002:00062076       __atan_default             005c07f6     LIBCMTD:atan.obj
 0002:00062130       _srand                     005c08b0 f   LIBCMTD:rand.obj
 0002:00062150       _rand                      005c08d0 f   LIBCMTD:rand.obj
 0002:000621a0       __assert                   005c0920 f   LIBCMTD:assert.obj
 0002:00062830       _printf                    005c0fb0 f   LIBCMTD:printf.obj
 0002:00062934       _pow                       005c10b4 f   LIBCMTD:pow.obj
 0002:00062938       __CIpow                    005c10b8 f   LIBCMTD:pow.obj
 0002:0006293a       __CIpow_default            005c10ba f   LIBCMTD:pow.obj
 0002:00062953       __pow_default              005c10d3     LIBCMTD:pow.obj
 0002:00062bd0       _swprintf                  005c1350 f   LIBCMTD:swprintf.obj
 0002:00062d50       __scwprintf                005c14d0 f   LIBCMTD:swprintf.obj
 0002:00062df0       _wcslen                    005c1570 f   LIBCMTD:wcslen.obj
 0002:00062e30       __itow                     005c15b0 f   LIBCMTD:xtow.obj
 0002:00062e70       __ltow                     005c15f0 f   LIBCMTD:xtow.obj
 0002:00062eb0       __ultow                    005c1630 f   LIBCMTD:xtow.obj
 0002:00062ef0       __i64tow                   005c1670 f   LIBCMTD:xtow.obj
 0002:00062f40       __ui64tow                  005c16c0 f   LIBCMTD:xtow.obj
 0002:00062f90       __fcvt                     005c1710 f   LIBCMTD:fcvt.obj
 0002:00062ff0       __ecvt                     005c1770 f   LIBCMTD:fcvt.obj
 0002:00063070       __fpcvt                    005c17f0 f   LIBCMTD:fcvt.obj
 0002:00063130       _floor                     005c18b0 f   LIBCMTD:floor.obj
 0002:00063240       _memcpy                    005c19c0 f   LIBCMTD:memcpy.obj
 0002:0006364c       _fabs                      005c1dcc f   LIBCMTD:fabs.obj
 0002:00063730       _fwrite                    005c1eb0 f   LIBCMTD:fwrite.obj
 0002:000637d0       __fwrite_lk                005c1f50 f   LIBCMTD:fwrite.obj
 0002:00063a70       _memcmp                    005c21f0 f   LIBCMTD:memcmp.obj
 0002:00063b60       __CxxThrowException@8      005c22e0 f   LIBCMTD:throw.obj
 0002:00063bb0       ??0exception@@QAE@XZ       005c2330 f   LIBCMTD:stdexcpt.obj
 0002:00063bf0       ??_Eexception@@UAEPAXI@Z   005c2370 f i LIBCMTD:stdexcpt.obj
 0002:00063bf0       ??_Gexception@@UAEPAXI@Z   005c2370 f i LIBCMTD:stdexcpt.obj
 0002:00063c30       ??0exception@@QAE@ABQBD@Z  005c23b0 f   LIBCMTD:stdexcpt.obj
 0002:00063cb0       ??0exception@@QAE@ABV0@@Z  005c2430 f   LIBCMTD:stdexcpt.obj
 0002:00063d50       ??4exception@@QAEAAV0@ABV0@@Z 005c24d0 f   LIBCMTD:stdexcpt.obj
 0002:00063d90       ??1exception@@UAE@XZ       005c2510 f   LIBCMTD:stdexcpt.obj
 0002:00063dd0       ?what@exception@@UBEPBDXZ  005c2550 f   LIBCMTD:stdexcpt.obj
 0002:00063e00       ??0bad_cast@@QAE@PBD@Z     005c2580 f   LIBCMTD:stdexcpt.obj
 0002:00063e30       ??_Ebad_cast@@UAEPAXI@Z    005c25b0 f i LIBCMTD:stdexcpt.obj
 0002:00063e30       ??_Gbad_cast@@UAEPAXI@Z    005c25b0 f i LIBCMTD:stdexcpt.obj
 0002:00063e70       ??0bad_cast@@QAE@ABV0@@Z   005c25f0 f   LIBCMTD:stdexcpt.obj
 0002:00063ea0       ??1bad_cast@@UAE@XZ        005c2620 f   LIBCMTD:stdexcpt.obj
 0002:00063ed0       ??0bad_typeid@@QAE@PBD@Z   005c2650 f   LIBCMTD:stdexcpt.obj
 0002:00063f00       ??_Gbad_typeid@@UAEPAXI@Z  005c2680 f i LIBCMTD:stdexcpt.obj
 0002:00063f00       ??_Ebad_typeid@@UAEPAXI@Z  005c2680 f i LIBCMTD:stdexcpt.obj
 0002:00063f40       ??0bad_typeid@@QAE@ABV0@@Z 005c26c0 f   LIBCMTD:stdexcpt.obj
 0002:00063f70       ??1bad_typeid@@UAE@XZ      005c26f0 f   LIBCMTD:stdexcpt.obj
 0002:00063fa0       ??0__non_rtti_object@@QAE@PBD@Z 005c2720 f   LIBCMTD:stdexcpt.obj
 0002:00063fd0       ??_E__non_rtti_object@@UAEPAXI@Z 005c2750 f i LIBCMTD:stdexcpt.obj
 0002:00063fd0       ??_G__non_rtti_object@@UAEPAXI@Z 005c2750 f i LIBCMTD:stdexcpt.obj
 0002:00064010       ??0__non_rtti_object@@QAE@ABV0@@Z 005c2790 f   LIBCMTD:stdexcpt.obj
 0002:00064040       ??1__non_rtti_object@@UAE@XZ 005c27c0 f   LIBCMTD:stdexcpt.obj
 0002:00064070       ??1type_info@@UAE@XZ       005c27f0 f   LIBCMTD:typinfo.obj
 0002:00064120       ??_Etype_info@@UAEPAXI@Z   005c28a0 f i LIBCMTD:typinfo.obj
 0002:00064120       ??_Gtype_info@@UAEPAXI@Z   005c28a0 f i LIBCMTD:typinfo.obj
 0002:00064160       ??8type_info@@QBEHABV0@@Z  005c28e0 f   LIBCMTD:typinfo.obj
 0002:000641a0       ??9type_info@@QBEHABV0@@Z  005c2920 f   LIBCMTD:typinfo.obj
 0002:000641e0       ?before@type_info@@QBEHABV1@@Z 005c2960 f   LIBCMTD:typinfo.obj
 0002:00064220       ?raw_name@type_info@@QBEPBDXZ 005c29a0 f   LIBCMTD:typinfo.obj
 0002:00064240       ??0type_info@@AAE@ABV0@@Z  005c29c0 f   LIBCMTD:typinfo.obj
 0002:00064260       ??4type_info@@AAEAAV0@ABV0@@Z 005c29e0 f   LIBCMTD:typinfo.obj
 0002:00064280       _memmove                   005c2a00 f   LIBCMTD:memmove.obj
 0002:00064690       _strlen                    005c2e10 f   LIBCMTD:strlen.obj
 0002:00064740       _towupper                  005c2ec0 f   LIBCMTD:towupper.obj
 0002:000647e0       __stricmp                  005c2f60 f   LIBCMTD:stricmp.obj
 0002:0006487c       _log10                     005c2ffc f   LIBCMTD:log10.obj
 0002:00064880       __CIlog10                  005c3000 f   LIBCMTD:log10.obj
 0002:00064882       __CIlog10_default          005c3002 f   LIBCMTD:log10.obj
 0002:00064896       __log10_default            005c3016     LIBCMTD:log10.obj
 0002:00064990       ??_V@YAXPAX@Z              005c3110 f   LIBCMTD:delete2.obj
 0002:000649b0       __chkstk                   005c3130 f   LIBCMTD:chkstk.obj
 0002:000649b0       __alloca_probe             005c3130     LIBCMTD:chkstk.obj
 0002:00064a10       __vsnprintf                005c3190 f   LIBCMTD:vsnprint.obj
 0002:00064b10       _strcpy                    005c3290 f   LIBCMTD:strcat.obj
 0002:00064b20       _strcat                    005c32a0 f   LIBCMTD:strcat.obj
 0002:00064c50       _sprintf                   005c33d0 f   LIBCMTD:sprintf.obj
 0002:00064d80       __scprintf                 005c3500 f   LIBCMTD:sprintf.obj
 0002:00064e20       __allmul                   005c35a0 f   LIBCMTD:llmul.obj
 0002:00064e70       _wcscmp                    005c35f0 f   LIBCMTD:wcscmp.obj
 0002:00064ef0       __wcsicmp                  005c3670 f   LIBCMTD:wcsicmp.obj
 0002:00065050       _wcscat                    005c37d0 f   LIBCMTD:wcscat.obj
 0002:000650c0       _wcscpy                    005c3840 f   LIBCMTD:wcscat.obj
 0002:0006510c       __SEH_prolog               005c388c f   LIBCMTD:sehprolg.obj
 0002:00065147       __SEH_epilog               005c38c7 f   LIBCMTD:sehprolg.obj
 0002:00065174       __except_handler3          005c38f4 f   LIBCMTD:exsup3.obj
 0002:00065246       __seh_longjmp_unwind@4     005c39c6 f   LIBCMTD:exsup3.obj
 0002:000652a0       _vswprintf                 005c3a20 f   LIBCMTD:vswprint.obj
 0002:00065420       __vscwprintf               005c3ba0 f   LIBCMTD:vswprint.obj
 0002:000654c0       _vsprintf                  005c3c40 f   LIBCMTD:vsprintf.obj
 0002:000655e0       __vscprintf                005c3d60 f   LIBCMTD:vsprintf.obj
 0002:00065680       __snprintf                 005c3e00 f   LIBCMTD:snprintf.obj
 0002:000657b0       __aullshr                  005c3f30 f   LIBCMTD:ullshr.obj
 0002:000657e0       __aullrem                  005c3f60 f   LIBCMTD:ullrem.obj
 0002:00065880       _wcsncpy                   005c4000 f   LIBCMTD:wcsncpy.obj
 0002:00065910       _wcsstr                    005c4090 f   LIBCMTD:wcsstr.obj
 0002:000659c0       __snwprintf                005c4140 f   LIBCMTD:snwprint.obj
 0002:00065b50       _strncpy                   005c42d0 f   LIBCMTD:strncpy.obj
 0002:00065cc0       __strnicmp                 005c4440 f   LIBCMTD:strnicmp.obj
 0002:00065d80       __alldiv                   005c4500 f   LIBCMTD:lldiv.obj
 0002:00065e60       __allshr                   005c45e0 f   LIBCMTD:llshr.obj
 0002:00065e90       __allrem                   005c4610 f   LIBCMTD:llrem.obj
 0002:00065f70       __aulldiv                  005c46f0 f   LIBCMTD:ulldiv.obj
 0002:00066000       __RTC_Initialize           005c4780 f   LIBCMTD:initsect.obj
 0002:000660a0       __RTC_Terminate            005c4820 f   LIBCMTD:initsect.obj
 0002:00066150       _strchr                    005c48d0 f   LIBCMTD:strchr.obj
 0002:00066156       ___from_strstr_to_strchr   005c48d6     LIBCMTD:strchr.obj
 0002:00066241       __copysign                 005c49c1 f   LIBCMTD:ieeemisc.obj
 0002:0006626a       __chgsign                  005c49ea f   LIBCMTD:ieeemisc.obj
 0002:00066299       __scalb                    005c4a19 f   LIBCMTD:ieeemisc.obj
 0002:000662b7       __logb                     005c4a37 f   LIBCMTD:ieeemisc.obj
 0002:000663dc       __nextafter                005c4b5c f   LIBCMTD:ieeemisc.obj
 0002:00066709       __finite                   005c4e89 f   LIBCMTD:ieeemisc.obj
 0002:00066727       __isnan                    005c4ea7 f   LIBCMTD:ieeemisc.obj
 0002:00066763       __fpclass                  005c4ee3 f   LIBCMTD:ieeemisc.obj
 0002:00066828       __CIacos                   005c4fa8 f   LIBCMTD:acos.obj
 0002:0006683c       _acos                      005c4fbc     LIBCMTD:acos.obj
 0002:00066928       _longjmp                   005c50a8 f   LIBCMTD:longjmp.obj
 0002:000669c0       __setjmp3                  005c5140 f   LIBCMTD:setjmp3.obj
 0002:00066a60       _isalpha                   005c51e0 f   LIBCMTD:_ctype.obj
 0002:00066ab0       _isupper                   005c5230 f   LIBCMTD:_ctype.obj
 0002:00066b00       _islower                   005c5280 f   LIBCMTD:_ctype.obj
 0002:00066b50       _isdigit                   005c52d0 f   LIBCMTD:_ctype.obj
 0002:00066ba0       _isxdigit                  005c5320 f   LIBCMTD:_ctype.obj
 0002:00066bf0       _isspace                   005c5370 f   LIBCMTD:_ctype.obj
 0002:00066c40       _ispunct                   005c53c0 f   LIBCMTD:_ctype.obj
 0002:00066c90       _isalnum                   005c5410 f   LIBCMTD:_ctype.obj
 0002:00066ce0       _isprint                   005c5460 f   LIBCMTD:_ctype.obj
 0002:00066d30       _isgraph                   005c54b0 f   LIBCMTD:_ctype.obj
 0002:00066d80       _iscntrl                   005c5500 f   LIBCMTD:_ctype.obj
 0002:00066dd0       ___isascii                 005c5550 f   LIBCMTD:_ctype.obj
 0002:00066df0       ___toascii                 005c5570 f   LIBCMTD:_ctype.obj
 0002:00066e00       ___iscsymf                 005c5580 f   LIBCMTD:_ctype.obj
 0002:00066e80       ___iscsym                  005c5600 f   LIBCMTD:_ctype.obj
 0002:00066f00       _exit                      005c5680 f   LIBCMTD:crt0dat.obj
 0002:00066f20       __exit                     005c56a0 f   LIBCMTD:crt0dat.obj
 0002:00066f40       __cexit                    005c56c0 f   LIBCMTD:crt0dat.obj
 0002:00066f60       __c_exit                   005c56e0 f   LIBCMTD:crt0dat.obj
 0002:000670e0       __lockexit                 005c5860 f   LIBCMTD:crt0dat.obj
 0002:00067100       __unlockexit               005c5880 f   LIBCMTD:crt0dat.obj
 0002:00067150       ??_M@YGXPAXIHP6EX0@Z@Z     005c58d0 f   LIBCMTD:ehvecdtr.obj
 0002:00067220       ?__ArrayUnwind@@YGXPAXIHP6EX0@Z@Z 005c59a0 f   LIBCMTD:ehvecdtr.obj
 0002:00067300       ??_L@YGXPAXIHP6EX0@Z1@Z    005c5a80 f   LIBCMTD:ehvecctr.obj
 0002:000673c8       __EH_prolog                005c5b48 f   LIBCMTD:ehprolog.obj
 0002:000673f0       __onexit                   005c5b70 f   LIBCMTD:onexit.obj
 0002:00067590       _atexit                    005c5d10 f   LIBCMTD:onexit.obj
 0002:000675b0       ___onexitinit              005c5d30 f   LIBCMTD:onexit.obj
 0002:00067610       _atol                      005c5d90 f   LIBCMTD:atox.obj
 0002:00067700       _atoi                      005c5e80 f   LIBCMTD:atox.obj
 0002:00067720       __atoi64                   005c5ea0 f   LIBCMTD:atox.obj
 0002:00067850       _sscanf                    005c5fd0 f   LIBCMTD:sscanf.obj
 0002:00067930       _strncmp                   005c60b0 f   LIBCMTD:strncmp.obj
 0002:00067980       __itoa                     005c6100 f   LIBCMTD:xtoa.obj
 0002:00067ae0       __ltoa                     005c6260 f   LIBCMTD:xtoa.obj
 0002:00067b30       __ultoa                    005c62b0 f   LIBCMTD:xtoa.obj
 0002:00067b60       __i64toa                   005c62e0 f   LIBCMTD:xtoa.obj
 0002:00067cf0       __ui64toa                  005c6470 f   LIBCMTD:xtoa.obj
 0002:00067d18       _sinh                      005c6498 f   LIBCMTD:87ctrigh.obj
 0002:00067d22       _cosh                      005c64a2 f   LIBCMTD:87ctrigh.obj
 0002:00067d29       _tanh                      005c64a9 f   LIBCMTD:87ctrigh.obj
 0002:00067d30       __CIsinh                   005c64b0 f   LIBCMTD:87ctrigh.obj
 0002:00067d3a       __CIcosh                   005c64ba f   LIBCMTD:87ctrigh.obj
 0002:00067d41       __CItanh                   005c64c1 f   LIBCMTD:87ctrigh.obj
 0002:00067d60       __wcsnicmp                 005c64e0 f   LIBCMTD:wcsnicmp.obj
 0002:00067ef0       _strcspn                   005c6670 f   LIBCMTD:strcspn.obj
 0002:00067f50       __toupper                  005c66d0 f   LIBCMTD:toupper.obj
 0002:00067f60       _toupper                   005c66e0 f   LIBCMTD:toupper.obj
 0002:00067fd0       _strtok                    005c6750 f   LIBCMTD:strtok.obj
 0002:00068150       __allshl                   005c68d0 f   LIBCMTD:llshl.obj
 0002:00068180       _qsort                     005c6900 f   LIBCMTD:qsort.obj
 0002:00068700       _towlower                  005c6e80 f   LIBCMTD:towlower.obj
 0002:000687a0       _wcschr                    005c6f20 f   LIBCMTD:wcschr.obj
 0002:000687f0       ?_set_new_handler@@YAP6AHI@ZP6AHI@Z@Z 005c6f70 f   LIBCMTD:handler.obj
 0002:00068830       ?_query_new_handler@@YAP6AHI@ZXZ 005c6fb0 f   LIBCMTD:handler.obj
 0002:00068840       __callnewh                 005c6fc0 f   LIBCMTD:handler.obj
 0002:00068878       __forcdecpt                005c6ff8 f   LIBCMTD:cvt.obj
 0002:000688de       __cropzeros                005c705e f   LIBCMTD:cvt.obj
 0002:0006893f       __positive                 005c70bf f   LIBCMTD:cvt.obj
 0002:00068964       __fassign                  005c70e4 f   LIBCMTD:cvt.obj
 0002:00068aaf       __cftoe                    005c722f f   LIBCMTD:cvt.obj
 0002:00068bf4       __cftof                    005c7374 f   LIBCMTD:cvt.obj
 0002:00068c5a       __cftog                    005c73da f   LIBCMTD:cvt.obj
 0002:00068d0a       __cfltcvt                  005c748a f   LIBCMTD:cvt.obj
 0002:00068d70       __setdefaultprecision      005c74f0 f   LIBCMTD:fp8.obj
 0002:00068d90       ?_RTC_GetSrcLine@@YAHKPADHPAHPAPAD@Z 005c7510 f   LIBCMTD:error.obj
 0002:00068de0       ?_RTC_Failure@@YAXPAXH@Z   005c7560 f   LIBCMTD:error.obj
 0002:000690c0       ?_RTC_MemFailure@@YAXPAXHPBX@Z 005c7840 f   LIBCMTD:error.obj
 0002:000693a0       ?_RTC_StackFailure@@YAXPAXPBD@Z 005c7b20 f   LIBCMTD:error.obj
 0002:00069490       __RTC_UninitUse            005c7c10 f   LIBCMTD:error.obj
 0002:000695b0       __RTC_NumErrors            005c7d30 f   LIBCMTD:userapi.obj
 0002:000695c0       __RTC_GetErrDesc           005c7d40 f   LIBCMTD:userapi.obj
 0002:000695f0       __RTC_SetErrorType         005c7d70 f   LIBCMTD:userapi.obj
 0002:00069620       __RTC_SetErrorFunc         005c7da0 f   LIBCMTD:userapi.obj
 0002:00069640       ?_RTC_GetErrorFunc@@YAP6AHHPBDH00ZZPBX@Z 005c7dc0 f   LIBCMTD:userapi.obj
 0002:00069650       __chkesp                   005c7dd0 f   LIBCMTD:chkesp.obj
 0002:000696a0       __CRT_RTC_INIT             005c7e20 f   LIBCMTD:chkesp.obj
 0002:000696b0       __mtinitlocks              005c7e30 f   LIBCMTD:mlock.obj
 0002:00069760       __mtdeletelocks            005c7ee0 f   LIBCMTD:mlock.obj
 0002:00069840       __mtinitlocknum            005c7fc0 f   LIBCMTD:mlock.obj
 0002:000699b0       __lock                     005c8130 f   LIBCMTD:mlock.obj
 0002:00069a00       __unlock                   005c8180 f   LIBCMTD:mlock.obj
 0002:00069a20       __lockerr_exit             005c81a0 f   LIBCMTD:mlock.obj
 0002:00069a40       __CrtDbgBreak              005c81c0 f   LIBCMTD:dbgrpt.obj
 0002:00069a50       __CrtSetReportMode         005c81d0 f   LIBCMTD:dbgrpt.obj
 0002:00069ac0       __CrtSetReportFile         005c8240 f   LIBCMTD:dbgrpt.obj
 0002:00069b20       __CrtSetReportHook         005c82a0 f   LIBCMTD:dbgrpt.obj
 0002:00069b50       __CrtSetReportHook2        005c82d0 f   LIBCMTD:dbgrpt.obj
 0002:00069e30       __CrtDbgReport             005c85b0 f   LIBCMTD:dbgrpt.obj
 0002:0006a7ec       __trandisp1                005c8f6c f   LIBCMTD:87disp.obj
 0002:0006a853       __trandisp2                005c8fd3 f   LIBCMTD:87disp.obj
 0002:0006a8df       __rttospopde               005c905f     LIBCMTD:87disp.obj
 0002:0006a8e4       __rttospop                 005c9064     LIBCMTD:87disp.obj
 0002:0006a8e6       __rtnospop                 005c9066     LIBCMTD:87disp.obj
 0002:0006a8e8       __rttosnpop                005c9068     LIBCMTD:87disp.obj
 0002:0006a8e9       __rtnospopde               005c9069     LIBCMTD:87disp.obj
 0002:0006a8f0       __rtzeropop                005c9070     LIBCMTD:87disp.obj
 0002:0006a8f2       __rtzeronpop               005c9072     LIBCMTD:87disp.obj
 0002:0006a8f7       __rtonepop                 005c9077     LIBCMTD:87disp.obj
 0002:0006a8f9       __rtonenpop                005c9079     LIBCMTD:87disp.obj
 0002:0006a8fe       __tosnan1                  005c907e     LIBCMTD:87disp.obj
 0002:0006a929       __nosnan2                  005c90a9     LIBCMTD:87disp.obj
 0002:0006a92b       __tosnan2                  005c90ab     LIBCMTD:87disp.obj
 0002:0006a953       __nan2                     005c90d3     LIBCMTD:87disp.obj
 0002:0006a992       __rtindfpop                005c9112     LIBCMTD:87disp.obj
 0002:0006a994       __rtindfnpop               005c9114     LIBCMTD:87disp.obj
 0002:0006a9a5       __rttosnpopde              005c9125     LIBCMTD:87disp.obj
 0002:0006a9af       __rtchsifneg               005c912f     LIBCMTD:87disp.obj
 0002:0006aa28       __startTwoArgErrorHandling 005c91a8 f   LIBCMTD:genexcep.obj
 0002:0006aa3f       __startOneArgErrorHandling 005c91bf f   LIBCMTD:genexcep.obj
 0002:0006aa90       __twoToTOS                 005c9210 f   LIBCMTD:common.obj
 0002:0006aaa5       __load_CW                  005c9225 f   LIBCMTD:common.obj
 0002:0006aabc       __convertTOStoQNaN         005c923c f   LIBCMTD:common.obj
 0002:0006aad5       __fload_withFB             005c9255 f   LIBCMTD:common.obj
 0002:0006ab18       __checkTOS_withFB          005c9298 f   LIBCMTD:common.obj
 0002:0006ab2e       __fast_exit                005c92ae f   LIBCMTD:common.obj
 0002:0006ab3b       __math_exit                005c92bb f   LIBCMTD:common.obj
 0002:0006ab65       __check_overflow_exit      005c92e5 f   LIBCMTD:common.obj
 0002:0006ab79       __check_range_exit         005c92f9 f   LIBCMTD:common.obj
 0002:0006ac80       ___InternalCxxFrameHandler 005c9400 f   LIBCMTD:frame.obj
 0002:0006b310       ___FrameUnwindToState      005c9a90 f   LIBCMTD:frame.obj
 0002:0006bc20       ___DestructExceptionObject 005ca3a0 f   LIBCMTD:frame.obj
 0002:0006bd30       ?__uncaught_exception@@YA_NXZ 005ca4b0 f   LIBCMTD:frame.obj
 0002:0006bd50       ___CxxExceptionFilter      005ca4d0 f   LIBCMTD:frame.obj
 0002:0006bf50       ___CxxRegisterExceptionObject 005ca6d0 f   LIBCMTD:frame.obj
 0002:0006c0a0       ___CxxDetectRethrow        005ca820 f   LIBCMTD:frame.obj
 0002:0006c100       ___CxxUnregisterExceptionObject 005ca880 f   LIBCMTD:frame.obj
 0002:0006c1f0       ___CxxQueryExceptionSize   005ca970 f   LIBCMTD:frame.obj
 0002:0006c200       ___CxxCallUnwindDtor       005ca980 f   LIBCMTD:frame.obj
 0002:0006c280       ___CxxCallUnwindVecDtor    005caa00 f   LIBCMTD:frame.obj
 0002:0006c310       __CallSettingFrame@12      005caa90 f   LIBCMTD:lowhelpr.obj
 0002:0006c337       __NLG_Return               005caab7     LIBCMTD:lowhelpr.obj
 0002:0006c370       ___crtTlsAlloc@4           005caaf0 f   LIBCMTD:tidtable.obj
 0002:0006c380       __mtinit                   005cab00 f   LIBCMTD:tidtable.obj
 0002:0006c440       __mtterm                   005cabc0 f   LIBCMTD:tidtable.obj
 0002:0006c450       __initptd                  005cabd0 f   LIBCMTD:tidtable.obj
 0002:0006c470       __getptd                   005cabf0 f   LIBCMTD:tidtable.obj
 0002:0006c580       __freefls@4                005cad00 f   LIBCMTD:tidtable.obj
 0002:0006c760       __freeptd                  005caee0 f   LIBCMTD:tidtable.obj
 0002:0006c7f0       ___threadid                005caf70 f   LIBCMTD:tidtable.obj
 0002:0006c800       ___threadhandle            005caf80 f   LIBCMTD:tidtable.obj
 0002:0006c810       ?terminate@@YAXXZ          005caf90 f   LIBCMTD:hooks.obj
 0002:0006c8c0       ?unexpected@@YAXXZ         005cb040 f   LIBCMTD:hooks.obj
 0002:0006c8f0       ?_inconsistency@@YAXXZ     005cb070 f   LIBCMTD:hooks.obj
 0002:0006c980       __malloc_base              005cb100 f   LIBCMTD:malloc.obj
 0002:0006c9b0       __nh_malloc_base           005cb130 f   LIBCMTD:malloc.obj
 0002:0006ca20       __heap_alloc_base          005cb1a0 f   LIBCMTD:malloc.obj
 0002:0006ca70       __CrtDefaultAllocHook      005cb1f0 f   LIBCMTD:dbghook.obj
 0002:0006ca80       __expand_base              005cb200 f   LIBCMTD:expand.obj
 0002:0006cba0       __realloc_base             005cb320 f   LIBCMTD:realloc.obj
 0002:0006cd80       __free_base                005cb500 f   LIBCMTD:free.obj
 0002:0006ce50       __heapchk                  005cb5d0 f   LIBCMTD:heapchk.obj
 0002:0006cf30       __heapset                  005cb6b0 f   LIBCMTD:heapchk.obj
 0002:0006cf40       ___heap_select             005cb6c0 f   LIBCMTD:heapinit.obj
 0002:0006cf60       __get_heap_handle          005cb6e0 f   LIBCMTD:heapinit.obj
 0002:0006cf70       __chvalidator              005cb6f0 f   LIBCMTD:isctype.obj
 0002:0006cfc0       __isctype                  005cb740 f   LIBCMTD:isctype.obj
 0002:0006d000       __dosmaperr                005cb780 f   LIBCMTD:dosmap.obj
 0002:0006d0c0       __errno                    005cb840 f   LIBCMTD:dosmap.obj
 0002:0006d0d0       ___doserrno                005cb850 f   LIBCMTD:dosmap.obj
 0002:0006d0e0       ___iob_func                005cb860 f   LIBCMTD:_file.obj
 0002:0006d0f0       ___initstdio               005cb870 f   LIBCMTD:_file.obj
 0002:0006d270       ___endstdio                005cb9f0 f   LIBCMTD:_file.obj
 0002:0006d290       __lock_file                005cba10 f   LIBCMTD:_file.obj
 0002:0006d2e0       __lock_file2               005cba60 f   LIBCMTD:_file.obj
 0002:0006d320       __unlock_file              005cbaa0 f   LIBCMTD:_file.obj
 0002:0006d370       __unlock_file2             005cbaf0 f   LIBCMTD:_file.obj
 0002:0006d3b0       __close                    005cbb30 f   LIBCMTD:close.obj
 0002:0006d4e0       __close_lk                 005cbc60 f   LIBCMTD:close.obj
 0002:0006d5c0       __freebuf                  005cbd40 f   LIBCMTD:_freebuf.obj
 0002:0006d670       _fflush                    005cbdf0 f   LIBCMTD:fflush.obj
 0002:0006d720       __fflush_lk                005cbea0 f   LIBCMTD:fflush.obj
 0002:0006d770       __flush                    005cbef0 f   LIBCMTD:fflush.obj
 0002:0006d850       __flushall                 005cbfd0 f   LIBCMTD:fflush.obj
 0002:0006da70       __filbuf                   005cc1f0 f   LIBCMTD:_filbuf.obj
 0002:0006dcc0       __read                     005cc440 f   LIBCMTD:read.obj
 0002:0006de10       __read_lk                  005cc590 f   LIBCMTD:read.obj
 0002:0006e360       __openfile                 005ccae0 f   LIBCMTD:_open.obj
 0002:0006e7d0       __getstream                005ccf50 f   LIBCMTD:stream.obj
 0002:0006ea80       __amsg_exit                005cd200 f   LIBCMTD:crt0.obj
 0002:0006eab0       _abort                     005cd230 f   LIBCMTD:abort.obj
 0002:0006eae0       _signal                    005cd260 f   LIBCMTD:winsig.obj
 0002:0006ed80       _raise                     005cd500 f   LIBCMTD:winsig.obj
 0002:0006f0e0       ___fpecode                 005cd860 f   LIBCMTD:winsig.obj
 0002:0006f0f0       ___pxcptinfoptrs           005cd870 f   LIBCMTD:winsig.obj
 0002:0006f100       _strncat                   005cd880 f   LIBCMTD:strncat.obj
 0002:0006f290       __stbuf                    005cda10 f   LIBCMTD:_sftbuf.obj
 0002:0006f430       __ftbuf                    005cdbb0 f   LIBCMTD:_sftbuf.obj
 0002:0006f4e0       __output                   005cdc60 f   LIBCMTD:output.obj
 0002:00070835       __fFEXP                    005cefb5     LIBCMTD:87tran.obj
 0002:0007088c       __rtinfpopse               005cf00c     LIBCMTD:87tran.obj
 0002:0007088e       __rtinfnpopse              005cf00e     LIBCMTD:87tran.obj
 0002:0007089e       __fFLN                     005cf01e     LIBCMTD:87tran.obj
 0002:00070953       __rtinfpop                 005cf0d3     LIBCMTD:87tran.obj
 0002:00070955       __rtinfnpop                005cf0d5     LIBCMTD:87tran.obj
 0002:00070972       __ffexpm1                  005cf0f2     LIBCMTD:87tran.obj
 0002:00070a98       __d_inttype                005cf218 f   LIBCMTD:powhlp.obj
 0002:00070b16       __powhlp                   005cf296 f   LIBCMTD:powhlp.obj
 0002:00070cc0       __flsbuf                   005cf440 f   LIBCMTD:_flsbuf.obj
 0002:00070fb0       __woutput                  005cf730 f   LIBCMTD:woutput.obj
 0002:00072220       _mbstowcs                  005d09a0 f   LIBCMTD:mbstowcs.obj
 0002:000722de       ___dtold                   005d0a5e f   LIBCMTD:cfout.obj
 0002:000723c6       __fltout2                  005d0b46 f   LIBCMTD:cfout.obj
 0002:00072450       __fptostr                  005d0bd0 f   LIBCMTD:_fptostr.obj
 0002:00072589       __raise_exc                005d0d09 f   LIBCMTD:fpexcept.obj
 0002:000728d6       __handle_exc               005d1056 f   LIBCMTD:fpexcept.obj
 0002:00072b3e       __set_errno                005d12be f   LIBCMTD:fpexcept.obj
 0002:00072ba0       __errcode                  005d1320 f   LIBCMTD:fpexcept.obj
 0002:00072bde       __umatherr                 005d135e f   LIBCMTD:fpexcept.obj
 0002:00072ca3       __handle_qnan1             005d1423 f   LIBCMTD:fpexcept.obj
 0002:00072d0a       __handle_qnan2             005d148a f   LIBCMTD:fpexcept.obj
 0002:00072d80       __except1                  005d1500 f   LIBCMTD:fpexcept.obj
 0002:00072e5c       __except2                  005d15dc f   LIBCMTD:fpexcept.obj
 0002:00072f4a       __frnd                     005d16ca f   LIBCMTD:frnd.obj
 0002:00072f60       __set_exp                  005d16e0 f   LIBCMTD:util.obj
 0002:00072f94       __get_exp                  005d1714 f   LIBCMTD:util.obj
 0002:00072fb2       __add_exp                  005d1732 f   LIBCMTD:util.obj
 0002:00072fe7       __set_bexp                 005d1767 f   LIBCMTD:util.obj
 0002:00073015       __sptype                   005d1795 f   LIBCMTD:util.obj
 0002:00073086       __decomp                   005d1806 f   LIBCMTD:util.obj
 0002:00073167       __statfp                   005d18e7 f   LIBCMTD:fpctrl.obj
 0002:00073178       __clrfp                    005d18f8 f   LIBCMTD:fpctrl.obj
 0002:0007318a       __ctrlfp                   005d190a f   LIBCMTD:fpctrl.obj
 0002:000731b7       __set_statfp               005d1937 f   LIBCMTD:fpctrl.obj
 0002:00073230       __write                    005d19b0 f   LIBCMTD:write.obj
 0002:00073380       __write_lk                 005d1b00 f   LIBCMTD:write.obj
 0002:00073710       ?__CxxUnhandledExceptionFilter@@YGJPAU_EXCEPTION_POINTERS@@@Z 005d1e90 f   LIBCMTD:unhandld.obj
 0002:00073790       ?__CxxSetUnhandledExceptionFilter@@YAHXZ 005d1f10 f   LIBCMTD:unhandld.obj
 0002:000737b0       ?__CxxRestoreUnhandledExceptionFilter@@YAXXZ 005d1f30 f   LIBCMTD:unhandld.obj
 0002:000737d0       _strcmp                    005d1f50 f   LIBCMTD:strcmp.obj
 0002:00073880       _iswctype                  005d2000 f   LIBCMTD:iswctype.obj
 0002:000738e0       _is_wctype                 005d2060 f   LIBCMTD:iswctype.obj
 0002:00073900       __tolower                  005d2080 f   LIBCMTD:tolower.obj
 0002:00073910       _tolower                   005d2090 f   LIBCMTD:tolower.obj
 0002:00073980       ___ascii_stricmp           005d2100 f   LIBCMTD:_stricmp.obj
 0002:000739f0       ___ascii_strnicmp          005d2170 f   LIBCMTD:_strnicm.obj
 0002:00073a69       _ldexp                     005d21e9 f   LIBCMTD:ldexp.obj
 0002:00073c80       __rt_probe_read4@4         005d2400 f   LIBCMTD:sehsupp.obj
 0002:00073d30       __ismbcspace               005d24b0 f   LIBCMTD:ismbspc.obj
 0002:00073d90       __input                    005d2510 f   LIBCMTD:input.obj
 0002:00075968       __fFSINH                   005d40e8     LIBCMTD:87trigh.obj
 0002:000759ba       __fFCOSH                   005d413a     LIBCMTD:87trigh.obj
 0002:00075aa4       __cintrindisp2             005d4224 f   LIBCMTD:87cdisp.obj
 0002:00075ae2       __cintrindisp1             005d4262 f   LIBCMTD:87cdisp.obj
 0002:00075b1f       __ctrandisp2               005d429f f   LIBCMTD:87cdisp.obj
 0002:00075cb5       __ctrandisp1               005d4435 f   LIBCMTD:87cdisp.obj
 0002:00075ce8       __fload                    005d4468 f   LIBCMTD:87cdisp.obj
 0002:00075dc4       __ZeroTail                 005d4544 f   LIBCMTD:intrncvt.obj
 0002:00075e06       __IncMan                   005d4586 f   LIBCMTD:intrncvt.obj
 0002:00075e68       __RoundMan                 005d45e8 f   LIBCMTD:intrncvt.obj
 0002:00075ef6       __CopyMan                  005d4676 f   LIBCMTD:intrncvt.obj
 0002:00075f1a       __FillZeroMan              005d469a f   LIBCMTD:intrncvt.obj
 0002:00075f2c       __IsZeroMan                005d46ac f   LIBCMTD:intrncvt.obj
 0002:00075f50       __ShrMan                   005d46d0 f   LIBCMTD:intrncvt.obj
 0002:00075fe9       __ld12cvt                  005d4769 f   LIBCMTD:intrncvt.obj
 0002:00076197       __ld12tod                  005d4917 f   LIBCMTD:intrncvt.obj
 0002:000761b5       __ld12tof                  005d4935 f   LIBCMTD:intrncvt.obj
 0002:000761d3       __ld12told                 005d4953 f   LIBCMTD:intrncvt.obj
 0002:0007626e       __atodbl                   005d49ee f   LIBCMTD:intrncvt.obj
 0002:000762a6       __atoldbl                  005d4a26 f   LIBCMTD:intrncvt.obj
 0002:000762df       __atoflt                   005d4a5f f   LIBCMTD:intrncvt.obj
 0002:00076320       __fptrap                   005d4aa0 f   LIBCMTD:crt0fp.obj
 0002:00076332       __fpreset                  005d4ab2 f   LIBCMTD:ieee87.obj
 0002:00076523       __statusfp                 005d4ca3 f   LIBCMTD:ieee87.obj
 0002:0007653a       __clearfp                  005d4cba f   LIBCMTD:ieee87.obj
 0002:00076553       __control87                005d4cd3 f   LIBCMTD:ieee87.obj
 0002:00076592       __controlfp                005d4d12 f   LIBCMTD:ieee87.obj
 0002:000765b0       ___crtInitCritSecAndSpinCount 005d4d30 f   LIBCMTD:initcrit.obj
 0002:0007669b       __87except                 005d4e1b f   LIBCMTD:87except.obj
 0002:000767f0       ?_ValidateRead@@YAHPBXI@Z  005d4f70 f   LIBCMTD:validate.obj
 0002:00076830       ?_ValidateWrite@@YAHPAXI@Z 005d4fb0 f   LIBCMTD:validate.obj
 0002:00076870       ?_ValidateExecute@@YAHP6GHXZ@Z 005d4ff0 f   LIBCMTD:validate.obj
 0002:000768a0       __beginthread              005d5020 f   LIBCMTD:thread.obj
 0002:00076b00       __endthread                005d5280 f   LIBCMTD:thread.obj
 0002:00076b50       __mtxthreadnotification@4  005d52d0 f   LIBCMTD:thread.obj
 0002:00076ba0       ___CppXcptFilter           005d5320 f   LIBCMTD:winxfltr.obj
 0002:00076bd0       __XcptFilter               005d5350 f   LIBCMTD:winxfltr.obj
 0002:00076e70       ___updatetmbcinfo          005d55f0 f   LIBCMTD:mbctype.obj
 0002:00076f70       __setmbcp                  005d56f0 f   LIBCMTD:mbctype.obj
 0002:00077540       __getmbcp                  005d5cc0 f   LIBCMTD:mbctype.obj
 0002:00077560       ___initmbctable            005d5ce0 f   LIBCMTD:mbctype.obj
 0002:000775a0       ___pwctype_func            005d5d20 f   LIBCMTD:ctype.obj
 0002:000775b0       ___pctype_func             005d5d30 f   LIBCMTD:ctype.obj
 0002:000775c0       __ioinit                   005d5d40 f   LIBCMTD:ioinit.obj
 0002:000776c0       __ioterm                   005d5e40 f   LIBCMTD:ioinit.obj
 0002:00077770       __fcloseall                005d5ef0 f   LIBCMTD:closeall.obj
 0002:000778b0       __alloc_osfhnd             005d6030 f   LIBCMTD:osfinfo.obj
 0002:00077bd0       __set_osfhnd               005d6350 f   LIBCMTD:osfinfo.obj
 0002:00077c50       __free_osfhnd              005d63d0 f   LIBCMTD:osfinfo.obj
 0002:00077d00       __get_osfhandle            005d6480 f   LIBCMTD:osfinfo.obj
 0002:00077d80       __open_osfhandle           005d6500 f   LIBCMTD:osfinfo.obj
 0002:00077ec0       __lock_fhandle             005d6640 f   LIBCMTD:osfinfo.obj
 0002:00077ff0       __unlock_fhandle           005d6770 f   LIBCMTD:osfinfo.obj
 0002:00078020       __commit                   005d67a0 f   LIBCMTD:commit.obj
 0002:00078180       __getbuf                   005d6900 f   LIBCMTD:_getbuf.obj
 0002:00078270       __lseek                    005d69f0 f   LIBCMTD:lseek.obj
 0002:000783c0       __lseek_lk                 005d6b40 f   LIBCMTD:lseek.obj
 0002:000784a0       __open                     005d6c20 f   LIBCMTD:open.obj
 0002:00078570       __sopen                    005d6cf0 f   LIBCMTD:open.obj
 0002:00078bd0       __FF_MSGBANNER             005d7350 f   LIBCMTD:crt0msg.obj
 0002:00078c10       __NMSG_WRITE               005d7390 f   LIBCMTD:crt0msg.obj
 0002:00078cc0       __GET_RTERRMSG             005d7440 f   LIBCMTD:crt0msg.obj
 0002:00078d30       __isatty                   005d74b0 f   LIBCMTD:isatty.obj
 0002:00078d70       _wctomb                    005d74f0 f   LIBCMTD:wctomb.obj
 0002:00078dc0       _mbtowc                    005d7540 f   LIBCMTD:mbtowc.obj
 0002:00078e60       _fputwc                    005d75e0 f   LIBCMTD:fputwc.obj
 0002:00078f30       __putwc_lk                 005d76b0 f   LIBCMTD:fputwc.obj
 0002:00079100       _putwc                     005d7880 f   LIBCMTD:fputwc.obj
 0002:0007911b       _$I10_OUTPUT               005d789b f   LIBCMTD:x10fout.obj
 0002:0007942f       __matherr                  005d7baf f   LIBCMTD:matherr.obj
 0002:00079440       __lseeki64                 005d7bc0 f   LIBCMTD:lseeki64.obj
 0002:000795a0       __lseeki64_lk              005d7d20 f   LIBCMTD:lseeki64.obj
 0002:00079690       _ungetc                    005d7e10 f   LIBCMTD:ungetc.obj
 0002:00079760       __ungetc_lk                005d7ee0 f   LIBCMTD:ungetc.obj
 0002:000798da       ___addl                    005d805a f   LIBCMTD:mantold.obj
 0002:00079904       ___add_12                  005d8084 f   LIBCMTD:mantold.obj
 0002:0007997c       ___shl_12                  005d80fc f   LIBCMTD:mantold.obj
 0002:000799b9       ___shr_12                  005d8139 f   LIBCMTD:mantold.obj
 0002:000799f5       ___mtold12                 005d8175 f   LIBCMTD:mantold.obj
 0002:00079af6       ___strgtold12              005d8276 f   LIBCMTD:strgtold.obj
 0002:0007a08f       ___STRINGTOLD              005d880f f   LIBCMTD:strgtold.obj
 0002:0007a0e0       __chsize                   005d8860 f   LIBCMTD:chsize.obj
 0002:0007a200       __chsize_lk                005d8980 f   LIBCMTD:chsize.obj
 0002:0007a440       __flswbuf                  005d8bc0 f   LIBCMTD:_flswbuf.obj
 0002:0007a749       ___ld12mul                 005d8ec9 f   LIBCMTD:tenpow.obj
 0002:0007a9f3       ___multtenpow12            005d9173 f   LIBCMTD:tenpow.obj
 0002:0007aa90       __setmode                  005d9210 f   LIBCMTD:setmode.obj
 0002:0007abb0       __setmode_lk               005d9330 f   LIBCMTD:setmode.obj
 0002:0007acbc       _XapiGetKernelExportAddress@4 005d943c f   xapilibd:delaybnd.obj
 0002:0007ad04       _XGetAudioFlags@0          005d9484 f   xapilibd:xgetaudioflags.obj
 0002:0007ad56       _XapiDpcForCancelIo@16     005d94d6 f   xapilibd:cancelio.obj
 0002:0007ad95       _CancelIo@4                005d9515 f   xapilibd:cancelio.obj
 0002:0007aeb8       _XGetAutoLogonFlag@0       005d9638 f   xapilibd:xgetautologon.obj
 0002:0007aeef       _XGetGameRegion@0          005d966f f   xapilibd:xgetgameregion.obj
 0002:0007af21       _IsBadReadPtr@8            005d96a1 f   xapilibd:process.obj
 0002:0007af9f       _IsBadWritePtr@8           005d971f f   xapilibd:process.obj
 0002:0007b022       _IsBadCodePtr@4            005d97a2 f   xapilibd:process.obj
 0002:0007b037       _IsBadStringPtrW@8         005d97b7 f   xapilibd:process.obj
 0002:0007b0ab       _IsBadStringPtrA@8         005d982b f   xapilibd:process.obj
 0002:0007b117       _TlsAlloc@0                005d9897 f   xapilibd:tls.obj
 0002:0007b180       _TlsGetValue@4             005d9900 f   xapilibd:tls.obj
 0002:0007b1c6       _TlsSetValue@8             005d9946 f   xapilibd:tls.obj
 0002:0007b21a       _TlsFree@4                 005d999a f   xapilibd:tls.obj
 0002:0007b2ec       _XGetAVPack@0              005d9a6c f   xapilibd:xgetavpack.obj
 0002:0007b2f6       _RtlUnwind@16              005d9a76 f   xboxkrnl:xboxkrnl.exe
 0002:0007b2fc       _KeBugCheck@4              005d9a7c f   xboxkrnl:xboxkrnl.exe
 0003:00000000       _Direct3DCreate8@4         005de0c0 f   d3d8d:enum.obj
 0003:00000040       _Direct3D_GetAdapterIdentifier@12 005de100 f   d3d8d:enum.obj
 0003:00000090       _Direct3D_GetAdapterModeCount@4 005de150 f   d3d8d:enum.obj
 0003:00000170       _Direct3D_EnumAdapterModes@12 005de230 f   d3d8d:enum.obj
 0003:00000340       _Direct3D_GetDeviceCaps@12 005de400 f   d3d8d:enum.obj
 0003:00000390       ?GetRefreshRate@CMiniport@D3D@@QAEKXZ 005de450 f i d3d8d:enum.obj
 0003:000003f0       ?DecodeD3DFORMAT@D3D@@YG?AW4_D3DFORMAT@@K@Z 005de4b0 f i d3d8d:enum.obj
 0003:00000410       ?DecodeLogWidth@D3D@@YGKK@Z 005de4d0 f i d3d8d:enum.obj
 0003:00000430       ?DecodeLogHeight@D3D@@YGKK@Z 005de4f0 f i d3d8d:enum.obj
 0003:00000450       ?IsValidRenderTargetD3DFORMAT@D3D@@YGHW4_D3DFORMAT@@@Z 005de510 f i d3d8d:enum.obj
 0003:00000470       ?IsValidDepthBufferD3DFORMAT@D3D@@YGHW4_D3DFORMAT@@@Z 005de530 f i d3d8d:enum.obj
 0003:00000490       ?BitsPerPixelOfD3DFORMAT@D3D@@YGKW4_D3DFORMAT@@@Z 005de550 f i d3d8d:enum.obj
 0003:000004b0       ?GetLogWidth@PixelJar@D3D@@YGKPAUD3DPixelContainer@@@Z 005de570 f i d3d8d:enum.obj
 0003:000004d0       ?GetLogHeight@PixelJar@D3D@@YGKPAUD3DPixelContainer@@@Z 005de590 f i d3d8d:enum.obj
 0003:000004f0       ?GetLinearWidth@PixelJar@D3D@@YGKPAUD3DPixelContainer@@@Z 005de5b0 f i d3d8d:enum.obj
 0003:00000530       ?GetLinearHeight@PixelJar@D3D@@YGKPAUD3DPixelContainer@@@Z 005de5f0 f i d3d8d:enum.obj
 0003:00000570       ?GetWidth@PixelJar@D3D@@YGKPAUD3DPixelContainer@@@Z 005de630 f i d3d8d:enum.obj
 0003:000005b0       ?GetHeight@PixelJar@D3D@@YGKPAUD3DPixelContainer@@@Z 005de670 f i d3d8d:enum.obj
 0003:000005f0       ?CheckDisplayFormat@D3D@@YGHW4_D3DFORMAT@@@Z 005de6b0 f i d3d8d:enum.obj
 0003:00000610       _Direct3D_GetAdapterDisplayMode@8 005de6d0 f   d3d8d:enum.obj
 0003:00000710       _Direct3D_CheckDeviceType@20 005de7d0 f   d3d8d:enum.obj
 0003:000007a0       _Direct3D_CheckDeviceFormat@24 005de860 f   d3d8d:enum.obj
 0003:00000850       _Direct3D_CheckDeviceMultiSampleType@20 005de910 f   d3d8d:enum.obj
 0003:00000900       _Direct3D_CheckDepthStencilMatch@20 005de9c0 f   d3d8d:enum.obj
 0003:00000980       _Direct3D_SetPushBufferSize@8 005dea40 f   d3d8d:d3ddev.obj
 0003:00000a60       _Direct3D_CreateDevice@24  005deb20 f   d3d8d:d3ddev.obj
 0003:00000c40       ?VerifyHeaderFileEncodings@D3D@@YGXXZ 005ded00 f   d3d8d:state.obj
 0003:00000ca0       _D3DDevice_SetRenderState_PSTextureModes@4 005ded60 f   d3d8d:state.obj
 0003:00000cf0       @D3DDevice_SetRenderState_Simple_Fast@8 005dedb0 f   d3d8d:state.obj
 0003:00000d30       @D3DDevice_SetRenderState_Simple@8 005dedf0 f   d3d8d:state.obj
 0003:00000d70       _D3DDevice_GetViewportOffsetAndScale@8 005dee30 f   d3d8d:state.obj
 0003:00000ef0       ?UpdateProjectionViewportTransform@D3D@@YGXXZ 005defb0 f   d3d8d:state.obj
 0003:00001080       _D3DDevice_GetDepthClipPlanes@12 005df140 f   d3d8d:state.obj
 0003:00001150       ?GetFormat@PixelJar@D3D@@YG?AW4_D3DFORMAT@@PAUD3DPixelContainer@@@Z 005df210 f i d3d8d:state.obj
 0003:00001170       ?GetBitsPerPixel@PixelJar@D3D@@YGKPAUD3DPixelContainer@@@Z 005df230 f i d3d8d:state.obj
 0003:00001250       ?StartPush@CDevice@D3D@@QAEPCKXZ 005df310 f i d3d8d:state.obj
 0003:00001280       ?GetRenderTargetFactors@D3D@@YGXPAVCDevice@1@PAUD3DSurface@@PAKPAM322@Z 005df340 f i d3d8d:state.obj
 0003:000014f0       ?COUNT_PERF@D3D@@YGXW4_D3DPERF_PerformanceCounters@1@@Z 005df5b0 f i d3d8d:state.obj
 0003:00001530       _D3DDevice_SetRenderState_EdgeAntiAlias@4 005df5f0 f   d3d8d:state.obj
 0003:000015a0       _D3DDevice_SetRenderState_ShadowFunc@4 005df660 f   d3d8d:state.obj
 0003:00001620       _D3DDevice_SetRenderState_FogColor@4 005df6e0 f   d3d8d:state.obj
 0003:000016b0       _D3DDevice_SetRenderState_CullMode@4 005df770 f   d3d8d:state.obj
 0003:00001770       _D3DDevice_SetRenderState_FrontFace@4 005df830 f   d3d8d:state.obj
 0003:000017f0       _D3DDevice_SetRenderState_NormalizeNormals@4 005df8b0 f   d3d8d:state.obj
 0003:00001870       _D3DDevice_SetRenderState_TextureFactor@4 005df930 f   d3d8d:state.obj
 0003:00001910       _D3DDevice_SetRenderState_LineWidth@4 005df9d0 f   d3d8d:state.obj
 0003:000019d0       _D3DDevice_SetRenderState_Dxt1NoiseEnable@4 005dfa90 f   d3d8d:state.obj
 0003:00001ad0       _D3DDevice_SetRenderState_ZBias@4 005dfb90 f   d3d8d:state.obj
 0003:00001b70       _D3DDevice_SetRenderState_LogicOp@4 005dfc30 f   d3d8d:state.obj
 0003:00001c00       _D3DDevice_SetRenderState_FillMode@4 005dfcc0 f   d3d8d:state.obj
 0003:00001c90       _D3DDevice_SetRenderState_BackFillMode@4 005dfd50 f   d3d8d:state.obj
 0003:00001cd0       _D3DDevice_SetRenderState_TwoSidedLighting@4 005dfd90 f   d3d8d:state.obj
 0003:00001d60       _D3DDevice_SetRenderState_VertexBlend@4 005dfe20 f   d3d8d:state.obj
 0003:00001df0       _D3DDevice_SetRenderState_ParameterCheck@8 005dfeb0 f   d3d8d:state.obj
 0003:00002860       _D3DDevice_SetRenderStateNotInline@8 005e0920 f   d3d8d:state.obj
 0003:000029a0       _D3DDevice_SetTextureState_TexCoordIndex@8 005e0a60 f   d3d8d:state.obj
 0003:00002b70       _D3DDevice_SetTextureState_BumpEnv@12 005e0c30 f   d3d8d:state.obj
 0003:00002c50       _D3DDevice_SetTextureState_BorderColor@8 005e0d10 f   d3d8d:state.obj
 0003:00002ce0       _D3DDevice_SetTextureState_ColorKeyColor@8 005e0da0 f   d3d8d:state.obj
 0003:00002d60       _D3DDevice_SetTextureState_ParameterCheck@12 005e0e20 f   d3d8d:state.obj
 0003:000030f0       _D3DDevice_SetTextureStageStateNotInline@12 005e11b0 f   d3d8d:state.obj
 0003:00003280       ?CommonSetTextureBumpEnv@D3D@@YIPCKPAVCDevice@1@PCK@Z 005e1340 f   d3d8d:state.obj
 0003:00003330       ?CommonSetViewport@D3D@@YIPCKPAVCDevice@1@PCK@Z 005e13f0 f   d3d8d:state.obj
 0003:000035c0       ?CommonSetControl0@D3D@@YIPCKPAVCDevice@1@PCK@Z 005e1680 f   d3d8d:state.obj
 0003:00003640       ?CommonSetAntiAliasingControl@D3D@@YIXPAVCDevice@1@@Z 005e1700 f   d3d8d:state.obj
 0003:000036c0       ?CommonSetOccludeZStencilEn@D3D@@YIPCKPAVCDevice@1@PCK@Z 005e1780 f   d3d8d:state.obj
 0003:00003720       ?CommonSetDebugRegisters@D3D@@YIXXZ 005e17e0 f   d3d8d:state.obj
 0003:00003850       ?CommonSetMultiSampleModeAndScale@D3D@@YIXPAVCDevice@1@PBU_D3DVIEWPORT8@@@Z 005e1910 f   d3d8d:state.obj
 0003:00003c90       _D3DDevice_SetDepthClipPlanes@12 005e1d50 f   d3d8d:state.obj
 0003:00003db0       _D3DDevice_SetRenderState_ZEnable@4 005e1e70 f   d3d8d:state.obj
 0003:00003ec0       _D3DDevice_SetRenderState_StencilEnable@4 005e1f80 f   d3d8d:state.obj
 0003:00003fb0       _D3DDevice_SetRenderState_StencilFail@4 005e2070 f   d3d8d:state.obj
 0003:00004080       _D3DDevice_SetRenderState_YuvEnable@4 005e2140 f   d3d8d:state.obj
 0003:000040f0       _D3DDevice_SetRenderState_OcclusionCullEnable@4 005e21b0 f   d3d8d:state.obj
 0003:000041a0       _D3DDevice_SetRenderState_StencilCullEnable@4 005e2260 f   d3d8d:state.obj
 0003:00004250       _D3DDevice_SetRenderState_RopZCmpAlwaysRead@4 005e2310 f   d3d8d:state.obj
 0003:00004270       _D3DDevice_SetRenderState_RopZRead@4 005e2330 f   d3d8d:state.obj
 0003:00004290       _D3DDevice_SetRenderState_DoNotCullUncompressed@4 005e2350 f   d3d8d:state.obj
 0003:000042b0       _D3DDevice_SetRenderState_MultiSampleMode@4 005e2370 f   d3d8d:state.obj
 0003:00004300       _D3DDevice_SetRenderState_MultiSampleRenderTargetMode@4 005e23c0 f   d3d8d:state.obj
 0003:00004350       _D3DDevice_SetRenderState_MultiSampleAntiAlias@4 005e2410 f   d3d8d:state.obj
 0003:000043d0       _D3DDevice_SetRenderState_MultiSampleMask@4 005e2490 f   d3d8d:state.obj
 0003:00004400       _D3DDevice_SetRenderState_SampleAlpha@4 005e24c0 f   d3d8d:state.obj
 0003:00004430       _D3DDevice_CreateIndexBuffer2@4 005e24f0 f   d3d8d:buffer.obj
 0003:00004480       _D3DIndexBuffer_GetDesc@8  005e2540 f   d3d8d:buffer.obj
 0003:000044c0       _D3DPalette_GetSize@4      005e2580 f   d3d8d:buffer.obj
 0003:00004500       ??0TimingMarker@D3D@@QAE@W4_TimingEventType@@@Z 005e25c0 f i d3d8d:buffer.obj
 0003:00004530       ??1TimingMarker@D3D@@QAE@XZ 005e25f0 f i d3d8d:buffer.obj
 0003:00004540       ?AssertContiguous@D3D@@YGXPAXPAD@Z 005e2600 f i d3d8d:buffer.obj
 0003:00004570       ?AssertPhysical@D3D@@YGXKPAD@Z 005e2630 f i d3d8d:buffer.obj
 0003:000045a0       ?AssertWriteCombined@D3D@@YGXPAXPAD@Z 005e2660 f i d3d8d:buffer.obj
 0003:000045d0       ?GetGPUAddress@D3D@@YGKPAX@Z 005e2690 f i d3d8d:buffer.obj
 0003:00004610       ?GetWriteCombinedAddress@D3D@@YGPAXK@Z 005e26d0 f i d3d8d:buffer.obj
 0003:000047c0       ?GetDataFromResource@D3D@@YGPAEPAUD3DResource@@@Z 005e2880 f i d3d8d:buffer.obj
 0003:00004800       _D3DDevice_CreateVertexBuffer2@4 005e28c0 f   d3d8d:buffer.obj
 0003:00004910       _D3DVertexBuffer_Lock2@8   005e29d0 f   d3d8d:buffer.obj
 0003:000049e0       _D3DVertexBuffer_GetDesc@8 005e2aa0 f   d3d8d:buffer.obj
 0003:00004a30       _D3DDevice_CreatePalette2@4 005e2af0 f   d3d8d:buffer.obj
 0003:00004b70       _D3DPalette_Lock2@8        005e2c30 f   d3d8d:buffer.obj
 0003:00004be0       _D3DDevice_GetDirect3D@4   005e2ca0 f   d3d8d:d3dbase.obj
 0003:00004c00       _D3DDevice_GetDeviceCaps@4 005e2cc0 f   d3d8d:d3dbase.obj
 0003:00004c30       _D3DDevice_GetCreationParameters@4 005e2cf0 f   d3d8d:d3dbase.obj
 0003:00004ca0       _D3DDevice_SetGammaRamp@8  005e2d60 f   d3d8d:d3dbase.obj
 0003:00004d50       _D3DDevice_GetGammaRamp@4  005e2e10 f   d3d8d:d3dbase.obj
 0003:00004d90       ?NV057FormatFromD3DRectColorFormat@D3D@@YGKW4_D3DCOPYRECTCOLORFORMAT@@@Z 005e2e50 f i d3d8d:d3dbase.obj
 0003:00004de0       ?ValidateCopyRectState@D3D@@YGXW4_D3DCOPYRECTCOLORFORMAT@@W4_D3DCOPYRECTOPERATION@@@Z 005e2ea0 f   d3d8d:d3dbase.obj
 0003:00004e90       ?SetupCopyRectRopState@D3D@@YGPCKPCKW4_D3DCOPYRECTCOLORFORMAT@@PBU_D3DCOPYRECTROPSTATE@@@Z 005e2f50 f   d3d8d:d3dbase.obj
 0003:00005000       _D3DDevice_GetCopyRectsState@8 005e30c0 f   d3d8d:d3dbase.obj
 0003:00005060       _D3DDevice_GetTransform@8  005e3120 f   d3d8d:d3dbase.obj
 0003:000050d0       _D3DDevice_GetViewport@4   005e3190 f   d3d8d:d3dbase.obj
 0003:00005140       _D3DDevice_SetMaterial@4   005e3200 f   d3d8d:d3dbase.obj
 0003:000051b0       _D3DDevice_GetMaterial@4   005e3270 f   d3d8d:d3dbase.obj
 0003:00005200       _D3DDevice_SetBackMaterial@4 005e32c0 f   d3d8d:d3dbase.obj
 0003:00005270       _D3DDevice_GetBackMaterial@4 005e3330 f   d3d8d:d3dbase.obj
 0003:000052c0       ?CheckLightParameters@D3D@@YGXPBU_D3DLIGHT8@@@Z 005e3380 f   d3d8d:d3dbase.obj
 0003:000054c0       _D3DDevice_GetLight@8      005e3580 f   d3d8d:d3dbase.obj
 0003:00005560       _D3DDevice_GetLightEnable@8 005e3620 f   d3d8d:d3dbase.obj
 0003:00005600       _D3DDevice_GetRenderState@8 005e36c0 f   d3d8d:d3dbase.obj
 0003:00005670       @D3DDevice_SwitchTexture_Fast@12 005e3730 f   d3d8d:d3dbase.obj
 0003:000056c0       _D3DDevice_GetTextureStageState@12 005e3780 f   d3d8d:d3dbase.obj
 0003:00005720       _D3DDevice_AddRef@0        005e37e0 f   d3d8d:d3dbase.obj
 0003:00005740       _D3DDevice_Release@0       005e3800 f   d3d8d:d3dbase.obj
 0003:00005790       _D3DDevice_KickPushBuffer@0 005e3850 f   d3d8d:d3dbase.obj
 0003:000057b0       _D3DDevice_GetVisibilityTestResult@12 005e3870 f   d3d8d:d3dbase.obj
 0003:000058c0       _D3DDevice_SetVerticalBlankCallback@4 005e3980 f   d3d8d:d3dbase.obj
 0003:000058f0       _D3DDevice_SetSwapCallback@4 005e39b0 f   d3d8d:d3dbase.obj
 0003:00005920       _D3DDevice_GetProjectionViewportMatrix@4 005e39e0 f   d3d8d:d3dbase.obj
 0003:00005960       _D3DDevice_GetModelView@4  005e3a20 f   d3d8d:d3dbase.obj
 0003:000059b0       _D3DDevice_GetVertexBlendModelView@12 005e3a70 f   d3d8d:d3dbase.obj
 0003:00005a50       _D3DDevice_GetTile@8       005e3b10 f   d3d8d:d3dbase.obj
 0003:00005af0       _D3DDevice_GetScissors@12  005e3bb0 f   d3d8d:d3dbase.obj
 0003:00005b70       _D3DDevice_GetPersistedSurface2@0 005e3c30 f   d3d8d:d3dbase.obj
 0003:00005b80       _D3DDevice_SetFlickerFilter@4 005e3c40 f   d3d8d:d3dbase.obj
 0003:00005c00       _D3DDevice_SetSoftDisplayFilter@4 005e3cc0 f   d3d8d:d3dbase.obj
 0003:00005c80       _D3DTest_ChecksumCallback  005e3d40 f   d3d8d:d3dbase.obj
 0003:00005d00       _D3DDevice_InsertFence@0   005e3dc0 f   d3d8d:d3dbase.obj
 0003:00005d20       _D3DDevice_GetScreenSpaceOffset@8 005e3de0 f   d3d8d:d3dbase.obj
 0003:00005d70       _D3DDevice_GetOverscanColor@0 005e3e30 f   d3d8d:d3dbase.obj
 0003:00005d80       _D3DDevice_GetStipple@4    005e3e40 f   d3d8d:d3dbase.obj
 0003:00005dd0       ?Lock@D3DPalette@@QAGJPAPAKK@Z 005e3e90 f i d3d8d:d3dbase.obj
 0003:00005e00       ?Unlock@D3DPalette@@QAGJXZ 005e3ec0 f i d3d8d:d3dbase.obj
 0003:00005e10       ?GetSize@D3DPalette@@QAG?AW4_D3DPALETTESIZE@@XZ 005e3ed0 f i d3d8d:d3dbase.obj
 0003:00005e40       ?GetTSC@CMiniport@D3D@@SG_KXZ 005e3f00 f i d3d8d:d3dbase.obj
 0003:00005e50       ?IsOddField@CMiniport@D3D@@QAEHXZ 005e3f10 f i d3d8d:d3dbase.obj
 0003:00006000       ?IsSwizzledD3DFORMAT@D3D@@YGHW4_D3DFORMAT@@@Z 005e40c0 f i d3d8d:d3dbase.obj
 0003:00006020       ?IsLinearD3DFORMAT@D3D@@YGHW4_D3DFORMAT@@@Z 005e40e0 f i d3d8d:d3dbase.obj
 0003:00006040       ?MinimumTextureSizeOfD3DFORMAT@D3D@@YGKW4_D3DFORMAT@@@Z 005e4100 f i d3d8d:d3dbase.obj
 0003:00006060       ?IsSurface@PixelJar@D3D@@YG_NPAUD3DResource@@@Z 005e4120 f i d3d8d:d3dbase.obj
 0003:00006090       ?IsSwizzled@PixelJar@D3D@@YGHPAUD3DPixelContainer@@@Z 005e4150 f i d3d8d:d3dbase.obj
 0003:000060b0       ?IsValidRenderTarget@PixelJar@D3D@@YGHPAUD3DPixelContainer@@@Z 005e4170 f i d3d8d:d3dbase.obj
 0003:000060e0       ?IsValidDepthBuffer@PixelJar@D3D@@YGHPAUD3DPixelContainer@@@Z 005e41a0 f i d3d8d:d3dbase.obj
 0003:00006100       ?IsCompressed@PixelJar@D3D@@YG_NPAUD3DPixelContainer@@@Z 005e41c0 f i d3d8d:d3dbase.obj
 0003:00006120       ?PitchFromSize@PixelJar@D3D@@YGKK@Z 005e41e0 f i d3d8d:d3dbase.obj
 0003:00006140       ?GetLinearPitch@PixelJar@D3D@@YGKPAUD3DPixelContainer@@@Z 005e4200 f i d3d8d:d3dbase.obj
 0003:00006180       ?GetPitch@PixelJar@D3D@@YGKPAUD3DPixelContainer@@@Z 005e4240 f i d3d8d:d3dbase.obj
 0003:00006210       ?GetSlice@PixelJar@D3D@@YGKPAUD3DPixelContainer@@@Z 005e42d0 f i d3d8d:d3dbase.obj
 0003:000062f0       ?IsChildSurface@D3D@@YGHPAUD3DResource@@@Z 005e43b0 f i d3d8d:d3dbase.obj
 0003:00006330       ?InternalAddRef@D3D@@YGXPAUD3DResource@@W4_D3DRESOURCETYPE@@@Z 005e43f0 f i d3d8d:d3dbase.obj
 0003:000063c0       ?InternalRelease@D3D@@YGXPAUD3DResource@@W4_D3DRESOURCETYPE@@@Z 005e4480 f i d3d8d:d3dbase.obj
 0003:00006460       ?LightEnableType@D3D@@YGKPBULight@1@@Z 005e4520 f i d3d8d:d3dbase.obj
 0003:00006480       ?StartPush@CDevice@D3D@@QAEPCKK@Z 005e4540 f i d3d8d:d3dbase.obj
 0003:00006490       ?RecordResourceReadPush@CDevice@D3D@@QAEXPAUD3DResource@@@Z 005e4550 f i d3d8d:d3dbase.obj
 0003:00006500       ?RecordSurfaceWritePush@CDevice@D3D@@QAEXPAUD3DResource@@@Z 005e45c0 f i d3d8d:d3dbase.obj
 0003:00006560       ?___D3DCYCLETIMER_GetTime@D3D@@YG_KXZ 005e4620 f i d3d8d:d3dbase.obj
 0003:00006570       ??0___D3DCYCLETIMER@D3D@@QAE@W4_D3DPERF_PerformanceCounters@1@@Z 005e4630 f i d3d8d:d3dbase.obj
 0003:000065c0       ??1___D3DCYCLETIMER@D3D@@QAE@XZ 005e4680 f i d3d8d:d3dbase.obj
 0003:00006630       ??0___D3DPERFEVENT@D3D@@QAE@GH@Z 005e46f0 f i d3d8d:d3dbase.obj
 0003:00006660       ??1___D3DPERFEVENT@D3D@@QAE@XZ 005e4720 f i d3d8d:d3dbase.obj
 0003:00006670       _D3DDevice_GetDisplayMode@4 005e4730 f   d3d8d:d3dbase.obj
 0003:00006770       _D3DDevice_Reset@4         005e4830 f   d3d8d:d3dbase.obj
 0003:00006880       _D3DDevice_SetRenderTarget@8 005e4940 f   d3d8d:d3dbase.obj
 0003:000070e0       _D3DDevice_SetRenderTargetFast@12 005e51a0 f   d3d8d:d3dbase.obj
 0003:00007800       _D3DDevice_GetBackBuffer2@4 005e58c0 f   d3d8d:d3dbase.obj
 0003:00007890       _D3DDevice_GetRasterStatus@4 005e5950 f   d3d8d:d3dbase.obj
 0003:00007930       _D3DDevice_SetCopyRectsState@8 005e59f0 f   d3d8d:d3dbase.obj
 0003:00007c20       ?GPUCopyVideoRectangle@D3D@@YGXKPAUtagRECT@@PAUtagPOINT@@@Z 005e5ce0 f i d3d8d:d3dbase.obj
 0003:00007d00       _D3DDevice_CopyRects@20    005e5dc0 f   d3d8d:d3dbase.obj
 0003:00008550       _D3DDevice_GetRenderTarget2@0 005e6610 f   d3d8d:d3dbase.obj
 0003:00008580       _D3DDevice_GetDepthStencilSurface2@0 005e6640 f   d3d8d:d3dbase.obj
 0003:000085c0       _D3DDevice_SetTransform@8  005e6680 f   d3d8d:d3dbase.obj
 0003:00008900       _D3DDevice_MultiplyTransform@8 005e69c0 f   d3d8d:d3dbase.obj
 0003:000089b0       _D3DDevice_SetViewport@4   005e6a70 f   d3d8d:d3dbase.obj
 0003:00008cb0       _D3DDevice_SetLight@8      005e6d70 f   d3d8d:d3dbase.obj
 0003:00009070       _D3DDevice_LightEnable@8   005e7130 f   d3d8d:d3dbase.obj
 0003:00009290       _D3DDevice_GetTexture2@4   005e7350 f   d3d8d:d3dbase.obj
 0003:000092f0       _D3DDevice_SetTexture@8    005e73b0 f   d3d8d:d3dbase.obj
 0003:00009730       @D3DDevice_SwitchTexture@12 005e77f0 f   d3d8d:d3dbase.obj
 0003:00009810       _D3DDevice_GetPalette2@4   005e78d0 f   d3d8d:d3dbase.obj
 0003:00009870       _D3DDevice_SetPalette@8    005e7930 f   d3d8d:d3dbase.obj
 0003:00009b00       _D3DDevice_SetIndices@8    005e7bc0 f   d3d8d:d3dbase.obj
 0003:00009cb0       _D3DDevice_GetIndices2@4   005e7d70 f   d3d8d:d3dbase.obj
 0003:00009d10       _D3DDevice_IsBusy@0        005e7dd0 f   d3d8d:d3dbase.obj
 0003:00009d60       _D3DDevice_BlockUntilIdle@0 005e7e20 f   d3d8d:d3dbase.obj
 0003:00009d90       _D3DDevice_BlockOnFence@4  005e7e50 f   d3d8d:d3dbase.obj
 0003:00009de0       _D3DDevice_BeginVisibilityTest@0 005e7ea0 f   d3d8d:d3dbase.obj
 0003:00009e40       ?GetVisibilityAddress@D3D@@YGPAKK@Z 005e7f00 f   d3d8d:d3dbase.obj
 0003:00009fc0       _D3DDevice_EndVisibilityTest@4 005e8080 f   d3d8d:d3dbase.obj
 0003:0000a080       _D3DDevice_GetDisplayFieldStatus@4 005e8140 f   d3d8d:d3dbase.obj
 0003:0000a0e0       _D3DDevice_SetTimerCallback@16 005e81a0 f   d3d8d:d3dbase.obj
 0003:0000a190       _D3DDevice_BlockUntilVerticalBlank@0 005e8250 f   d3d8d:d3dbase.obj
 0003:0000a2d0       _D3DDevice_FlushVertexCache@0 005e8390 f   d3d8d:d3dbase.obj
 0003:0000a330       _D3DDevice_SetModelView@12 005e83f0 f   d3d8d:d3dbase.obj
 0003:0000a4a0       _D3DDevice_SetVertexBlendModelView@16 005e8560 f   d3d8d:d3dbase.obj
 0003:0000a680       _D3DDevice_Nop@0           005e8740 f   d3d8d:d3dbase.obj
 0003:0000a6e0       ?SetTileNoWait@D3D@@YGXKPBU_D3DTILE@@@Z 005e87a0 f   d3d8d:d3dbase.obj
 0003:0000aa70       _D3DDevice_SetTile@8       005e8b30 f   d3d8d:d3dbase.obj
 0003:0000aa90       _D3DDevice_SetTileCompressionTagBits@16 005e8b50 f   d3d8d:d3dbase.obj
 0003:0000abd0       _D3DDevice_GetTileCompressionTagBits@16 005e8c90 f   d3d8d:d3dbase.obj
 0003:0000ad00       _D3DDevice_GetTileCompressionTags@8 005e8dc0 f   d3d8d:d3dbase.obj
 0003:0000aed0       _D3DDevice_SetScissors@12  005e8f90 f   d3d8d:d3dbase.obj
 0003:0000b490       ?CreateSurfaceWithContiguousHeaderInternal@D3D@@YGPAUD3DSurface@@KKW4_D3DFORMAT@@@Z 005e9550 f   d3d8d:d3dbase.obj
 0003:0000b560       _D3DDevice_PersistDisplay@0 005e9620 f   d3d8d:d3dbase.obj
 0003:0000b700       _D3DTest_GetScreenChecksum@12 005e97c0 f   d3d8d:d3dbase.obj
 0003:0000b760       _D3DDevice_SetScreenSpaceOffset@8 005e9820 f   d3d8d:d3dbase.obj
 0003:0000b7f0       _D3DDevice_SetOverscanColor@4 005e98b0 f   d3d8d:d3dbase.obj
 0003:0000b960       _D3DDevice_SetStipple@4    005e9a20 f   d3d8d:d3dbase.obj
 0003:0000ba10       ?D3DInternals@D3D@@YAJKPAX@Z 005e9ad0 f   d3d8d:d3dbase.obj
 0003:0000bd00       ?MemAlloc@D3D@@YGPAXK@Z    005e9dc0 f   d3d8d:memory.obj
 0003:0000bd40       ?MemAllocNoZero@D3D@@YGPAXK@Z 005e9e00 f   d3d8d:memory.obj
 0003:0000bd80       ?MemFree@D3D@@YGXPAX@Z     005e9e40 f   d3d8d:memory.obj
 0003:0000be20       _D3D_AllocNoncontiguousMemory@4 005e9ee0 f   d3d8d:memory.obj
 0003:0000be60       _D3D_FreeNoncontiguousMemory@4 005e9f20 f   d3d8d:memory.obj
 0003:0000be70       ?DevkitMemAlloc@D3D@@YGPAXKK@Z 005e9f30 f   d3d8d:memory.obj
 0003:0000bea0       ?DevkitMemFree@D3D@@YGKPAXK@Z 005e9f60 f   d3d8d:memory.obj
 0003:0000c0a0       _D3D_AllocContiguousMemory@8 005ea160 f   d3d8d:memory.obj
 0003:0000c220       _D3D_FreeContiguousMemory@4 005ea2e0 f   d3d8d:memory.obj
 0003:0000c290       ?CleanPrivateData@D3D@@YGXPAX@Z 005ea350 f   d3d8d:resource.obj
 0003:0000c2f0       _IsEqualGUID@8             005ea3b0 f i d3d8d:resource.obj
 0003:0000c320       _==@8                      005ea3e0 f i d3d8d:resource.obj
 0003:0000c350       ?ExceptionFilter@D3D@@YGJXZ 005ea410 f   d3d8d:resource.obj
 0003:0000c370       ?AddRef@D3DDevice@@SGKXZ   005ea430 f i d3d8d:resource.obj
 0003:0000c380       ?AssertCached@D3D@@YGXPAXPAD@Z 005ea440 f i d3d8d:resource.obj
 0003:0000c410       ?IsValidD3DFORMAT@D3D@@YGHW4_D3DFORMAT@@@Z 005ea4d0 f i d3d8d:resource.obj
 0003:0000c440       ?CalcPitch@D3D@@YGKKK@Z    005ea500 f i d3d8d:resource.obj
 0003:0000c460       ?GetParent@PixelJar@D3D@@YGPAUD3DBaseTexture@@PAUD3DResource@@@Z 005ea520 f i d3d8d:resource.obj
 0003:0000c490       ?GpuTime@CDevice@D3D@@QAEKXZ 005ea550 f i d3d8d:resource.obj
 0003:0000c4a0       ?Age@CDevice@D3D@@QAEKK@Z  005ea560 f i d3d8d:resource.obj
 0003:0000c4b0       ?IsTimePending@CDevice@D3D@@QAEHK@Z 005ea570 f i d3d8d:resource.obj
 0003:0000c4e0       ?FindPrivateData@D3D@@YGPAUPrivateDataNode@1@PAXABU_GUID@@@Z 005ea5a0 f   d3d8d:resource.obj
 0003:0000c530       ?DestroyResource@D3D@@YGXPAUD3DResource@@@Z 005ea5f0 f   d3d8d:resource.obj
 0003:0000c660       ?VALIDATE_RESOURCE@D3D@@YGXPAUD3DResource@@W4_D3DRESOURCETYPE@@H@Z 005ea720 f   d3d8d:resource.obj
 0003:0000c9c0       ?IsResourceSetInDevice@D3D@@YGHPAUD3DResource@@@Z 005eaa80 f   d3d8d:resource.obj
 0003:0000ca20       ?InternalAddRefSurface@D3D@@YGXPAUD3DResource@@@Z 005eaae0 f   d3d8d:resource.obj
 0003:0000cb40       ?InternalReleaseSurface@D3D@@YGXPAUD3DResource@@@Z 005eac00 f   d3d8d:resource.obj
 0003:0000cc80       _D3DResource_AddRef@4      005ead40 f   d3d8d:resource.obj
 0003:0000cd10       _D3DResource_Release@4     005eadd0 f   d3d8d:resource.obj
 0003:0000cdc0       _D3DResource_GetType@4     005eae80 f   d3d8d:resource.obj
 0003:0000cee0       _D3DResource_IsBusy@4      005eafa0 f   d3d8d:resource.obj
 0003:0000cfb0       _D3DResource_GetDevice@8   005eb070 f   d3d8d:resource.obj
 0003:0000cff0       _D3DResource_Register@8    005eb0b0 f   d3d8d:resource.obj
 0003:0000d100       _D3DResource_BlockUntilNotBusy@4 005eb1c0 f   d3d8d:resource.obj
 0003:0000d130       _D3DResource_SetPrivateData@20 005eb1f0 f   d3d8d:resource.obj
 0003:0000d2d0       _D3DResource_GetPrivateData@16 005eb390 f   d3d8d:resource.obj
 0003:0000d390       _D3DResource_FreePrivateData@8 005eb450 f   d3d8d:resource.obj
 0003:0000d430       ?FastCopyToWC@D3D@@YGXPCKPAKK@Z 005eb4f0 f   d3d8d:drawprim.obj
 0003:0000d4f0       ?MMXMemCpyDwordBlock@D3D@@YGXPBX0K@Z 005eb5b0 f i d3d8d:drawprim.obj
 0003:0000d6d0       ?StartBracket@CDevice@D3D@@QAEXXZ 005eb790 f i d3d8d:drawprim.obj
 0003:0000d710       ?EndBracket@CDevice@D3D@@QAEXXZ 005eb7d0 f i d3d8d:drawprim.obj
 0003:0000d7b0       ?COUNT_ADD_PERF@D3D@@YGXW4_D3DPERF_PerformanceCounters@1@K@Z 005eb870 f i d3d8d:drawprim.obj
 0003:0000d800       _D3DDevice_DrawVerticesUP@16 005eb8c0 f   d3d8d:drawprim.obj
 0003:0000dc90       _D3DDevice_DrawIndexedVerticesUP@20 005ebd50 f   d3d8d:drawprim.obj
 0003:0000e0f0       _D3DDevice_DrawVertices@12 005ec1b0 f   d3d8d:drawprim.obj
 0003:0000e3c0       _D3DDevice_DrawIndexedVertices@12 005ec480 f   d3d8d:drawprim.obj
 0003:0000e980       _D3DDevice_PrimeVertexCache@8 005eca40 f   d3d8d:drawprim.obj
 0003:0000eae0       _D3DDevice_SetVertexData2f@12 005ecba0 f   d3d8d:drawprim.obj
 0003:0000eb70       _D3DDevice_SetVertexData4f@20 005ecc30 f   d3d8d:drawprim.obj
 0003:0000ec80       _D3DDevice_SetVertexData2s@12 005ecd40 f   d3d8d:drawprim.obj
 0003:0000ed20       _D3DDevice_SetVertexData4s@20 005ecde0 f   d3d8d:drawprim.obj
 0003:0000edd0       _D3DDevice_SetVertexData4ub@20 005ece90 f   d3d8d:drawprim.obj
 0003:0000ee80       _D3DDevice_SetVertexDataColor@8 005ecf40 f   d3d8d:drawprim.obj
 0003:0000ef30       _D3DDevice_Begin@4         005ecff0 f   d3d8d:drawprim.obj
 0003:0000f060       _D3DDevice_End@0           005ed120 f   d3d8d:drawprim.obj
 0003:0000f1b0       ?InitializeVertexShaderFromFvf@D3D@@YGXPAUVertexShader@1@K@Z 005ed270 f   d3d8d:vshader.obj
 0003:0000f390       ?ValidateFVF@D3D@@YGXK@Z   005ed450 f   d3d8d:vshader.obj
 0003:0000f440       ?ShadowVertexShaderState@D3D@@YGXPAUVertexShader@1@K@Z 005ed500 f   d3d8d:vshader.obj
 0003:0000f6a0       ?ParseProgram@D3D@@YGPCKPCKPBKK@Z 005ed760 f   d3d8d:vshader.obj
 0003:0000f730       _D3DDevice_GetShaderConstantMode@4 005ed7f0 f   d3d8d:vshader.obj
 0003:0000f790       ?ParseDeclarationStream@D3D@@YGXPAUVertexShader@1@PBKH@Z 005ed850 f   d3d8d:vshader.obj
 0003:0000faf0       ?ParseDeclarationConstants@D3D@@YGKPBKPCK@Z 005edbb0 f   d3d8d:vshader.obj
 0003:0000fcd0       _D3DDevice_CreateVertexShader@16 005edd90 f   d3d8d:vshader.obj
 0003:0000ffa0       _D3DDevice_GetVertexShader@4 005ee060 f   d3d8d:vshader.obj
 0003:0000ffe0       ?SetVertexShaderConstant_ParameterCheck@D3D@@YIXHPBXK@Z 005ee0a0 f   d3d8d:vshader.obj
 0003:000100e0       @D3DDevice_SetVertexShaderConstant1@8 005ee1a0 f   d3d8d:vshader.obj
 0003:00010170       @D3DDevice_SetVertexShaderConstant1Fast@8 005ee230 f   d3d8d:vshader.obj
 0003:000101e0       @D3DDevice_SetVertexShaderConstant4@8 005ee2a0 f   d3d8d:vshader.obj
 0003:000102c0       @D3DDevice_SetVertexShaderConstantNotInlineFast@12 005ee380 f   d3d8d:vshader.obj
 0003:000103e0       @D3DDevice_SetVertexShaderConstantNotInline@12 005ee4a0 f   d3d8d:vshader.obj
 0003:00010440       _D3DDevice_GetVertexShaderConstant@12 005ee500 f   d3d8d:vshader.obj
 0003:00010550       _D3DDevice_GetVertexShaderInput@12 005ee610 f   d3d8d:vshader.obj
 0003:000105e0       ?CheckVertexAttributeFormatStruct@D3D@@YGXPAU_D3DVERTEXATTRIBUTEFORMAT@@@Z 005ee6a0 f   d3d8d:vshader.obj
 0003:00010800       _D3DDevice_SetStreamSource@12 005ee8c0 f   d3d8d:vshader.obj
 0003:00010a60       _D3DDevice_GetStreamSource2@8 005eeb20 f   d3d8d:vshader.obj
 0003:00010ae0       _D3DDevice_RunVertexStateShader@8 005eeba0 f   d3d8d:vshader.obj
 0003:00010bd0       _D3DDevice_LoadVertexShader@8 005eec90 f   d3d8d:vshader.obj
 0003:00010d00       _D3DDevice_LoadVertexShaderProgram@8 005eedc0 f   d3d8d:vshader.obj
 0003:00010e40       _D3DDevice_SelectVertexShaderDirect@8 005eef00 f   d3d8d:vshader.obj
 0003:00010ea0       _D3DDevice_SelectVertexShader@8 005eef60 f   d3d8d:vshader.obj
 0003:00011070       _D3DDevice_GetVertexShaderSize@8 005ef130 f   d3d8d:vshader.obj
 0003:000110d0       _D3DDevice_GetVertexShaderType@8 005ef190 f   d3d8d:vshader.obj
 0003:00011150       _D3DDevice_SetShaderConstantMode@4 005ef210 f   d3d8d:vshader.obj
 0003:00011310       ?RestoreVertexShaders@D3D@@YGXPBKK@Z 005ef3d0 f   d3d8d:vshader.obj
 0003:000113b0       _D3DDevice_DeleteVertexShader@4 005ef470 f   d3d8d:vshader.obj
 0003:00011450       ?CommonSetPassthroughProgram@D3D@@YIXPAVCDevice@1@@Z 005ef510 f   d3d8d:vshader.obj
 0003:000115c0       _D3DDevice_SetVertexShader@4 005ef680 f   d3d8d:vshader.obj
 0003:000118a0       _D3DDevice_GetVertexShaderDeclaration@12 005ef960 f   d3d8d:vshader.obj
 0003:00011dc0       _D3DDevice_GetVertexShaderFunction@12 005efe80 f   d3d8d:vshader.obj
 0003:00011f40       _D3DDevice_SetVertexShaderInputDirect@12 005f0000 f   d3d8d:vshader.obj
 0003:00011fb0       _D3DDevice_SetVertexShaderInput@12 005f0070 f   d3d8d:vshader.obj
 0003:00012540       _D3DDevice_Clear@24        005f0600 f   d3d8d:clear.obj
 0003:00013120       _D3DDevice_GetBackBufferScale@8 005f11e0 f   d3d8d:present.obj
 0003:00013160       ?SetDebugMarker@D3DDevice@@SGKK@Z 005f1220 f i d3d8d:present.obj
 0003:00013e40       _D3DDevice_Swap@4          005f1f00 f   d3d8d:present.obj
 0003:00014050       _D3DDevice_SetBackBufferScale@8 005f2110 f   d3d8d:present.obj
 0003:00014320       ?GPUScale@D3D@@YGXPAUD3DSurface@@0M@Z 005f23e0 f   d3d8d:present.obj
 0003:00014400       ?InitSurfaceHeader@D3D@@YGXIIW4_D3DFORMAT@@PAUD3DSurface@@II@Z 005f24c0 f   d3d8d:shadersnapshot.obj
 0003:00014460       ?HandleShaderSnapshotPreSwap@D3D@@YGXXZ 005f2520 f   d3d8d:shadersnapshot.obj
 0003:00014580       _D3DPERF_QueryRepeatFrame@0 005f2640 f   d3d8d:shadersnapshot.obj
 0003:000145c0       ?WriteCapture@DebugSnapshot@D3D@@QAEXK@Z 005f2680 f   d3d8d:shadersnapshot.obj
 0003:00014600       ?GetVertexInputsAndOutputs@D3D@@YGXPAUvtxreg@1@PAUvtxio@1@1@Z 005f26c0 f   d3d8d:shadersnapshot.obj
 0003:00014860       ?WriteVTXREG@D3D@@YGXPAUvtxreg@1@0PAKPAE1@Z 005f2920 f   d3d8d:shadersnapshot.obj
 0003:00014920       ?DrawVertices@D3DDevice@@SGJW4_D3DPRIMITIVETYPE@@II@Z 005f29e0 f i d3d8d:shadersnapshot.obj
 0003:00014940       ?DrawIndexedVertices@D3DDevice@@SGJW4_D3DPRIMITIVETYPE@@IPBG@Z 005f2a00 f i d3d8d:shadersnapshot.obj
 0003:00014960       ?DrawIndexedVerticesUP@D3DDevice@@SGJW4_D3DPRIMITIVETYPE@@IPBX1I@Z 005f2a20 f i d3d8d:shadersnapshot.obj
 0003:00014990       ?LoadVertexShaderProgram@D3DDevice@@SGJPBKK@Z 005f2a50 f i d3d8d:shadersnapshot.obj
 0003:000149b0       ?SetVertexShaderConstant@D3DDevice@@SGJHPBXK@Z 005f2a70 f i d3d8d:shadersnapshot.obj
 0003:00014a00       ?SetPixelShaderProgram@D3DDevice@@SGJPBU_D3DPixelShaderDef@@@Z 005f2ac0 f i d3d8d:shadersnapshot.obj
 0003:00014a20       ?GetPixelShader@D3DDevice@@SGJPAK@Z 005f2ae0 f i d3d8d:shadersnapshot.obj
 0003:00014a40       ?BlockUntilIdle@D3DDevice@@SGXXZ 005f2b00 f i d3d8d:shadersnapshot.obj
 0003:00014a50       ?SetScissors@D3DDevice@@SGJKHPBU_D3DRECT@@@Z 005f2b10 f i d3d8d:shadersnapshot.obj
 0003:00014a70       ?GetScissors@D3DDevice@@SGJPAKPAHPAU_D3DRECT@@@Z 005f2b30 f i d3d8d:shadersnapshot.obj
 0003:00014a90       ?HandleShaderSnapshot_Clear@D3D@@YGXKPBU_D3DRECT@@KKMK@Z 005f2b50 f   d3d8d:shadersnapshot.obj
 0003:00014b40       ?BeginVSSnapshot@DebugSnapshot@D3D@@QAEXPAK@Z 005f2c00 f   d3d8d:shadersnapshot.obj
 0003:00014c30       ?EndVSSnapshot@DebugSnapshot@D3D@@QAEXXZ 005f2cf0 f   d3d8d:shadersnapshot.obj
 0003:00014ca0       ?HandleVisTestResult@D3D@@YGXPAI@Z 005f2d60 f   d3d8d:shadersnapshot.obj
 0003:00014cf0       _D3DDevice_SetDebugMarker@4 005f2db0 f   d3d8d:shadersnapshot.obj
 0003:00014d20       _D3DDevice_GetDebugMarker@0 005f2de0 f   d3d8d:shadersnapshot.obj
 0003:00014f50       ?HandleMovieFrameIdle@D3D@@YGXXZ 005f3010 f   d3d8d:shadersnapshot.obj
 0003:000153b0       ?WriteColor24@DebugSnapshot@D3D@@QAEXK@Z 005f3470 f   d3d8d:shadersnapshot.obj
 0003:000154c0       ?RestoreUserState@DebugSnapshot@D3D@@QAEXH@Z 005f3580 f   d3d8d:shadersnapshot.obj
 0003:000155b0       ?SaveUserState@DebugSnapshot@D3D@@QAEXXZ 005f3670 f   d3d8d:shadersnapshot.obj
 0003:00015620       ?SetPassThroughState@DebugSnapshot@D3D@@QAEXXZ 005f36e0 f   d3d8d:shadersnapshot.obj
 0003:00015780       ?BeginPSSnapshot@DebugSnapshot@D3D@@QAEXPAK@Z 005f3840 f   d3d8d:shadersnapshot.obj
 0003:00015df0       ?GetColorAndDepth@DebugSnapshot@D3D@@QAEXPAK0@Z 005f3eb0 f   d3d8d:shadersnapshot.obj
 0003:00015f30       ?SetColorAndDepth@DebugSnapshot@D3D@@QAEXKK@Z 005f3ff0 f   d3d8d:shadersnapshot.obj
 0003:00016060       ?DumpImage@DebugSnapshot@D3D@@QAEXXZ 005f4120 f   d3d8d:shadersnapshot.obj
 0003:00016200       ?EndPSSnapshot@DebugSnapshot@D3D@@QAEXXZ 005f42c0 f   d3d8d:shadersnapshot.obj
 0003:00016320       ?DrawVertices@DebugSnapshot@D3D@@QAEJXZ 005f43e0 f   d3d8d:shadersnapshot.obj
 0003:00016470       ?ReplaceInstWithMoveTemp@D3D@@YGXHH@Z 005f4530 f   d3d8d:shadersnapshot.obj
 0003:000164d0       ?GetConstant0@D3D@@YGXPAUvtxreg@1@@Z 005f4590 f   d3d8d:shadersnapshot.obj
 0003:00016500       ?ReplaceInst@D3D@@YGXHPAUvtxreg@1@@Z 005f45c0 f   d3d8d:shadersnapshot.obj
 0003:00016550       ?SetConstant@D3D@@YGXHPAUvtxreg@1@@Z 005f4610 f   d3d8d:shadersnapshot.obj
 0003:000165c0       ?DumpVtxInstruction@DebugSnapshot@D3D@@AAEXHPAUvtxreg@2@00PAKPAE1@Z 005f4680 f   d3d8d:shadersnapshot.obj
 0003:00016f50       ?HandleVSDrawVertices@DebugSnapshot@D3D@@QAEJXZ 005f5010 f   d3d8d:shadersnapshot.obj
 0003:00017620       ?HandleXRDrawVertices@DebugSnapshot@D3D@@QAEJXZ 005f56e0 f   d3d8d:shadersnapshot.obj
 0003:00017950       ?GetRegister@DebugSnapshot@D3D@@QAEXKI@Z 005f5a10 f   d3d8d:shadersnapshot.obj
 0003:00017ec0       ?HandleShaderSnapshotOpcode@D3D@@YGXXZ 005f5f80 f   d3d8d:shadersnapshot.obj
 0003:00018ca0       ?GetStageData@DebugSnapshot@D3D@@QAEXI@Z 005f6d60 f   d3d8d:shadersnapshot.obj
 0003:00018df0       ?HandlePSDrawVertices@DebugSnapshot@D3D@@QAEJXZ 005f6eb0 f   d3d8d:shadersnapshot.obj
 0003:00019e70       ?HandleDrawVertices@DebugSnapshot@D3D@@QAEJXZ 005f7f30 f   d3d8d:shadersnapshot.obj
 0003:00019ed0       ?HandleShaderSnapshot_DrawVerticesUP@D3D@@YGXW4_D3DPRIMITIVETYPE@@IPBXI@Z 005f7f90 f   d3d8d:shadersnapshot.obj
 0003:00019f80       ?HandleShaderSnapshot_DrawIndexedVerticesUP@D3D@@YGXW4_D3DPRIMITIVETYPE@@IPBX1I@Z 005f8040 f   d3d8d:shadersnapshot.obj
 0003:0001a040       ?HandleShaderSnapshot_DrawVertices@D3D@@YGXW4_D3DPRIMITIVETYPE@@II@Z 005f8100 f   d3d8d:shadersnapshot.obj
 0003:0001a0e0       ?HandleShaderSnapshot_DrawIndexedVertices@D3D@@YGXW4_D3DPRIMITIVETYPE@@IPBG@Z 005f81a0 f   d3d8d:shadersnapshot.obj
 0003:0001a180       ?ValidCombinerInputs@D3D@@YGHKPAD@Z 005f8240 f   d3d8d:pshader.obj
 0003:0001a240       ?ValidAlphaOutputs@D3D@@YGHKPAD@Z 005f8300 f   d3d8d:pshader.obj
 0003:0001a330       ?ValidRGBOutputs@D3D@@YGHKPAD@Z 005f83f0 f   d3d8d:pshader.obj
 0003:0001a400       ?ValidFinalCombinerABCD@D3D@@YGHKPAD@Z 005f84c0 f   d3d8d:pshader.obj
 0003:0001a650       ?ValidFinalCombinerEFG@D3D@@YGHKPAD@Z 005f8710 f   d3d8d:pshader.obj
 0003:0001a770       ?ValidTextureModes@D3D@@YGHKPAD@Z 005f8830 f   d3d8d:pshader.obj
 0003:0001aa50       ?ValidInputTexture@D3D@@YGHKPAD@Z 005f8b10 f   d3d8d:pshader.obj
 0003:0001ab20       ?ValidCombinerCount@D3D@@YGHKPAD@Z 005f8be0 f   d3d8d:pshader.obj
 0003:0001abf0       ?ValidCompareMode@D3D@@YGHKPAD@Z 005f8cb0 f   d3d8d:pshader.obj
 0003:0001ac40       ?ValidDotMapping@D3D@@YGHKPAD@Z 005f8d00 f   d3d8d:pshader.obj
 0003:0001ad20       ?ValidFinalCombinerConstants@D3D@@YGHKPAD@Z 005f8de0 f   d3d8d:pshader.obj
 0003:0001ad70       _D3DDevice_CreatePixelShader@8 005f8e30 f   d3d8d:pshader.obj
 0003:0001b270       _D3DDevice_DeletePixelShader@4 005f9330 f   d3d8d:pshader.obj
 0003:0001b310       _D3DDevice_SetPixelShaderProgram@4 005f93d0 f   d3d8d:pshader.obj
 0003:0001b820       _D3DDevice_GetPixelShader@4 005f98e0 f   d3d8d:pshader.obj
 0003:0001b880       _D3DDevice_GetPixelShaderConstant@12 005f9940 f   d3d8d:pshader.obj
 0003:0001bcd0       _D3DDevice_GetPixelShaderFunction@8 005f9d90 f   d3d8d:pshader.obj
 0003:0001bd70       _D3DDevice_SetPixelShader@4 005f9e30 f   d3d8d:pshader.obj
 0003:0001c0c0       _D3DDevice_SetPixelShaderConstant@12 005fa180 f   d3d8d:pshader.obj
 0003:0001c560       _D3DTexture_GetLevelDesc@12 005fa620 f   d3d8d:texture.obj
 0003:0001c5a0       _D3DCubeTexture_GetLevelDesc@12 005fa660 f   d3d8d:texture.obj
 0003:0001c5e0       _D3DCubeTexture_LockRect@24 005fa6a0 f   d3d8d:texture.obj
 0003:0001c630       _D3DVolumeTexture_GetLevelDesc@12 005fa6f0 f   d3d8d:texture.obj
 0003:0001c670       _D3DVolumeTexture_LockBox@20 005fa730 f   d3d8d:texture.obj
 0003:0001c820       ?GetMipmapLevelCount@PixelJar@D3D@@YGKPAUD3DPixelContainer@@@Z 005fa8e0 f i d3d8d:texture.obj
 0003:0001c840       _D3DDevice_CreateTexture2@28 005fa900 f   d3d8d:texture.obj
 0003:0001ca00       _D3DBaseTexture_GetLevelCount@4 005faac0 f   d3d8d:texture.obj
 0003:0001ca40       _D3DTexture_GetSurfaceLevel2@8 005fab00 f   d3d8d:texture.obj
 0003:0001cae0       _D3DTexture_LockRect@20    005faba0 f   d3d8d:texture.obj
 0003:0001cb40       _D3DCubeTexture_GetCubeMapSurface2@12 005fac00 f   d3d8d:texture.obj
 0003:0001cbe0       _D3DVolumeTexture_GetVolumeLevel2@8 005faca0 f   d3d8d:texture.obj
 0003:0001cc70       _D3DSurface_GetDesc@8      005fad30 f   d3d8d:surface.obj
 0003:0001ccb0       _D3DVolume_GetDesc@8       005fad70 f   d3d8d:surface.obj
 0003:0001ccf0       _D3DVolume_LockBox@16      005fadb0 f   d3d8d:surface.obj
 0003:0001cea0       ?CreateSurfaceOfTexture@D3D@@YGPAUD3DSurface@@KKPAUD3DBaseTexture@@PAX@Z 005faf60 f   d3d8d:surface.obj
 0003:0001cf30       ?InitializeSurface@D3D@@YGXPAUD3DSurface@@KKPAX@Z 005faff0 f   d3d8d:surface.obj
 0003:0001cfa0       _D3DDevice_CreateSurface2@16 005fb060 f   d3d8d:surface.obj
 0003:0001d180       ?CreateSurfaceWithContiguousHeader@D3D@@YGPAUD3DSurface@@KKW4_D3DFORMAT@@@Z 005fb240 f   d3d8d:surface.obj
 0003:0001d240       _D3DSurface_GetContainer2@4 005fb300 f   d3d8d:surface.obj
 0003:0001d280       _D3DSurface_LockRect@16    005fb340 f   d3d8d:surface.obj
 0003:0001d2e0       ?CreateVolumeOfTexture@D3D@@YGPAUD3DVolume@@KPAUD3DBaseTexture@@PAX@Z 005fb3a0 f   d3d8d:surface.obj
 0003:0001d370       _D3DVolume_GetContainer2@4 005fb430 f   d3d8d:surface.obj
 0003:0001d3b0       ?DBGPRINT@D3D@@YAXPADZZ    005fb470 f   d3d8d:debug.obj
 0003:0001d400       ?WARNING@D3D@@YAXPADZZ     005fb4c0 f   d3d8d:debug.obj
 0003:0001d450       ?DXGRIP@D3D@@YAXPADZZ      005fb510 f   d3d8d:debug.obj
 0003:0001d4a0       ?ASSERTMSG@D3D@@YAXHPADZZ  005fb560 f   d3d8d:debug.obj
 0003:0001d500       ??0PERFFIXEDPOINT@D3D@@QAE@_KK@Z 005fb5c0 f i d3d8d:stats.obj
 0003:0001d540       _D3DPERF_GetPushBufferBytesWritten@0 005fb600 f   d3d8d:stats.obj
 0003:0001d620       _D3DPERF_GetPushBufferInfo@4 005fb6e0 f   d3d8d:stats.obj
 0003:0001d680       _D3DPERF_GetStatistics@0   005fb740 f   d3d8d:stats.obj
 0003:0001d690       _D3DPERF_GetNames@0        005fb750 f   d3d8d:stats.obj
 0003:0001d6d0       ?SpewPerfEvent@D3D@@YGXPAU_D3DPERFEvent@1@PA_K1@Z 005fb790 f   d3d8d:stats.obj
 0003:0001d950       _D3DPERF_DumpPerfEvents@0  005fba10 f   d3d8d:stats.obj
 0003:0001da90       _D3DPERF_DumpPerfProfCounts@0 005fbb50 f   d3d8d:stats.obj
 0003:0001db10       _PerfGetPushBufferDistance@8 005fbbd0 f   d3d8d:stats.obj
 0003:0001db70       _D3DPERF_GetRegisterBase@0 005fbc30 f   d3d8d:stats.obj
 0003:0001db80       _D3DPERF_InitializePushBufferAnalyzer@4 005fbc40 f   d3d8d:stats.obj
 0003:0001dbc0       _D3DPERF_StartCountingPerfEvent@4 005fbc80 f i d3d8d:stats.obj
 0003:0001dc80       ?MilliSecsFromCycles@D3D@@YGK_K@Z 005fbd40 f i d3d8d:stats.obj
 0003:0001dcd0       _D3DPERF_DumpCounterCycleInfo@12 005fbd90 f   d3d8d:stats.obj
 0003:0001dd30       _D3DPERF_DumpFrameRateInfo@0 005fbdf0 f   d3d8d:stats.obj
 0003:0001e200       ?PerfEventCallbackStart@D3D@@YAXK@Z 005fc2c0 f   d3d8d:stats.obj
 0003:0001e220       ?PerfEventCallbackTime@D3D@@YAXK@Z 005fc2e0 f   d3d8d:stats.obj
 0003:0001e250       _D3DPERF_PerfEventEnd@8    005fc310 f   d3d8d:stats.obj
 0003:0001e2d0       _D3DPERF_PerfEventStart@8  005fc390 f   d3d8d:stats.obj
 0003:0001e430       _D3DPERF_Dump@0            005fc4f0 f   d3d8d:stats.obj
 0003:0001e610       _D3DPERF_SetState@8        005fc6d0 f   d3d8d:stats.obj
 0003:0001e6c0       _D3DPERF_StartPerfProfile@0 005fc780 f   d3d8d:stats.obj
 0003:0001e770       _D3DPERF_StopPerfProfile@0 005fc830 f   d3d8d:stats.obj
 0003:0001e7b0       _D3DPERF_Reset@0           005fc870 f   d3d8d:stats.obj
 0003:0001e9c0       _D3DPERF_HandlePresent@0   005fca80 f   d3d8d:stats.obj
 0003:0001eaae       ?GetPresentFlagsFromAvInfo@CMiniport@D3D@@SGKK@Z 005fcb6e f   d3d8d:mpmode.obj
 0003:0001eb01       ?GetDisplayCapabilities@CMiniport@D3D@@SGKXZ 005fcbc1 f   d3d8d:mpmode.obj
 0003:0001eb27       ?GetTableForCurrentAvInfo@D3D@@YGPBUDISPLAYMODE@1@XZ 005fcbe7 f   d3d8d:mpmode.obj
 0003:0001ec1d       ?SetVideoMode@CMiniport@D3D@@QAEJKKKKW4_D3DFORMAT@@KK@Z 005fccdd f   d3d8d:mpmode.obj
 0003:0001ef50       ?PresentationParametersParameterCheck@D3D@@YGJPAU_D3DPRESENT_PARAMETERS_@@@Z 005fd010 f   d3d8d:dxgcreate.obj
 0003:0001f0c0       ?SetShaderConstantMode@D3DDevice@@SGJK@Z 005fd180 f i d3d8d:dxgcreate.obj
 0003:0001f100       ?DisableInterrupts@CMiniport@D3D@@QAEXPAX@Z 005fd1c0 f i d3d8d:dxgcreate.obj
 0003:0001f330       ?HwGet@CDevice@D3D@@QAEPCKXZ 005fd3f0 f i d3d8d:dxgcreate.obj
 0003:0001f410       ?InitializeKelvin@D3D@@YGXXZ 005fd4d0 f   d3d8d:dxgcreate.obj
 0003:0001f5a0       ?InitializeHardware@D3D@@YGXXZ 005fd660 f   d3d8d:dxgcreate.obj
 0003:0001f720       ?InitializeD3dState@D3D@@YGXXZ 005fd7e0 f   d3d8d:dxgcreate.obj
 0003:0001f820       ?FreeFrameBuffers@CDevice@D3D@@QAEXXZ 005fd8e0 f   d3d8d:dxgcreate.obj
 0003:0001fae0       ?InitializeFrameBuffers@CDevice@D3D@@QAEJPAU_D3DPRESENT_PARAMETERS_@@@Z 005fdba0 f   d3d8d:dxgcreate.obj
 0003:00020530       ?Init@CDevice@D3D@@QAEJPAU_D3DPRESENT_PARAMETERS_@@@Z 005fe5f0 f   d3d8d:dxgcreate.obj
 0003:00020ce0       ?UnInit@CDevice@D3D@@QAEXXZ 005feda0 f   d3d8d:dxgcreate.obj
 0003:00021290       ?DbgRecordPushStart@D3D@@YGXK@Z 005ff350 f   d3d8d:pusher.obj
 0003:00021300       ?BusyLoop@D3D@@YGXXZ       005ff3c0 f   d3d8d:pusher.obj
 0003:00021330       ?ComputeGap@D3D@@YIKPAVCDevice@1@PAUFence@1@PCK@Z 005ff3f0 f   d3d8d:pusher.obj
 0003:00021370       _D3DDevice_BeginStateParameterCheck@4 005ff430 f   d3d8d:pusher.obj
 0003:000213c0       _D3DDevice_EndStateParameterCheck@4 005ff480 f   d3d8d:pusher.obj
 0003:00021430       _D3DDevice_SetWaitCallback@4 005ff4f0 f   d3d8d:pusher.obj
 0003:00021460       ?DumpMatrixTransposed@D3D@@YGXPCKKPBU_D3DMATRIX@@@Z 005ff520 f   d3d8d:pusher.obj
 0003:000214f0       ?PushedRaw@D3D@@YGXPCK@Z   005ff5b0 f   d3d8d:pusher.obj
 0003:00021570       ?Push1@D3D@@YGXPCKW4SubChannel@@KK@Z 005ff630 f   d3d8d:pusher.obj
 0003:00021630       ?Push2@D3D@@YGXPCKW4SubChannel@@KKK@Z 005ff6f0 f   d3d8d:pusher.obj
 0003:000216f0       ?Push3@D3D@@YGXPCKW4SubChannel@@KKKK@Z 005ff7b0 f   d3d8d:pusher.obj
 0003:000217c0       ?Push4@D3D@@YGXPCKW4SubChannel@@KKKKK@Z 005ff880 f   d3d8d:pusher.obj
 0003:00021890       ?Push1f@D3D@@YGXPCKW4SubChannel@@KM@Z 005ff950 f   d3d8d:pusher.obj
 0003:00021950       ?Push2f@D3D@@YGXPCKW4SubChannel@@KMM@Z 005ffa10 f   d3d8d:pusher.obj
 0003:00021a10       ?Push3f@D3D@@YGXPCKW4SubChannel@@KMMM@Z 005ffad0 f   d3d8d:pusher.obj
 0003:00021ae0       ?Push4f@D3D@@YGXPCKW4SubChannel@@KMMMM@Z 005ffba0 f   d3d8d:pusher.obj
 0003:00021bb0       ?PushCount@D3D@@YGXPCKW4SubChannel@@KK@Z 005ffc70 f   d3d8d:pusher.obj
 0003:00021c70       ?PushMatrixTransposed@D3D@@YGXPCKKPBU_D3DMATRIX@@@Z 005ffd30 f   d3d8d:pusher.obj
 0003:00021d30       ?PushInverseModelViewMatrix@D3D@@YGXPCKKPBU_D3DMATRIX@@@Z 005ffdf0 f   d3d8d:pusher.obj
 0003:00021df0       ?PushMatrix@D3D@@YGXPCKKMMMMMMMMMMMMMMMM@Z 005ffeb0 f   d3d8d:pusher.obj
 0003:00021f10       _XMETAL_PushedRaw@4        005fffd0 f   d3d8d:pusher.obj
 0003:00021f20       _XMETAL_Push1@12           005fffe0 f   d3d8d:pusher.obj
 0003:00021f40       _XMETAL_Push2@16           00600000 f   d3d8d:pusher.obj
 0003:00021f70       _XMETAL_Push3@20           00600030 f   d3d8d:pusher.obj
 0003:00021fa0       _XMETAL_Push4@24           00600060 f   d3d8d:pusher.obj
 0003:00021fd0       _XMETAL_Push1f@12          00600090 f   d3d8d:pusher.obj
 0003:00021ff0       _XMETAL_Push2f@16          006000b0 f   d3d8d:pusher.obj
 0003:00022020       _XMETAL_Push3f@20          006000e0 f   d3d8d:pusher.obj
 0003:00022050       _XMETAL_Push4f@24          00600110 f   d3d8d:pusher.obj
 0003:00022080       _XMETAL_PushCount@12       00600140 f   d3d8d:pusher.obj
 0003:00022300       ?IsNonSurfaceResourceSetInDevice@D3D@@YGHPAUD3DResource@@@Z 006003c0 f i d3d8d:pusher.obj
 0003:00022350       ?InitializePushBuffer@CDevice@D3D@@QAEJXZ 00600410 f   d3d8d:pusher.obj
 0003:00022530       ?UninitializePushBuffer@CDevice@D3D@@QAEXXZ 006005f0 f   d3d8d:pusher.obj
 0003:000227a0       ?GpuGet@CDevice@D3D@@QAEPCKXZ 00600860 f   d3d8d:pusher.obj
 0003:00022900       ?GpuGetOrNewer@D3D@@YGPCKPAVCDevice@1@H@Z 006009c0 f   d3d8d:pusher.obj
 0003:000229c0       ?FlushWCCache@D3D@@YGXXZ   00600a80 f   d3d8d:pusher.obj
 0003:00022a00       _D3DDevice_IsFencePending@4 00600ac0 f   d3d8d:pusher.obj
 0003:00022a30       _D3DDevice_GetPushDistance@4 00600af0 f   d3d8d:pusher.obj
 0003:00022ac0       ?KickOff@CDevice@D3D@@QAEXXZ 00600b80 f   d3d8d:pusher.obj
 0003:00022c90       ?ReentrantKickOffAndWait@CDevice@D3D@@QAEXXZ 00600d50 f   d3d8d:pusher.obj
 0003:00022d40       ?EndPush@CDevice@D3D@@QAEXPCK@Z 00600e00 f   d3d8d:pusher.obj
 0003:00022e80       ?SetFence@D3D@@YGKK@Z      00600f40 f   d3d8d:pusher.obj
 0003:00023000       ?BlockOnTime@D3D@@YGXKK@Z  006010c0 f   d3d8d:pusher.obj
 0003:000235d0       ?MakeRequestedSpace@D3D@@YGPCKKK@Z 00601690 f   d3d8d:pusher.obj
 0003:000238d0       _D3DDevice_MakeSpace@0     00601990 f   d3d8d:pusher.obj
 0003:000238f0       _D3DDevice_BeginStateBig@4 006019b0 f   d3d8d:pusher.obj
 0003:000239f0       ?KickOffAndWaitForIdle@D3D@@YGXXZ 00601ab0 f   d3d8d:pusher.obj
 0003:00023a30       ?BlockOnResource@D3D@@YGXPAUD3DResource@@@Z 00601af0 f   d3d8d:pusher.obj
 0003:00023b40       ?BlockOnNonSurfaceResource@D3D@@YGXPAUD3DResource@@@Z 00601c00 f   d3d8d:pusher.obj
 0003:00023c60       _D3DDevice_InsertCallback@12 00601d20 f   d3d8d:pusher.obj
 0003:00023d60       _D3DDevice_BeginPush@4     00601e20 f   d3d8d:pusher.obj
 0003:00023f20       _D3DDevice_EndPush@4       00601fe0 f   d3d8d:pusher.obj
 0003:00024020       ?XformBy4x3@D3D@@YGXPAU_D3DVECTOR@@PBU2@MPBU_D3DMATRIX@@@Z 006020e0 f   d3d8d:math.obj
 0003:000240b0       ?MatrixProduct4x4@D3D@@YGXPAU_D3DMATRIX@@PBU2@1@Z 00602170 f   d3d8d:math.obj
 0003:000241f0       ?Explut@D3D@@YGXMPAM0@Z    006022b0 f   d3d8d:math.obj
 0003:00024330       ?JBInvSqrt@D3D@@YGMM@Z     006023f0 f   d3d8d:math.obj
 0003:000243b0       ?nvSqrt@D3D@@YGMM@Z        00602470 f   d3d8d:math.obj
 0003:000243d0       ?nvInv@D3D@@YGMM@Z         00602490 f   d3d8d:math.obj
 0003:00024410       ?NormalizeVector3@D3D@@YGXPAU_D3DVECTOR@@@Z 006024d0 f   d3d8d:math.obj
 0003:000244a0       ?Inverse4x4@D3D@@YGHPAU_D3DMATRIX@@PBU2@H@Z 00602560 f   d3d8d:math.obj
 0003:00024a40       ?FloatToLong@D3D@@YGJM@Z   00602b00 f   d3d8d:floatmath.obj
 0003:00024a50       ?Cos@D3D@@YGMM@Z           00602b10 f   d3d8d:floatmath.obj
 0003:00024a60       ?Exp@D3D@@YGMM@Z           00602b20 f   d3d8d:floatmath.obj
 0003:00024ad0       ?Log@D3D@@YGMM@Z           00602b90 f   d3d8d:floatmath.obj
 0003:00024b10       ?Init@CPUAllocator@D3D@@QAEHK@Z 00602bd0 f   d3d8d:timing.obj
 0003:00024be0       ?Reset@CPUAllocator@D3D@@QAEXXZ 00602ca0 f   d3d8d:timing.obj
 0003:00024c00       ?SpaceFor@CPUAllocator@D3D@@QAEHK@Z 00602cc0 f   d3d8d:timing.obj
 0003:00024c40       ?GetSize@CPUAllocator@D3D@@QAEKXZ 00602d00 f   d3d8d:timing.obj
 0003:00024c50       ?WriteFile@CPUAllocator@D3D@@QAEJPAXPAU_IO_STATUS_BLOCK@@@Z 00602d10 f   d3d8d:timing.obj
 0003:00024c80       ?FreeMem@CPUAllocator@D3D@@QAEXXZ 00602d40 f   d3d8d:timing.obj
 0003:00024ca0       ?Reset@GPUAllocator@D3D@@QAEXXZ 00602d60 f   d3d8d:timing.obj
 0003:00024cd0       ?GetSize@GPUAllocator@D3D@@QAEKXZ 00602d90 f   d3d8d:timing.obj
 0003:00024cf0       ?Increment@GPUAllocator@D3D@@QAEHXZ 00602db0 f   d3d8d:timing.obj
 0003:00024d60       ?WriteFile@GPUAllocator@D3D@@QAEJPAXPAU_IO_STATUS_BLOCK@@@Z 00602e20 f   d3d8d:timing.obj
 0003:00024e70       ?WriteBuffers@CPUAllocator@D3D@@QAEXPAPAK@Z 00602f30 f   d3d8d:timing.obj
 0003:00024ea0       ?WriteBuffers@GPUAllocator@D3D@@QAEXPAPAK@Z 00602f60 f   d3d8d:timing.obj
 0003:00024f70       ?WriteTimingFrequency@TimingRecorder@D3D@@AAEXXZ 00603030 f   d3d8d:timing.obj
 0003:00025040       ?MyFillSzFromWz@D3D@@YGXPADHPAGH@Z 00603100 f   d3d8d:timing.obj
 0003:000250c0       ?MyDmWalkLoadedModules@D3D@@YGJPAPAU_DM_WALK_MODULES@1@PAU_DMN_MODLOAD@@@Z 00603180 f   d3d8d:timing.obj
 0003:00025210       ?MyDmCloseLoadedModules@D3D@@YGJPAU_DM_WALK_MODULES@1@@Z 006032d0 f   d3d8d:timing.obj
 0003:00025230       ?GetInitialStackTrace0@D3D@@YIXPAXKPAK@Z 006032f0 f   d3d8d:timing.obj
 0003:00025250       ?GetInitialStackTrace1@D3D@@YIKPAXK@Z 00603310 f   d3d8d:timing.obj
 0003:00025270       ?ConcludeStackInitData@TimingRecorder@D3D@@AAEKPAK@Z 00603330 f   d3d8d:timing.obj
 0003:000253b0       ?WriteTimingFile@TimingRecorder@D3D@@QAEJPAKK0K@Z 00603470 f   d3d8d:timing.obj
 0003:000255f0       ?WriteVBEvent@D3D@@YGXW4_TimingEventType@@@Z 006036b0 f   d3d8d:timing.obj
 0003:000256b0       ?InitRealtimeFrame@TimingRecorder@D3D@@QAEJXZ 00603770 f   d3d8d:timing.obj
 0003:00025940       ?Init@GPUAllocator@D3D@@QAEHXZ 00603a00 f   d3d8d:timing.obj
 0003:00025a90       ?FreeMem@GPUAllocator@D3D@@QAEXXZ 00603b50 f   d3d8d:timing.obj
 0003:00025b50       ?InsertPixelCountReport@TimingRecorder@D3D@@QAEXXZ 00603c10 f   d3d8d:timing.obj
 0003:00025bf0       ?InsertPixelCountReportAt@TimingRecorder@D3D@@QAEXK@Z 00603cb0 f   d3d8d:timing.obj
 0003:00025c50       ?InsertPixelCountReportWait@TimingRecorder@D3D@@QAEXXZ 00603d10 f   d3d8d:timing.obj
 0003:00025d10       ?FreeBuffers@TimingRecorder@D3D@@AAEXXZ 00603dd0 f   d3d8d:timing.obj
 0003:00025d60       ?AllocateBuffers@TimingRecorder@D3D@@AAEHXZ 00603e20 f   d3d8d:timing.obj
 0003:00025e20       ?ConcludeTimingRecord@TimingRecorder@D3D@@AAEXXZ 00603ee0 f   d3d8d:timing.obj
 0003:00026250       ?Start@TimingRecorder@D3D@@QAEJPBDK@Z 00604310 f   d3d8d:timing.obj
 0003:00026390       ?End@TimingRecorder@D3D@@QAEJXZ 00604450 f   d3d8d:timing.obj
 0003:00026570       ?WriteTimingEvent@D3D@@YGXW4_TimingEventType@@@Z 00604630 f   d3d8d:timing.obj
 0003:00026770       _D3DPERF_StartTimingCapture@8 00604830 f   d3d8d:timing.obj
 0003:00026790       _D3DPERF_StopTimingCapture@0 00604850 f   d3d8d:timing.obj
 0003:000267a0       ?AddUserEvent@TimingRecorder@D3D@@QAEXKKPBDPAPAD@Z 00604860 f   d3d8d:timing.obj
 0003:000268d0       _D3DPERF_SetMarker         00604990 f   d3d8d:timing.obj
 0003:00026930       _D3DPERF_BeginEvent        006049f0 f   d3d8d:timing.obj
 0003:000269b0       _D3DPERF_EndEvent@0        00604a70 f   d3d8d:timing.obj
 0003:000269d0       ?StartRealtime@TimingRecorder@D3D@@QAEJXZ 00604a90 f   d3d8d:timing.obj
 0003:00026a70       ?EndRealtime@TimingRecorder@D3D@@QAEJXZ 00604b30 f   d3d8d:timing.obj
 0003:00026af0       ?InitRealtimeFrame@D3D@@YGJXZ 00604bb0 f   d3d8d:timing.obj
 0003:00026b00       ?FinishRealtimeFrame@TimingRecorder@D3D@@QAEJXZ 00604bc0 f   d3d8d:timing.obj
 0003:00026cc0       ?StartRealtime@D3D@@YGJXZ  00604d80 f   d3d8d:timing.obj
 0003:00026cd0       ?EndRealtime@D3D@@YGJXZ    00604d90 f   d3d8d:timing.obj
 0003:00026ce0       ?FinishRealtimeFrame@D3D@@YGJXZ 00604da0 f   d3d8d:timing.obj
 0003:00026d14       ?DacProgramVideoStart@CMiniport@D3D@@QAEXK@Z 00604dd4 f   d3d8d:mpdac.obj
 0003:00026dd2       ?DacProgramGammaRamp@CMiniport@D3D@@QAEXPAU_D3DGAMMARAMP@@@Z 00604e92 f   d3d8d:mpdac.obj
 0003:00026e50       ?Log2@D3D@@YIKK@Z          00604f10 f   d3d8d:pixeljar.obj
 0003:00026eb0       ?MapToLinearD3DFORMAT@D3D@@YG?AW4_D3DFORMAT@@W42@@Z 00604f70 f   d3d8d:pixeljar.obj
 0003:00026fb0       ?IsCompressedD3DFORMAT@D3D@@YG_NW4_D3DFORMAT@@@Z 00605070 f   d3d8d:pixeljar.obj
 0003:00026ff0       ?DecodeLogDepth@D3D@@YGKK@Z 006050b0 f i d3d8d:pixeljar.obj
 0003:00027000       ?GetLogDepth@PixelJar@D3D@@YGKPAUD3DPixelContainer@@@Z 006050c0 f i d3d8d:pixeljar.obj
 0003:00027020       ?VideoBitsPerPixelOfD3DFORMAT@D3D@@YGKW4_D3DFORMAT@@@Z 006050e0 f   d3d8d:pixeljar.obj
 0003:00027050       ?CalcTilePitch@D3D@@YGKKW4_D3DFORMAT@@@Z 00605110 f   d3d8d:pixeljar.obj
 0003:000270a0       ?GetSurfaceFormat@PixelJar@D3D@@YGKPAUD3DPixelContainer@@0@Z 00605160 f   d3d8d:pixeljar.obj
 0003:00027250       ?GetDepthBufferScale@PixelJar@D3D@@YGXPAUD3DPixelContainer@@PAM@Z 00605310 f   d3d8d:pixeljar.obj
 0003:00027320       ?GetSize@PixelJar@D3D@@YGXPAUD3DPixelContainer@@KPAK1111@Z 006053e0 f   d3d8d:pixeljar.obj
 0003:000274e0       ?Get2DSurfaceDesc@PixelJar@D3D@@YGXPAUD3DPixelContainer@@IPAU_D3DSURFACE_DESC@@@Z 006055a0 f   d3d8d:pixeljar.obj
 0003:000275e0       ?Get3DSurfaceDesc@PixelJar@D3D@@YGXPAUD3DPixelContainer@@IPAU_D3DVOLUME_DESC@@@Z 006056a0 f   d3d8d:pixeljar.obj
 0003:00027680       ?FindSurfaceWithinTexture@PixelJar@D3D@@YGXPAUD3DPixelContainer@@W4_D3DCUBEMAP_FACES@@IPAPAEPAK333@Z 00605740 f   d3d8d:pixeljar.obj
 0003:000279c0       ?Lock2DSurface@PixelJar@D3D@@YGXPAUD3DPixelContainer@@W4_D3DCUBEMAP_FACES@@IPAU_D3DLOCKED_RECT@@PBUtagRECT@@K@Z 00605a80 f   d3d8d:pixeljar.obj
 0003:00027ad0       ?Lock3DSurface@PixelJar@D3D@@YGXPAUD3DPixelContainer@@IPAU_D3DLOCKED_BOX@@PBU_D3DBOX@@K@Z 00605b90 f   d3d8d:pixeljar.obj
 0003:00027bd0       ?EncodeFormat@PixelJar@D3D@@YGKKKKKW4_D3DFORMAT@@KHHPAK1@Z 00605c90 f   d3d8d:pixeljar.obj
 0003:000281d0       ?IsFlipPending@CMiniport@D3D@@QAEHXZ 00606290 f   d3d8d:mpintr.obj
 0003:000281f0       ?ServiceMediaPortInterrupt@CMiniport@D3D@@AAEKXZ 006062b0 f   d3d8d:mpintr.obj
 0003:00028210       ?RecognizeGraphicsHardwareError@D3D@@YGHKKKK@Z 006062d0 f   d3d8d:mpintr.obj
 0003:0002c0f0       ?EnableInterrupts@CMiniport@D3D@@QAEXPAX@Z 0060a1b0 f i d3d8d:mpintr.obj
 0003:0002c110       ?GetTime@CMiniport@D3D@@QAEKXZ 0060a1d0 f i d3d8d:mpintr.obj
 0003:0002c120       ?GrDone@CMiniport@D3D@@AAEXXZ 0060a1e0 f i d3d8d:mpintr.obj
 0003:0002c130       ?Isr@CMiniport@D3D@@SGEPAU_KINTERRUPT@@PAX@Z 0060a1f0 f   d3d8d:mpintr.obj
 0003:0002c2a0       ?ServiceQueuedFlips@CMiniport@D3D@@AAEKXZ 0060a360 f   d3d8d:mpintr.obj
 0003:0002c3c0       ?VBlank@CMiniport@D3D@@AAEKXZ 0060a480 f   d3d8d:mpintr.obj
 0003:0002c570       ?ServiceTimerInterrupt@CMiniport@D3D@@AAEKXZ 0060a630 f   d3d8d:mpintr.obj
 0003:0002c700       ?ServiceVideoInterrupt@CMiniport@D3D@@AAEKXZ 0060a7c0 f   d3d8d:mpintr.obj
 0003:0002c720       ?ShutdownNotification@CMiniport@D3D@@SGXPAU_HAL_SHUTDOWN_REGISTRATION@@@Z 0060a7e0 f   d3d8d:mpintr.obj
 0003:0002c7a0       ?PrintRange@D3D@@YGXPAEKK@Z 0060a860 f   d3d8d:mpintr.obj
 0003:0002c810       ?ReportHardwareError@D3D@@YGXKKKK@Z 0060a8d0 f   d3d8d:mpintr.obj
 0003:0002cc10       ?SoftwareMethod@CMiniport@D3D@@AAEXK@Z 0060acd0 f   d3d8d:mpintr.obj
 0003:0002cfc0       ?ServiceGrInterrupt@CMiniport@D3D@@AAEKXZ 0060b080 f   d3d8d:mpintr.obj
 0003:0002d1f0       ?ServiceFifoInterrupt@CMiniport@D3D@@AAEKXZ 0060b2b0 f   d3d8d:mpintr.obj
 0003:0002d4d0       ?Dpc@CMiniport@D3D@@SGXPAU_KDPC@@PAX11@Z 0060b590 f   d3d8d:mpintr.obj
 0003:0002d64e       ?ReserveInstMem@CMiniport@D3D@@AAEKK@Z 0060b70e f   d3d8d:mpcore.obj
 0003:0002d69c       ?InitGammaRamp@CMiniport@D3D@@AAEXK@Z 0060b75c f   d3d8d:mpcore.obj
 0003:0002d6ef       ?InitDMAChannel@CMiniport@D3D@@QAEHKPAUOBJECTINFO@12@0KPAPAX@Z 0060b7af f   d3d8d:mpcore.obj
 0003:0002d765       ?BindToChannel@CMiniport@D3D@@QAEHPAUOBJECTINFO@12@@Z 0060b825 f   d3d8d:mpcore.obj
 0003:0002d7d0       ?Init@OBJECTINFO@CMiniport@D3D@@QAEXXZ 0060b890 f i d3d8d:mpcore.obj
 0003:0002d7f0       ?AssertContiguousOrPhysical@D3D@@YGXPAXPAD@Z 0060b8b0 f i d3d8d:mpcore.obj
 0003:0002d820       ?IsContiguousMemory@D3D@@YGHPAX@Z 0060b8e0 f i d3d8d:mpcore.obj
 0003:0002d83f       ?DumpClocks@CMiniport@D3D@@AAEXXZ 0060b8ff f   d3d8d:mpcore.obj
 0003:0002da2a       ?MapRegisters@CMiniport@D3D@@AAEHXZ 0060baea f   d3d8d:mpcore.obj
 0003:0002da5f       ?GetGeneralInfo@CMiniport@D3D@@AAEHXZ 0060bb1f f   d3d8d:mpcore.obj
 0003:0002dab0       ?InitEngines@CMiniport@D3D@@AAEHXZ 0060bb70 f   d3d8d:mpcore.obj
 0003:0002db53       ?LoadEngines@CMiniport@D3D@@AAEHXZ 0060bc13 f   d3d8d:mpcore.obj
 0003:0002dc11       ?GetAddressInfo@CMiniport@D3D@@AAEXPAXPAPAXPAKH@Z 0060bcd1 f   d3d8d:mpcore.obj
 0003:0002dc95       ?CreateCtxDmaObject@CMiniport@D3D@@QAEHKKPAXKPAUOBJECTINFO@12@@Z 0060bd55 f   d3d8d:mpcore.obj
 0003:0002dde1       ?CreateGrObject@CMiniport@D3D@@QAEHKKPAUOBJECTINFO@12@@Z 0060bea1 f   d3d8d:mpcore.obj
 0003:0002df31       ?TilingUpdateIdle@CMiniport@D3D@@QAEXPAK@Z 0060bff1 f   d3d8d:mpcore.obj
 0003:0002dfba       ?GetTimerTime@CMiniport@D3D@@AAE_KXZ 0060c07a f   d3d8d:mpcore.obj
 0003:0002dfd4       ?EnableTimer@CMiniport@D3D@@AAEXH@Z 0060c094 f   d3d8d:mpcore.obj
 0003:0002dffd       ?SetTimerAlarm@CMiniport@D3D@@AAEX_KH@Z 0060c0bd f   d3d8d:mpcore.obj
 0003:0002e0fe       ?SetTimerCallbackAlarm@CMiniport@D3D@@QAEX_KP6AXK@ZK@Z 0060c1be f   d3d8d:mpcore.obj
 0003:0002e1b0       ?ApplyLGSFix@CMiniport@D3D@@QAEXXZ 0060c270 f   d3d8d:mpcore.obj
 0003:0002e208       ?InitHardware@CMiniport@D3D@@QAEHXZ 0060c2c8 f   d3d8d:mpcore.obj
 0003:0002e499       ?CreateTile@CMiniport@D3D@@QAEHKKKKKKK@Z 0060c559 f   d3d8d:mpcore.obj
 0003:0002e72f       ?DestroyTile@CMiniport@D3D@@QAEHKK@Z 0060c7ef f   d3d8d:mpcore.obj
 0003:0002e821       ?ShutdownEngines@CMiniport@D3D@@QAEXXZ 0060c8e1 f   d3d8d:mpcore.obj
 0003:0002f1d0       ?GetGPUDataFromResource@D3D@@YGKPAUD3DResource@@@Z 0060d290 f i d3d8d:lazy.obj
 0003:0002f250       ?LazyPrimitiveLaunchStateTest@D3D@@YGXXZ 0060d310 f i d3d8d:lazy.obj
 0003:0002f2d0       ?LazySetPointParams@D3D@@YGXPAVCDevice@1@@Z 0060d390 f   d3d8d:lazy.obj
 0003:0002f510       ?LazySetShaderStageProgram@D3D@@YGXPAVCDevice@1@@Z 0060d5d0 f   d3d8d:lazy.obj
 0003:0002f9a0       ?LazySetTextureState@D3D@@YGXPAVCDevice@1@K@Z 0060da60 f   d3d8d:lazy.obj
 0003:0002fcd0       ?LazySetSpecFogCombiner@D3D@@YGXPAVCDevice@1@@Z 0060dd90 f   d3d8d:lazy.obj
 0003:0002ffb0       ?LazySetTextureTransform@D3D@@YGXPAVCDevice@1@@Z 0060e070 f   d3d8d:lazy.obj
 0003:00030830       ?LazySetLights@D3D@@YGXPAVCDevice@1@K@Z 0060e8f0 f   d3d8d:lazy.obj
 0003:00030d30       ?LazySetTransform@D3D@@YGXPAVCDevice@1@K@Z 0060edf0 f   d3d8d:lazy.obj
 0003:00030ff0       ?LazySetState@D3D@@YGXXZ   0060f0b0 f   d3d8d:lazy.obj
 0003:000310a0       ?LazySetStateVB@CDevice@D3D@@QAEXK@Z 0060f160 f   d3d8d:lazy.obj
 0003:00031350       ?LazySetStateUP@CDevice@D3D@@QAEXXZ 0060f410 f   d3d8d:lazy.obj
 0003:00031570       ?SpewFloat@D3D@@YGXPAX@Z   0060f630 f   d3d8d:rdi.obj
 0003:00031640       ?ParseOut@D3D@@YGXPAUVINSTR@1@@Z 0060f700 f   d3d8d:rdi.obj
 0003:000316f0       ?ParseMux@D3D@@YGXHHHHHHHPAUVINSTR@1@@Z 0060f7b0 f   d3d8d:rdi.obj
 0003:00031840       ?DisasmInstr@D3D@@YG_NPAX@Z 0060f900 f   d3d8d:rdi.obj
 0003:00031c80       _D3DRDI_GetRamData@16      0060fd40 f   d3d8d:rdi.obj
 0003:00031d30       _D3DRDI_GetNextVTXLRUSlot@0 0060fdf0 f   d3d8d:rdi.obj
 0003:00031d60       _D3DRDI_GetVTXFileEntry@8  0060fe20 f   d3d8d:rdi.obj
 0003:00031db0       _D3DRDI_GetPAEntry@8       0060fe70 f   d3d8d:rdi.obj
 0003:00031de0       _D3DRDI_DumpVTXFileEntry@4 0060fea0 f   d3d8d:rdi.obj
 0003:00031f60       _D3DRDI_DumpVTXProgram@8   00610020 f   d3d8d:rdi.obj
 0003:00032010       _D3DRDI_DumpVTXConstants@8 006100d0 f   d3d8d:rdi.obj
 0003:000320f0       _D3DRDI_DumpVAB@0          006101b0 f   d3d8d:rdi.obj
 0003:000321c0       ?D3DRDI_DumpPA@D3D@@YGXXZ  00610280 f   d3d8d:rdi.obj
 0003:000323c0       ?StrChr@D3D@@YGPBDPBDH@Z   00610480 f   d3d8d:recorder.obj
 0003:000323f0       ?StrCat@D3D@@YGXPADPBD@Z   006104b0 f   d3d8d:recorder.obj
 0003:00032430       ?ZeroInitialize@D3D@@YGXPAXK@Z 006104f0 f   d3d8d:recorder.obj
 0003:00032480       ?WriteDisk@Recorder@D3D@@AAEXW4RecordType@@PBXKKKK@Z 00610540 f   d3d8d:recorder.obj
 0003:00032560       ?ValidateStateAgainstParser@Recorder@D3D@@AAEXPBK0@Z 00610620 f   d3d8d:recorder.obj
 0003:00032770       ?InitializeCRC@D3D@@YGXXZ  00610830 f   d3d8d:recorder.obj
 0003:000327b0       ?ComputeCRC@D3D@@YGHPBXPAK@Z 00610870 f   d3d8d:recorder.obj
 0003:000329a0       ?RedundantComputeCRC@D3D@@YGKKPAEH@Z 00610a60 f   d3d8d:recorder.obj
 0003:000329e0       ?TiledToLinear@D3D@@YGKPAU_D3DTILE@@K@Z 00610aa0 f   d3d8d:recorder.obj
 0003:00032ad0       ?SaveMemorySummary@Recorder@D3D@@AAEHXZ 00610b90 f   d3d8d:recorder.obj
 0003:00032bd0       ?SaveFloatingPointControl@Recorder@D3D@@AAEHXZ 00610c90 f   d3d8d:recorder.obj
 0003:00032c60       ?SaveModifiedRanges@Recorder@D3D@@AAEHXZ 00610d20 f   d3d8d:recorder.obj
 0003:00032da0       ?FindMinMax16@D3D@@YGXPBKKPAK1@Z 00610e60 f   d3d8d:recorder.obj
 0003:00032f60       ?RedundantFindMinMax16@D3D@@YGXPBKKPAK1@Z 00611020 f   d3d8d:recorder.obj
 0003:00032fd0       ?FindMinMax32@D3D@@YGXPBKKPAK1@Z 00611090 f   d3d8d:recorder.obj
 0003:00033030       ?FindMinMaxArrays@D3D@@YGXPBKKPAK1@Z 006110f0 f   d3d8d:recorder.obj
 0003:000330b0       ?Start@Recorder@D3D@@QAEJPBDPAUD3DSurface@@@Z 00611170 f   d3d8d:recorder.obj
 0003:00033210       ?End@Recorder@D3D@@QAEJXZ  006112d0 f   d3d8d:recorder.obj
 0003:000333c0       _D3DPERF_StartPushBufferCapture@8 00611480 f   d3d8d:recorder.obj
 0003:00033430       _D3DPERF_StopPushBufferCapture@0 006114f0 f   d3d8d:recorder.obj
 0003:000334a0       ?SpecialCaseReadKelvinRegister@D3D@@YGKKK@Z 00611560 f   d3d8d:recorder.obj
 0003:00033510       ?ReadKelvinRegister@D3D@@YGKK@Z 006115d0 f   d3d8d:recorder.obj
 0003:00033620       ?IsBusy@Recorder@D3D@@AAEHXZ 006116e0 f   d3d8d:recorder.obj
 0003:00033650       ?SaveGammaRamp@Recorder@D3D@@AAEHXZ 00611710 f   d3d8d:recorder.obj
 0003:000336b0       ?MarkUntiledRange@Recorder@D3D@@AAEXKKW4RecordResourceType@@@Z 00611770 f   d3d8d:recorder.obj
 0003:00033950       ?MarkPages@Recorder@D3D@@AAEXKKW4RecordResourceType@@@Z 00611a10 f   d3d8d:recorder.obj
 0003:00033b50       ?SavePages@Recorder@D3D@@AAEXXZ 00611c10 f   d3d8d:recorder.obj
 0003:00033d80       ?UpdateCRCsFromTargets@Recorder@D3D@@AAEXXZ 00611e40 f   d3d8d:recorder.obj
 0003:00033e60       ?MarkColorSurface@Recorder@D3D@@AAEXXZ 00611f20 f   d3d8d:recorder.obj
 0003:00033eb0       ?MarkZetaSurface@Recorder@D3D@@AAEXXZ 00611f70 f   d3d8d:recorder.obj
 0003:00033f00       ?MarkTextures@Recorder@D3D@@AAEXXZ 00611fc0 f   d3d8d:recorder.obj
 0003:00034000       ?MarkVertexBuffers@Recorder@D3D@@AAEXKK@Z 006120c0 f   d3d8d:recorder.obj
 0003:000340d0       ?MarkPalettes@Recorder@D3D@@AAEXXZ 00612190 f   d3d8d:recorder.obj
 0003:00034120       ?MarkRendering@Recorder@D3D@@AAEXXZ 006121e0 f   d3d8d:recorder.obj
 0003:000341f0       ?ParseMethod@Recorder@D3D@@AAEXKPBKK@Z 006122b0 f   d3d8d:recorder.obj
 0003:00034bc0       ?ParseSegment@Recorder@D3D@@AAEPBKPBK0PAPAX1@Z 00612c80 f   d3d8d:recorder.obj
 0003:00034d10       ?SaveRenderState@Recorder@D3D@@AAEHXZ 00612dd0 f   d3d8d:recorder.obj
 0003:000353b0       ?SaveTileState@Recorder@D3D@@AAEHXZ 00613470 f   d3d8d:recorder.obj
 0003:000356c0       ?Initialize@Recorder@D3D@@AAEXXZ 00613780 f   d3d8d:recorder.obj
 0003:000358a0       ?Put@Recorder@D3D@@QAEXK@Z 00613960 f   d3d8d:recorder.obj
 0003:00035c20       ?PerfRecordPut@D3D@@YGXK@Z 00613ce0 f   d3d8d:recorder.obj
 0003:00035c50       ?FixupPushBuffer@D3D@@YGXPAUPushBufferFixup@1@@Z 00613d10 f   d3d8d:pushres.obj
 0003:00035dd0       ?ReadBuffer@D3D@@YGKPAK@Z  00613e90 f   d3d8d:pushres.obj
 0003:00035e20       ?EndFixup@D3D@@YGXH@Z      00613ee0 f   d3d8d:pushres.obj
 0003:00035e90       ?Fixup1@D3D@@YGXPAKKK@Z    00613f50 f   d3d8d:pushres.obj
 0003:00035f60       ?Fixup2@D3D@@YGXPAKKKK@Z   00614020 f   d3d8d:pushres.obj
 0003:00036040       ?FixupCount@D3D@@YGXPAKW4SubChannel@@KK@Z 00614100 f   d3d8d:pushres.obj
 0003:00036130       ?FixupMatrixTransposed@D3D@@YGXPAKKPBU_D3DMATRIX@@@Z 006141f0 f   d3d8d:pushres.obj
 0003:00036200       ?AddToFixup@D3D@@YGXK@Z    006142c0 f   d3d8d:pushres.obj
 0003:00036230       ?StartFixup@D3D@@YGPAKPAUD3DPushBuffer@@IK@Z 006142f0 f   d3d8d:pushres.obj
 0003:00036360       _D3DPushBuffer_SetModelView@20 00614420 f   d3d8d:pushres.obj
 0003:00036470       _D3DPushBuffer_SetVertexBlendModelView@24 00614530 f   d3d8d:pushres.obj
 0003:00036600       _D3DPushBuffer_SetVertexShaderInputDirect@20 006146c0 f   d3d8d:pushres.obj
 0003:00036670       _D3DPushBuffer_SetPalette@16 00614730 f   d3d8d:pushres.obj
 0003:000367a0       _D3DPushBuffer_SetVertexShaderConstant@20 00614860 f   d3d8d:pushres.obj
 0003:000368f0       _D3DPushBuffer_SetRenderState@16 006149b0 f   d3d8d:pushres.obj
 0003:000369c0       _D3DPushBuffer_CopyRects@16 00614a80 f   d3d8d:pushres.obj
 0003:00036a70       ?StampCheckValue@D3D@@YGXPCKHKPAD@Z 00614b30 f i d3d8d:pushres.obj
 0003:00036ae0       ?VerifyInstruction@D3D@@YGXKPCKKH@Z 00614ba0 f   d3d8d:pushres.obj
 0003:00036b70       _D3DPushBuffer_Verify@8    00614c30 f   d3d8d:pushres.obj
 0003:00036d50       _D3DDevice_CreateFixup2@4  00614e10 f   d3d8d:pushres.obj
 0003:00036db0       _D3DFixup_Reset@4          00614e70 f   d3d8d:pushres.obj
 0003:00036e10       _D3DPushBuffer_BeginFixup@12 00614ed0 f   d3d8d:pushres.obj
 0003:00036f10       _D3DPushBuffer_EndFixup@4  00614fd0 f   d3d8d:pushres.obj
 0003:00036fd0       _D3DFixup_GetSize@8        00615090 f   d3d8d:pushres.obj
 0003:00037010       _D3DFixup_GetSpace@8       006150d0 f   d3d8d:pushres.obj
 0003:000371f0       ?RunPushBufferParameterCheck@D3D@@YGXPAUD3DPushBuffer@@PAUD3DFixup@@@Z 006152b0 f   d3d8d:pushres.obj
 0003:000373f0       _D3DDevice_RunPushBuffer@8 006154b0 f   d3d8d:pushres.obj
 0003:000379e0       _D3DDevice_CreatePushBuffer2@8 00615aa0 f   d3d8d:pushres.obj
 0003:00037b40       _D3DDevice_BeginPushBuffer@4 00615c00 f   d3d8d:pushres.obj
 0003:00037cf0       _D3DDevice_EndPushBuffer@0 00615db0 f   d3d8d:pushres.obj
 0003:00037e70       _D3DDevice_GetPushBufferOffset@4 00615f30 f   d3d8d:pushres.obj
 0003:00037f80       _D3DPushBuffer_RunPushBuffer@16 00616040 f   d3d8d:pushres.obj
 0003:00038160       _D3DPushBuffer_SetVertexShaderInput@20 00616220 f   d3d8d:pushres.obj
 0003:00038330       _D3DPushBuffer_SetRenderTarget@16 006163f0 f   d3d8d:pushres.obj
 0003:00038600       _D3DPushBuffer_SetTexture@16 006166c0 f   d3d8d:pushres.obj
 0003:000387f0       _D3DPushBuffer_EndVisibilityTest@12 006168b0 f   d3d8d:pushres.obj
 0003:000388f0       _D3DPushBuffer_Jump@12     006169b0 f   d3d8d:pushres.obj
 0003:00038a44       ?HalMcControlInit@CMiniport@D3D@@AAEXXZ 00616b04 f   d3d8d:mphal.obj
 0003:00038c04       ?HalFbControlInit@CMiniport@D3D@@AAEXXZ 00616cc4 f   d3d8d:mphal.obj
 0003:00038d82       ?HalDacControlInit@CMiniport@D3D@@AAEXXZ 00616e42 f   d3d8d:mphal.obj
 0003:00038e84       ?HalVideoControlInit@CMiniport@D3D@@AAEXXZ 00616f44 f   d3d8d:mphal.obj
 0003:00038ec7       ?HalGrControlInit@CMiniport@D3D@@AAEXXZ 00616f87 f   d3d8d:mphal.obj
 0003:00038f03       ?HalFifoControlInit@CMiniport@D3D@@AAEXXZ 00616fc3 f   d3d8d:mphal.obj
 0003:00038f90       ?HalGrIdle@CMiniport@D3D@@AAEXXZ 00617050 f   d3d8d:mphal.obj
 0003:00038fde       ?HalGrUnloadChannelContext@CMiniport@D3D@@AAEXK@Z 0061709e f   d3d8d:mphal.obj
 0003:00039029       ?HalFifoContextSwitch@CMiniport@D3D@@AAEXK@Z 006170e9 f   d3d8d:mphal.obj
 0003:000392a5       ?HalMpControlInit@CMiniport@D3D@@AAEXXZ 00617365 f   d3d8d:mphal.obj
 0003:000393c3       ?HalDacUnload@CMiniport@D3D@@AAEXXZ 00617483 f   d3d8d:mphal.obj
 0003:000393df       ?HalDacLoad@CMiniport@D3D@@AAEXXZ 0061749f f   d3d8d:mphal.obj
 0003:000393f5       ?HalDacProgramMClk@CMiniport@D3D@@AAEXXZ 006174b5 f   d3d8d:mphal.obj
 0003:000395cc       ?HalDacProgramNVClk@CMiniport@D3D@@AAEXXZ 0061768c f   d3d8d:mphal.obj
 0003:00039776       ?HalDacProgramPClk@CMiniport@D3D@@AAEXXZ 00617836 f   d3d8d:mphal.obj
 0003:0003985e       ?HalFifoAllocDMA@CMiniport@D3D@@AAEXKKKPAUOBJECTINFO@12@@Z 0061791e f   d3d8d:mphal.obj
 0003:00039a98       ?HalFifoHashAdd@CMiniport@D3D@@AAEXKKKKK@Z 00617b58 f   d3d8d:mphal.obj
 0003:00039b0b       ?HalGrInitObjectContext@CMiniport@D3D@@AAEXKK@Z 00617bcb f   d3d8d:mphal.obj
 0003:00039be0       ?HalGrInit3d@CMiniport@D3D@@AAEXXZ 00617ca0 f   d3d8d:mphal.obj
 0003:0003a885       ?HalGrLoadChannelContext@CMiniport@D3D@@AAEXK@Z 00618945 f   d3d8d:mphal.obj
 0003:0003a9f0       ?HalFifoControlLoad@CMiniport@D3D@@AAEXXZ 00618ab0 f   d3d8d:mphal.obj
 0003:0003aa91       ?HalGrControlLoad@CMiniport@D3D@@AAEXXZ 00618b51 f   d3d8d:mphal.obj
 0003:0003b470       ?LazySetCombiners@D3D@@YGKPAVCDevice@1@K@Z 00619530 f   d3d8d:combiner.obj
 0003:0003bc27       ?ClearStateBlockFlags@D3D@@YGXXZ 00619ce7 f   d3d8d:block.obj
 0003:0003bca9       _D3DDevice_BeginStateBlock@0 00619d69 f   d3d8d:block.obj
 0003:0003bcf0       _D3DDevice_Suspend@0       00619db0 f   d3d8d:block.obj
 0003:0003bd10       ?SetBackMaterial@D3DDevice@@SGJPBU_D3DMATERIAL8@@@Z 00619dd0 f i d3d8d:block.obj
 0003:0003bd30       ?SetLight@D3DDevice@@SGJKPBU_D3DLIGHT8@@@Z 00619df0 f i d3d8d:block.obj
 0003:0003bd40       ?LightEnable@D3DDevice@@SGJKH@Z 00619e00 f i d3d8d:block.obj
 0003:0003bd50       ?GetLightEnable@D3DDevice@@SGJKPAH@Z 00619e10 f i d3d8d:block.obj
 0003:0003bd70       ?SetRenderStateNotInline@D3DDevice@@SGJW4_D3DRENDERSTATETYPE@@K@Z 00619e30 f i d3d8d:block.obj
 0003:0003bd90       ?SetTextureStageStateNotInline@D3DDevice@@SGJKW4_D3DTEXTURESTAGESTATETYPE@@K@Z 00619e50 f i d3d8d:block.obj
 0003:0003bdb0       ?DeleteVertexShader@D3DDevice@@SGJK@Z 00619e70 f i d3d8d:block.obj
 0003:0003bdd0       ?DeletePixelShader@D3DDevice@@SGJK@Z 00619e90 f i d3d8d:block.obj
 0003:0003bdf0       ?SetPixelShaderConstant@D3DDevice@@SGJKPBXK@Z 00619eb0 f i d3d8d:block.obj
 0003:0003be14       ?RecordStateBlock@D3D@@YGJPAK@Z 00619ed4 f   d3d8d:block.obj
 0003:0003c50b       _D3DDevice_ApplyStateBlock@4 0061a5cb f   d3d8d:block.obj
 0003:0003c71a       _D3DDevice_CaptureStateBlock@4 0061a7da f   d3d8d:block.obj
 0003:0003cad7       _D3DDevice_DeleteStateBlock@4 0061ab97 f   d3d8d:block.obj
 0003:0003cbca       _D3DDevice_CreateStateBlock@8 0061ac8a f   d3d8d:block.obj
 0003:0003cdda       _D3DDevice_EndStateBlock@4 0061ae9a f   d3d8d:block.obj
 0003:0003ce11       _D3DDevice_Resume@4        0061aed1 f   d3d8d:block.obj
 0003:0003e650       ?g_TextureFormat@D3D@@3QBEB 0061c710     d3d8d:enum.obj
 0003:0003e6a0       ?g_AdapterIdentifier@D3D@@3U_D3DADAPTER_IDENTIFIER8@@B 0061c760     d3d8d:enum.obj
 0003:0003eba8       ??_C@_0JL@DLAPFHLP@?6D3D?5ERROR?3?5This?5application?5com@ 0061cc68     d3d8d:enum.obj
 0003:0003ec64       ??_C@_0CM@PFBEKEHG@Direct3D_EnumAdapterModes?5?9?5Bad?5@ 0061cd24     d3d8d:enum.obj
 0003:0003ec98       ??_C@_0BG@EGGDMOGE@Assertion?5failure?3?5?$CFs?$AA@ 0061cd58     d3d8d:enum.obj
 0003:0003ecb4       ??_C@_0BD@DKGLMDC@pPixels?9?$DOSize?5?$CB?$DN?50?$AA@ 0061cd74     d3d8d:enum.obj
 0003:0003ecd0       ??_C@_0EK@CIJLMJEI@Direct3D_SetPushBufferSize?5?9?5A?5p@ 0061cd90     d3d8d:d3ddev.obj
 0003:0003ed28       ??_C@_0FH@BCDNFGHP@Direct3D_SetPushBufferSize?5?9?5The@ 0061cde8     d3d8d:d3ddev.obj
 0003:0003ed90       ??_C@_0EK@KODANIIA@Direct3D_SetPushBufferSize?5?9?5Kic@ 0061ce50     d3d8d:d3ddev.obj
 0003:0003ede8       ??_C@_0EN@LHOBCJN@Direct3D_SetPushBufferSize?5?9?5The@ 0061cea8     d3d8d:d3ddev.obj
 0003:0003ee48       ??_C@_0ED@PBIGJKPN@Direct3D_SetPushBufferSize?5?9?5The@ 0061cf08     d3d8d:d3ddev.obj
 0003:0003ee98       ??_C@_0EE@OJJLNDNK@Direct3D_SetPushBufferSize?5?9?5Cal@ 0061cf58     d3d8d:d3ddev.obj
 0003:0003eeec       ??_C@_0CK@EHNMHBPE@FATAL?3?5Failed?5to?5initialize?5devi@ 0061cfac     d3d8d:d3ddev.obj
 0003:0003ef20       ??_C@_0CG@KAPIHFFA@Can?8t?5create?5more?5than?5one?5D3D?5d@ 0061cfe0     d3d8d:d3ddev.obj
 0003:0003ef50       ??_C@_0FC@DHFIFNAN@Only?5D3DFMT_A8R8G8B8?0?5_X8R8G8B8?0@ 0061d010     d3d8d:d3ddev.obj
 0003:0003efb4       ??_C@_0BL@FHEFOHOB@Only?5HAL?5devices?5supported?$AA@ 0061d074     d3d8d:d3ddev.obj
 0003:0003efd4       ??_C@_0CK@FELNHPDJ@Only?5hardware?5vertex?5processing?5@ 0061d094     d3d8d:d3ddev.obj
 0003:0003f008       ??_C@_0BH@EFEJKNDH@Windowed?5must?5be?5FALSE?$AA@ 0061d0c8     d3d8d:d3ddev.obj
 0003:0003f024       ??_C@_0CN@BGHNFMGA@Invalid?5BehaviorFlags?5passed?5to?5@ 0061d0e4     d3d8d:d3ddev.obj
 0003:0003f05c       ??_C@_0DB@DIKHOLEI@Invalid?5Adapter?5parameter?5passed@ 0061d11c     d3d8d:d3ddev.obj
 0003:0003f098       ??_C@_0CG@LEGNNEIF@D3DFORMAT_UNKNOWN?5not?5allowed?5on@ 0061d158     d3d8d:d3ddev.obj
 0003:0003f0c8       ??_C@_0DK@DCKMOIEK@Invalid?5D3DPRESENT_PARAMETERS?5po@ 0061d188     d3d8d:d3ddev.obj
 0003:0003f110       ?g_LODBias2x@D3D@@3QBMB    0061d1d0     d3d8d:state.obj
 0003:0003f138       ?g_RenderStateEncodings@D3D@@3QBKB 0061d1f8     d3d8d:state.obj
 0003:0003f4b0       ?g_ComplexRenderStateFunctionTable@D3D@@3QBQ6GXK@ZB 0061d570     d3d8d:state.obj
 0003:0003f544       ??_C@_0DN@OKDDNEBN@g_RenderStateEncodings?$FL2?$CKi?$FN?5?$DN?$DN?5D@ 0061d604     d3d8d:state.obj
 0003:0003f590       ??_C@_0CF@NPJMGKHL@g_RenderStateEncodings?$FL2?$CKi?5?$CL?51?$FN?5@ 0061d650     d3d8d:state.obj
 0003:0003f5bc       ??_C@_0BB@HKLFMIML@Invalid?5encoding?$AA@ 0061d67c     d3d8d:state.obj
 0003:0003f5d0       ??_C@_0CE@EGDDNIDP@Invalid?5flags?5in?5GetDepthClipPla@ 0061d690     d3d8d:state.obj
 0003:0003f5fc       ??_C@_0DM@KILGBJGB@?$CISTATE_DXTNOISEENABLE?5?$DN?$DN?5TRUE?$CJ?5?$CG@ 0061d6bc     d3d8d:state.obj
 0003:0003f644       ??_C@_0N@BKKEHPBJ@PSDotMapping?$AA@ 0061d704     d3d8d:state.obj
 0003:0003f654       ??_C@_0O@EGJJCFIM@PSCompareMode?$AA@ 0061d714     d3d8d:state.obj
 0003:0003f664       ??_C@_0BA@HDBNOFKC@PSCombinerCount?$AA@ 0061d724     d3d8d:state.obj
 0003:0003f678       ??_C@_0P@LFHGHIGA@PSInputTexture?$AA@ 0061d738     d3d8d:state.obj
 0003:0003f68c       ??_C@_0P@OEHPOPHG@PSTextureModes?$AA@ 0061d74c     d3d8d:state.obj
 0003:0003f6a0       ??_C@_0BJ@NDANDFLP@PSFinalCombinerInputsEFG?$AA@ 0061d760     d3d8d:state.obj
 0003:0003f6c0       ??_C@_0EO@NDFLPMKH@Can?8t?5set?5final?5combiner?5render?5@ 0061d780     d3d8d:state.obj
 0003:0003f720       ??_C@_0BK@LCPDLAGC@PSFinalCombinerInputsABCD?$AA@ 0061d7e0     d3d8d:state.obj
 0003:0003f740       ??_C@_0O@ONDCINOK@PSRGBOutputs7?$AA@ 0061d800     d3d8d:state.obj
 0003:0003f750       ??_C@_0O@PECJLMKL@PSRGBOutputs6?$AA@ 0061d810     d3d8d:state.obj
 0003:0003f760       ??_C@_0O@NPAEOPGI@PSRGBOutputs5?$AA@ 0061d820     d3d8d:state.obj
 0003:0003f770       ??_C@_0O@MGBPNOCJ@PSRGBOutputs4?$AA@ 0061d830     d3d8d:state.obj
 0003:0003f780       ??_C@_0O@IJFOEIOO@PSRGBOutputs3?$AA@ 0061d840     d3d8d:state.obj
 0003:0003f790       ??_C@_0O@JAEFHJKP@PSRGBOutputs2?$AA@ 0061d850     d3d8d:state.obj
 0003:0003f7a0       ??_C@_0O@LLGICKGM@PSRGBOutputs1?$AA@ 0061d860     d3d8d:state.obj
 0003:0003f7b0       ??_C@_0O@KCHDBLCN@PSRGBOutputs0?$AA@ 0061d870     d3d8d:state.obj
 0003:0003f7c0       ??_C@_0BA@BJDPJKPC@PSAlphaOutputs7?$AA@ 0061d880     d3d8d:state.obj
 0003:0003f7d4       ??_C@_0BA@CEKLLD@PSAlphaOutputs6?$AA@ 0061d894     d3d8d:state.obj
 0003:0003f7e8       ??_C@_0BA@CLAJPIHA@PSAlphaOutputs5?$AA@ 0061d8a8     d3d8d:state.obj
 0003:0003f7fc       ??_C@_0BA@DCBCMJDB@PSAlphaOutputs4?$AA@ 0061d8bc     d3d8d:state.obj
 0003:0003f810       ??_C@_0BA@HNFDFPPG@PSAlphaOutputs3?$AA@ 0061d8d0     d3d8d:state.obj
 0003:0003f824       ??_C@_0BA@GEEIGOLH@PSAlphaOutputs2?$AA@ 0061d8e4     d3d8d:state.obj
 0003:0003f838       ??_C@_0BA@EPGFDNHE@PSAlphaOutputs1?$AA@ 0061d8f8     d3d8d:state.obj
 0003:0003f84c       ??_C@_0BA@FGHOAMDF@PSAlphaOutputs0?$AA@ 0061d90c     d3d8d:state.obj
 0003:0003f860       ??_C@_0N@OLJCJILL@PSRGBInputs7?$AA@ 0061d920     d3d8d:state.obj
 0003:0003f870       ??_C@_0N@PCIJKJPK@PSRGBInputs6?$AA@ 0061d930     d3d8d:state.obj
 0003:0003f880       ??_C@_0N@NJKEPKDJ@PSRGBInputs5?$AA@ 0061d940     d3d8d:state.obj
 0003:0003f890       ??_C@_0N@MALPMLHI@PSRGBInputs4?$AA@ 0061d950     d3d8d:state.obj
 0003:0003f8a0       ??_C@_0N@IPPOFNLP@PSRGBInputs3?$AA@ 0061d960     d3d8d:state.obj
 0003:0003f8b0       ??_C@_0N@JGOFGMPO@PSRGBInputs2?$AA@ 0061d970     d3d8d:state.obj
 0003:0003f8c0       ??_C@_0N@LNMIDPDN@PSRGBInputs1?$AA@ 0061d980     d3d8d:state.obj
 0003:0003f8d0       ??_C@_0N@KENDAOHM@PSRGBInputs0?$AA@ 0061d990     d3d8d:state.obj
 0003:0003f8e0       ??_C@_0P@DCDANBKN@PSAlphaInputs7?$AA@ 0061d9a0     d3d8d:state.obj
 0003:0003f8f4       ??_C@_0P@CLCLOAOM@PSAlphaInputs6?$AA@ 0061d9b4     d3d8d:state.obj
 0003:0003f908       ??_C@_0P@GLDCP@PSAlphaInputs5?$AA@ 0061d9c8     d3d8d:state.obj
 0003:0003f91c       ??_C@_0P@BJBNICGO@PSAlphaInputs4?$AA@ 0061d9dc     d3d8d:state.obj
 0003:0003f930       ??_C@_0P@FGFMBEKJ@PSAlphaInputs3?$AA@ 0061d9f0     d3d8d:state.obj
 0003:0003f944       ??_C@_0P@EPEHCFOI@PSAlphaInputs2?$AA@ 0061da04     d3d8d:state.obj
 0003:0003f958       ??_C@_0P@GEGKHGCL@PSAlphaInputs1?$AA@ 0061da18     d3d8d:state.obj
 0003:0003f96c       ??_C@_0P@HNHBEHGK@PSAlphaInputs0?$AA@ 0061da2c     d3d8d:state.obj
 0003:0003f980       ??_C@_0BF@IOJALANB@Invalid?5D3DMCS?5value?$AA@ 0061da40     d3d8d:state.obj
 0003:0003f99c       ??_C@_0BD@BCLHIBIA@Invalid?5WRAP?5value?$AA@ 0061da5c     d3d8d:state.obj
 0003:0003f9b4       ??_C@_0P@PMOIKDMN@Invalid?5value?4?$AA@ 0061da74     d3d8d:state.obj
 0003:0003f9c8       ??_C@_0CB@IPLPLLMN@Invalid?5D3DMULTISAMPLEMODE?5value@ 0061da88     d3d8d:state.obj
 0003:0003f9f0       ??_C@_0CE@OJGBOCIC@Invalid?5presentation?5interval?5va@ 0061dab0     d3d8d:state.obj
 0003:0003fa1c       ??_C@_0O@INPNLMJE@Invalid?5value?$AA@ 0061dadc     d3d8d:state.obj
 0003:0003fa2c       ??_C@_0BK@PLLMBFGO@Invalid?5render?5state?5type?$AA@ 0061daec     d3d8d:state.obj
 0003:0003fa4c       ??_C@_0BD@PIGPNLGN@Unexpected?5texgen?6?$AA@ 0061db0c     d3d8d:state.obj
 0003:0003fa64       ??_C@_0CN@NEALJFCJ@Index?5can?8t?5be?5D3DDP_MAXTEXCOORD@ 0061db24     d3d8d:state.obj
 0003:0003faa0       ??_C@_0EB@HBAJGNMD@?$CIType?5?$DO?$DN?5D3DTSS_BUMPENVMAT00?$CJ?5?$CG?$CG@ 0061db60     d3d8d:state.obj
 0003:0003faf0       ??_C@_0CF@FPIOJFLH@Invalid?5texture?5stage?5or?5state?5i@ 0061dbb0     d3d8d:state.obj
 0003:0003fb1c       ??_C@_0P@GPOPBBKB@Invalid?5texgen?$AA@ 0061dbdc     d3d8d:state.obj
 0003:0003fb30       ??_C@_0CE@KBJDPFGK@Texture?5coordinate?5index?5is?5too?5@ 0061dbf0     d3d8d:state.obj
 0003:0003fb5c       ??_C@_0CA@KDDICLNA@Invalid?5D3DTSS_ALPHAKILL?5value?4?$AA@ 0061dc1c     d3d8d:state.obj
 0003:0003fb84       ??_C@_0CA@OPFJBBOJ@Invalid?5D3DTSS_COLORSIGN?5value?4?$AA@ 0061dc44     d3d8d:state.obj
 0003:0003fbac       ??_C@_0CB@BGFJPOGD@Invalid?5D3DTSS_COLORKEYOP?5value?4@ 0061dc6c     d3d8d:state.obj
 0003:0003fbd4       ??_C@_0DA@GABIGGMI@Invalid?5flags?5for?5D3DTSS_TEXTURE@ 0061dc94     d3d8d:state.obj
 0003:0003fc10       ??_C@_0DL@CGGCGIGE@Invalid?5coordinate?5count?5for?5D3D@ 0061dcd0     d3d8d:state.obj
 0003:0003fc58       ??_C@_0CB@HBKCELHB@Must?5be?5in?5the?5range?5?$FL?98?40?0?58?40?$FN@ 0061dd18     d3d8d:state.obj
 0003:0003fc80       ??_C@_0BL@PMMMPNOA@Maximum?5MAXANISOTROPY?5is?54?$AA@ 0061dd40     d3d8d:state.obj
 0003:0003fca0       ??_C@_0CA@FEAMMKBA@Invalid?5D3DTSS_MIPFILTER?5value?4?$AA@ 0061dd60     d3d8d:state.obj
 0003:0003fcc8       ??_C@_0DB@CLPLJBIN@Invalid?5D3DTSS_MAGFILTER?1D3DTSS_@ 0061dd88     d3d8d:state.obj
 0003:0003fd04       ??_C@_0CC@GMKHPODH@Invalid?5value?5for?5D3DTSS_ADRESSx@ 0061ddc4     d3d8d:state.obj
 0003:0003fd2c       ??_C@_0DI@BMLLJIFL@Invalid?5modifier?5for?5D3DTSS_COLO@ 0061ddec     d3d8d:state.obj
 0003:0003fd70       ??_C@_0DO@JKHECHEN@Invalid?5value?5selector?5for?5D3DTS@ 0061de30     d3d8d:state.obj
 0003:0003fdbc       ??_C@_0CJ@KLHFEHCL@Invalid?5value?5for?5D3DTSS_COLOROP@ 0061de7c     d3d8d:state.obj
 0003:0003fdf0       ??_C@_0GF@PFMMBFKA@?$CIValue?5?$DM?5D3DTOP_BUMPENVMAP?$CJ?5?$HM?$HM?5?$CI@ 0061deb0     d3d8d:state.obj
 0003:0003fe70       ??_C@_0FA@BJGDLMCH@?$CIsetSurfaceFormat?5?$CG?5DRF_NUM?$CI097?0@ 0061df30     d3d8d:state.obj
 0003:0003fed0       ??_C@_0CE@LMBJOONH@Invalid?5flags?5in?5SetDepthClipPla@ 0061df90     d3d8d:state.obj
 0003:0003fefc       ?g_PaletteSize@D3D@@3QBHB  0061dfbc     d3d8d:buffer.obj
 0003:0003ff10       ??_C@_0EI@OHLADGHJ@AssertContiguous?5?9?5the?5address?5i@ 0061dfd0     d3d8d:buffer.obj
 0003:0003ff68       ??_C@_0EE@EGKAFALK@AssertPhysical?5?9?5the?5address?5is?5@ 0061e028     d3d8d:buffer.obj
 0003:0003ffc0       ??_C@_0EM@FLMIJNGA@AllocateContiguousMemory?5?9?5inval@ 0061e080     d3d8d:buffer.obj
 0003:00040020       ??_C@_0HI@NBOBFCBI@AllocateContiguousMemory?5?9?5addre@ 0061e0e0     d3d8d:buffer.obj
 0003:000400b0       ??_C@_0EE@CGPNCKIH@AssertWriteCombined?5?9?5the?5addres@ 0061e170     d3d8d:buffer.obj
 0003:00040104       ??_C@_0DE@EFOBNNFN@AllocateContiguousMemory?5?9?5inval@ 0061e1c4     d3d8d:buffer.obj
 0003:00040144       ??_C@_0DD@NBAEBKBF@Size?5must?5be?5D3DPALETTESIZE_32?0?5@ 0061e204     d3d8d:buffer.obj
 0003:00040184       ?g_DefaultViewport@D3D@@3U_D3DVIEWPORT8@@B 0061e244     d3d8d:d3dbase.obj
 0003:000401b8       ?g_TilePitches@D3D@@3QBKB  0061e278     d3d8d:d3dbase.obj
 0003:00040234       ?g_TransformDirtyTable@D3D@@3QBKB 0061e2f4     d3d8d:d3dbase.obj
 0003:00040264       ??_C@_0CK@BIIOPDAE@ColorFormat?5?$DO?5D3DCOPYRECT_COLOR_@ 0061e324     d3d8d:d3dbase.obj
 0003:00040298       ??_C@_0GC@KIGLIGGF@D3DDevice_SetCopyRectsState?3?5Inv@ 0061e358     d3d8d:d3dbase.obj
 0003:00040310       ??_C@_0EN@PDKOOPNP@D3DDevice_SetCopyRectsState?3?5Inv@ 0061e3d0     d3d8d:d3dbase.obj
 0003:00040370       ??_C@_0FF@GDMHDGJH@D3DDevice_SetCopyRectsState?3?5COL@ 0061e430     d3d8d:d3dbase.obj
 0003:000403d8       ??_C@_0CN@HNMIFCML@SetupCopyRectRopState?5?9?5Invalid?5@ 0061e498     d3d8d:d3dbase.obj
 0003:00040410       ??_C@_0BA@LNOHFKPL@Invalid?5pointer?$AA@ 0061e4d0     d3d8d:d3dbase.obj
 0003:00040424       ??_C@_0CL@EEDLNMID@Invalid?5state?5value?5passed?5to?5Ge@ 0061e4e4     d3d8d:d3dbase.obj
 0003:00040458       ??_C@_0BJ@PBGAKELP@Invalid?5viewport?5pointer?$AA@ 0061e518     d3d8d:d3dbase.obj
 0003:00040478       ??_C@_0BG@HDOFAKAB@Null?5material?5pointer?$AA@ 0061e538     d3d8d:d3dbase.obj
 0003:00040494       ??_C@_0CH@GCDAINLO@Attenuation?5factor?5can?5not?5be?5ne@ 0061e554     d3d8d:d3dbase.obj
 0003:000404c4       ??_C@_0CN@MDBCCCE@Invalid?5D3DLIGHT?5Theta?5angle?0?5mu@ 0061e584     d3d8d:d3dbase.obj
 0003:000404fc       ??_C@_0CL@GNOLMIFF@Invalid?5D3DLIGHT?5Theta?5angle?0?5mu@ 0061e5bc     d3d8d:d3dbase.obj
 0003:00040530       ??_C@_0CK@OKOJOJIK@Invalid?5D3DLIGHT?5Phi?5angle?0?5must@ 0061e5f0     d3d8d:d3dbase.obj
 0003:00040564       ??_C@_0CJ@ICHJHGBN@Invalid?5D3DLIGHT?5Phi?5angle?0?5must@ 0061e624     d3d8d:d3dbase.obj
 0003:00040598       ??_C@_0BL@BEDBCGJM@Invalid?5D3DLIGHT?5direction?$AA@ 0061e658     d3d8d:d3dbase.obj
 0003:000405b8       ??_C@_0CI@OCGKODFH@Attenuation?5factors?5can?5not?5all?5@ 0061e678     d3d8d:d3dbase.obj
 0003:000405e8       ??_C@_0BH@JEDGFDIO@Invalid?5D3DLIGHT?5range?$AA@ 0061e6a8     d3d8d:d3dbase.obj
 0003:00040604       ??_C@_0BG@FBNDPJHG@Invalid?5D3DLIGHT?5type?$AA@ 0061e6c4     d3d8d:d3dbase.obj
 0003:00040620       ??_C@_0BE@FMEJEIBG@Invalid?5light?5index?$AA@ 0061e6e0     d3d8d:d3dbase.obj
 0003:00040638       ??_C@_0BG@HDJBIOEA@Invalid?5light?5pointer?$AA@ 0061e6f8     d3d8d:d3dbase.obj
 0003:00040654       ??_C@_0CO@KLPFIHMJ@EndVisibilityTest?5wasn?8t?5called?5@ 0061e714     d3d8d:d3dbase.obj
 0003:00040690       ??_C@_0EB@OKAKGGLO@Can?8t?5call?5GetVisibilityTestResu@ 0061e750     d3d8d:d3dbase.obj
 0003:000406e0       ??_C@_0EA@CCFCEIIK@EndVisibilityTest?5wasn?8t?5called?5@ 0061e7a0     d3d8d:d3dbase.obj
 0003:0004072c       ??_C@_0CP@NELNLJGH@Index?5must?5be?5less?5than?5D3DVISIB@ 0061e7ec     d3d8d:d3dbase.obj
 0003:00040764       ??_C@_0CD@CKPJCALM@Can?8t?5request?5more?5than?54?5matric@ 0061e824     d3d8d:d3dbase.obj
 0003:00040790       ??_C@_0DJ@BLOBMCKA@Can?8t?5set?5any?5tile?5index?5of?5D3DT@ 0061e850     d3d8d:d3dbase.obj
 0003:000407d4       ??_C@_0CD@BEIBKFJB@Device?5hasn?8t?5been?5initialized?5y@ 0061e894     d3d8d:d3dbase.obj
 0003:00040800       ??_C@_0DF@JBMCGCCG@D3DDevice_SetFlickerFilter?5?9?5Bad@ 0061e8c0     d3d8d:d3dbase.obj
 0003:00040840       ??_C@_0BL@HKLOKFID@?$CBIsChildSurface?$CIpResource?$CJ?$AA@ 0061e900     d3d8d:d3dbase.obj
 0003:00040860       ??_C@_0EP@DMFAPOFM@?$CIpResource?9?$DOCommon?5?$CG?5D3DCOMMON_I@ 0061e920     d3d8d:d3dbase.obj
 0003:000408c0       ??_C@_0DG@FIELPDEH@?$CIpResource?9?$DOCommon?5?$CG?5D3DCOMMON_I@ 0061e980     d3d8d:d3dbase.obj
 0003:00040900       ??_C@_0BP@DMJHDIIM@PixelJar?3?3IsSurface?$CIpResource?$CJ?$AA@ 0061e9c0     d3d8d:d3dbase.obj
 0003:00040928       ??_C@_0DE@PADKIGGK@Failed?5to?5recreate?5frame?5and?5bac@ 0061e9e8     d3d8d:d3dbase.obj
 0003:00040968       ??_C@_0DO@PJICGGFF@The?5depth?5buffer?5must?5be?5at?5leas@ 0061ea28     d3d8d:d3dbase.obj
 0003:000409b4       ??_C@_0DA@MHJLIGBF@The?5data?5for?5a?5ZBuffer?5must?5be?56@ 0061ea74     d3d8d:d3dbase.obj
 0003:000409f0       ??_C@_0BN@PCBCABKJ@Invalid?5depth?5buffer?5format?4?$AA@ 0061eab0     d3d8d:d3dbase.obj
 0003:00040a18       ??_C@_0GA@GECGFJO@A?5swizzled?5render?5target?5require@ 0061ead8     d3d8d:d3dbase.obj
 0003:00040a8c       ??_C@_0DE@PEPIFMIA@A?5swizzled?5depth?5buffer?5can?8t?5be@ 0061eb4c     d3d8d:d3dbase.obj
 0003:00040ad0       ??_C@_0EF@OOBBOPKA@A?5render?5target?5that?5is?5only?51?5p@ 0061eb90     d3d8d:d3dbase.obj
 0003:00040b28       ??_C@_0FE@EJIIDILB@An?5ZBuffer?5requires?5a?5pitch?5that@ 0061ebe8     d3d8d:d3dbase.obj
 0003:00040b90       ??_C@_0FK@CIFCGBEG@A?5swizzled?5render?5target?5needs?5a@ 0061ec50     d3d8d:d3dbase.obj
 0003:00040c00       ??_C@_0GF@GILJPEEJ@An?5unswizzled?5render?5target?5requ@ 0061ecc0     d3d8d:d3dbase.obj
 0003:00040c7c       ??_C@_0CM@EEOOFGJO@The?5render?5target?5can?5be?5at?5most@ 0061ed3c     d3d8d:d3dbase.obj
 0003:00040cb0       ??_C@_0DG@LPPPKCEN@The?5data?5for?5a?5render?5target?5mus@ 0061ed70     d3d8d:d3dbase.obj
 0003:00040cf0       ??_C@_0DF@HLFNAHLF@ZStencil?5not?5a?5true?5surface?5?$CID3D@ 0061edb0     d3d8d:d3dbase.obj
 0003:00040d30       ??_C@_0DK@ECJNBPIB@Render?5target?5not?5a?5true?5surface@ 0061edf0     d3d8d:d3dbase.obj
 0003:00040d78       ??_C@_0BO@KHAIKCHJ@Invalid?5render?5target?5format?4?$AA@ 0061ee38     d3d8d:d3dbase.obj
 0003:00040d9c       ??_C@_0CH@GABFPKOD@Z?9buffer?5pitch?5doesn?8t?5match?5las@ 0061ee5c     d3d8d:d3dbase.obj
 0003:00040dcc       ??_C@_0CH@JCLOPEBF@Z?9buffer?5depth?5doesn?8t?5match?5las@ 0061ee8c     d3d8d:d3dbase.obj
 0003:00040dfc       ??_C@_0DM@IGGFFHGO@Color?5pitch?5doesn?8t?5match?5betwee@ 0061eebc     d3d8d:d3dbase.obj
 0003:00040e48       ??_C@_0ED@NDJOJBG@Effective?5dimensions?5don?8t?5match@ 0061ef08     d3d8d:d3dbase.obj
 0003:00040e98       ??_C@_0EC@MANAECOM@Multi?9sample?5mode?5doesn?8t?5match?5@ 0061ef58     d3d8d:d3dbase.obj
 0003:00040ee8       ??_C@_0BA@HFACJEBB@Flags?5must?5be?50?$AA@ 0061efa8     d3d8d:d3dbase.obj
 0003:00040efc       ??_C@_0O@NLNDHMII@Invalid?5index?$AA@ 0061efbc     d3d8d:d3dbase.obj
 0003:00040f0c       ??_C@_0BN@FHPKPOGM@BackBuffer?5index?5is?5too?5big?4?$AA@ 0061efcc     d3d8d:d3dbase.obj
 0003:00040f30       ??_C@_0DM@MMEELIMP@D3DDevice_SetCopyRectsState?5?9?5In@ 0061eff0     d3d8d:d3dbase.obj
 0003:00040f78       ??_C@_0FF@KKFDPOG@D3DDevice_SetCopyRectsState?5?9?5Co@ 0061f038     d3d8d:d3dbase.obj
 0003:00040fe0       ??_C@_0DF@LIOAEBMF@D3DDevice_SetCopyRectsState?5?9?5Ba@ 0061f0a0     d3d8d:d3dbase.obj
 0003:00041020       ??_C@_0HP@EBLGDFII@D3DDevice_CopyRects?5?9?5The?5source@ 0061f0e0     d3d8d:d3dbase.obj
 0003:000410b8       ??_C@_0FH@CODEFHIO@D3DDevice_CopyRects?5?9?5CopyRects?5@ 0061f178     d3d8d:d3dbase.obj
 0003:00041120       ??_C@_0GG@GNAOGEFA@D3DDevice_CopyRects?5?9?5The?5destin@ 0061f1e0     d3d8d:d3dbase.obj
 0003:000411a0       ??_C@_0FM@GJKGGMMJ@D3DDevice_CopyRects?5?9?5The?5source@ 0061f260     d3d8d:d3dbase.obj
 0003:00041210       ??_C@_0GE@BHMDBADO@D3DDevice_CopyRects?5?9?5Malformed?5@ 0061f2d0     d3d8d:d3dbase.obj
 0003:00041288       ??_C@_0CG@ENOBOHEA@DestPitch?5?$CF?564?5?$DN?$DN?50?5?$CG?$CG?5DestPitch@ 0061f348     d3d8d:d3dbase.obj
 0003:000412b8       ??_C@_0EB@PMHHDFDE@SourcePitch?5?$CF?564?5?$DN?$DN?50?5?$CG?$CG?5SourceP@ 0061f378     d3d8d:d3dbase.obj
 0003:00041308       ??_C@_0EP@IHHMGLHO@D3DDevice_CopyRects?5?9?5pixel?5size@ 0061f3c8     d3d8d:d3dbase.obj
 0003:00041368       ??_C@_0CI@NCMGMIBL@GPUCopyVideoRectangle?5?9?5Bad?5pixe@ 0061f428     d3d8d:d3dbase.obj
 0003:00041398       ??_C@_0DK@KFFPCAIL@pDevice?9?$DOm_CopyRectState?4Operati@ 0061f458     d3d8d:d3dbase.obj
 0003:000413e0       ??_C@_0EF@OGKCPAKM@?$CISwizzledColumns?5?1?5BytesPerPixel@ 0061f4a0     d3d8d:d3dbase.obj
 0003:00041434       ??_C@_0BC@KPIJMIHK@Slice?5?$CF?54096?5?$DN?$DN?50?$AA@ 0061f4f4     d3d8d:d3dbase.obj
 0003:00041450       ??_C@_0GA@LIAHHAAP@D3DDevice_CopyRects?5?9?5Swizzled?5s@ 0061f510     d3d8d:d3dbase.obj
 0003:000414c8       ??_C@_0FK@GHHHPFMK@D3DDevice_CopyRects?5?9?5Must?5use?5D@ 0061f588     d3d8d:d3dbase.obj
 0003:00041538       ??_C@_0GA@LCMKLGLA@D3DDevice_CopyRects?5?9?5CopyRects?5@ 0061f5f8     d3d8d:d3dbase.obj
 0003:000415b0       ??_C@_0FO@MPDLHAIK@D3DDevice_CopyRects?5?9?5The?5source@ 0061f670     d3d8d:d3dbase.obj
 0003:00041620       ??_C@_0GB@OMHGKLEC@D3DDevice_CopyRects?5?9?5The?5source@ 0061f6e0     d3d8d:d3dbase.obj
 0003:00041694       ??_C@_0CA@MMLDCKEP@This?5warning?5is?5shown?5only?5once?$AA@ 0061f754     d3d8d:d3dbase.obj
 0003:000416bc       ??_C@_0CF@OBCIJMKB@Setting?5wNear?5to?50?40?5and?5wFar?5to@ 0061f77c     d3d8d:d3dbase.obj
 0003:000416e8       ??_C@_0EC@GFJANJAL@Cannot?5compute?5WNear?5and?5WFar?5fr@ 0061f7a8     d3d8d:d3dbase.obj
 0003:00041738       ??_C@_0FA@EFJEAGBO@SetTransform?5called?5while?5Set?$FLVe@ 0061f7f8     d3d8d:d3dbase.obj
 0003:00041798       ??_C@_0CL@DAIFBAMP@Invalid?5state?5value?5passed?5to?5Se@ 0061f858     d3d8d:d3dbase.obj
 0003:000417cc       ??_C@_0DA@PNLHFJBO@Invalid?5state?5value?5passed?5to?5Mu@ 0061f88c     d3d8d:d3dbase.obj
 0003:00041808       ??_C@_0HB@CIGOLOME@Invalid?5effective?5clip?5dimension@ 0061f8c8     d3d8d:d3dbase.obj
 0003:00041890       ??_C@_0CJ@GAOKIIGN@pDevice?9?$DOm_EnabledLights?$FLslot?$FN?5?$DN@ 0061f950     d3d8d:d3dbase.obj
 0003:000418c4       ??_C@_0BO@BMCDLNNO@Light?5index?5is?5more?5than?54095?$AA@ 0061f984     d3d8d:d3dbase.obj
 0003:000418e8       ??_C@_0CH@DLPIAKHA@pDevice?9?$DOm_EnabledLights?$FLslot?$FN?5?$DN@ 0061f9a8     d3d8d:d3dbase.obj
 0003:00041918       ??_C@_0CP@JANEOOMK@Can?8t?5enable?5more?5than?58?5lights?5@ 0061f9d8     d3d8d:d3dbase.obj
 0003:00041950       ??_C@_0CK@IBGHACCA@D3DDevice_GetTexture?5?9?5Bad?5textu@ 0061fa10     d3d8d:d3dbase.obj
 0003:00041984       ??_C@_0BC@CGILGCKN@pPrevious?5?$CB?$DN?5NULL?$AA@ 0061fa44     d3d8d:d3dbase.obj
 0003:000419a0       ??_C@_0EF@LCCGGOGK@D3DDevice_SetTexture?5?9?5a?5non?9top@ 0061fa60     d3d8d:d3dbase.obj
 0003:000419f4       ??_C@_0CK@ONLEHGOD@D3DDevice_SetTexture?5?9?5Bad?5textu@ 0061fab4     d3d8d:d3dbase.obj
 0003:00041a28       ??_C@_0EB@OGFFOHME@Cubemap?9ness?5and?5dimensionality?5@ 0061fae8     d3d8d:d3dbase.obj
 0003:00041a78       ??_C@_0CP@HINPDHIC@Can?8t?5call?5SwitchTexture?5with?5a?5@ 0061fb38     d3d8d:d3dbase.obj
 0003:00041ab0       ??_C@_0EK@LPAENDJC@Can?8t?5call?5SwitchTexture?5when?5pr@ 0061fb70     d3d8d:d3dbase.obj
 0003:00041b08       ??_C@_0BO@HMIMPPGP@Invalid?5texture?5unit?5encoding?$AA@ 0061fbc8     d3d8d:d3dbase.obj
 0003:00041b2c       ??_C@_0CK@LHBCGLCE@D3DDevice_GetPalette?5?9?5Bad?5textu@ 0061fbec     d3d8d:d3dbase.obj
 0003:00041b60       ??_C@_0BL@FJGAAONL@?$CIpPalette?9?$DOData?5?$CG?563?$CJ?5?$DN?$DN?50?$AA@ 0061fc20     d3d8d:d3dbase.obj
 0003:00041b80       ??_C@_0HO@MANHJAAC@contextAndLength?5?$DM?$DN?5?$CIDRF_DEF?$CI097@ 0061fc40     d3d8d:d3dbase.obj
 0003:00041c18       ??_C@_0BM@ODPAPOKG@?$CIcontextAndLength?5?$CG?52?$CJ?5?$DN?$DN?50?$AA@ 0061fcd8     d3d8d:d3dbase.obj
 0003:00041c3c       ??_C@_0BD@NICFPLMF@Bad?5texture?5stage?4?$AA@ 0061fcfc     d3d8d:d3dbase.obj
 0003:00041c58       ??_C@_0EB@GJJGKIOO@Can?8t?5set?5non?9zero?5BaseVertexInd@ 0061fd18     d3d8d:d3dbase.obj
 0003:00041ca8       ??_C@_0EB@HOKCBCEC@The?5previous?5visibility?5test?5for@ 0061fd68     d3d8d:d3dbase.obj
 0003:00041cf8       ??_C@_0DA@KMEPJIEH@Possible?5deadlock?0?5blocked?5for?5m@ 0061fdb8     d3d8d:d3dbase.obj
 0003:00041d38       ??_C@_0EG@LBCLGGOC@Can?5call?5SetVertexBlendModelView@ 0061fdf8     d3d8d:d3dbase.obj
 0003:00041d8c       ??_C@_0DD@IFBPKNJE@SetModelView?5will?5nuke?5negative?5@ 0061fe4c     d3d8d:d3dbase.obj
 0003:00041dcc       ??_C@_0CF@FJMACPDA@All?5pointers?5must?5be?5NULL?5to?5dis@ 0061fe8c     d3d8d:d3dbase.obj
 0003:00041df8       ??_C@_0EF@HBNKGCJP@Can?5call?5SetVertexBlendModelView@ 0061feb8     d3d8d:d3dbase.obj
 0003:00041e4c       ??_C@_0BD@LAPMJLFG@Count?5out?5of?5range?$AA@ 0061ff0c     d3d8d:d3dbase.obj
 0003:00041e64       ??_C@_0DP@LFIOOEKG@SetVertexBlendModelViews?5will?5nu@ 0061ff24     d3d8d:d3dbase.obj
 0003:00041eb0       ??_C@_0DF@COPGFAOJ@Z?5tag?5range?5overlaps?5with?5a?5tag?5@ 0061ff70     d3d8d:d3dbase.obj
 0003:00041ef0       ??_C@_0HN@FFFBHINJ@ZOffset?5can?5only?5be?5used?5for?5the@ 0061ffb0     d3d8d:d3dbase.obj
 0003:00041f88       ??_C@_0DG@LEFBDLNA@ZOffset?5must?5be?5a?5multiple?5of?5D3@ 00620048     d3d8d:d3dbase.obj
 0003:00041fc8       ??_C@_0DA@LBLFIHDA@ZStart?5can?8t?5be?5D3DTILE_MAXTAGS?5@ 00620088     d3d8d:d3dbase.obj
 0003:00042004       ??_C@_0CE@ENAMOHH@ZStartTag?5must?5be?5a?5multiple?5of?5@ 006200c4     d3d8d:d3dbase.obj
 0003:00042030       ??_C@_0CM@BKBOFFID@Pitch?5must?5be?5a?5valid?5D3DTILE_PI@ 006200f0     d3d8d:d3dbase.obj
 0003:00042064       ??_C@_0DD@BHFEPAKL@Size?5must?5be?5a?5multiple?5of?5D3DTI@ 00620124     d3d8d:d3dbase.obj
 0003:000420a4       ??_C@_0DG@HNJOMBKP@pMemory?5must?5be?5a?5multiple?5of?5D3@ 00620164     d3d8d:d3dbase.obj
 0003:000420e4       ??_C@_0CK@EPFNIFIO@Size?5can?8t?5be?5zero?5if?5pMemory?5is@ 006201a4     d3d8d:d3dbase.obj
 0003:00042118       ??_C@_0O@IAEHGFJM@Invalid?5Flags?$AA@ 006201d8     d3d8d:d3dbase.obj
 0003:00042128       ??_C@_0DN@HFKFEDMF@Tile?5already?5in?5use?5?9?5set?5to?5NUL@ 006201e8     d3d8d:d3dbase.obj
 0003:00042174       ??_C@_0DB@LNJOFNJP@GPU?5should?5be?5idle?5for?5SetTileCo@ 00620234     d3d8d:d3dbase.obj
 0003:000421b0       ??_C@_0BP@FNJAKKCJ@Address?5?$CL?5Count?5must?5be?5?$DM?$DN?5600?$AA@ 00620270     d3d8d:d3dbase.obj
 0003:000421d8       ??_C@_0BI@KLEIEAMC@Partition?5must?5be?50?5?9?53?$AA@ 00620298     d3d8d:d3dbase.obj
 0003:000421f4       ??_C@_0DB@DNFIJADJ@GPU?5should?5be?5idle?5for?5GetTileCo@ 006202b4     d3d8d:d3dbase.obj
 0003:00042230       ??_C@_0CH@NCBAEHEI@ZEndTag?5must?5be?5greater?5than?5ZSt@ 006202f0     d3d8d:d3dbase.obj
 0003:00042260       ??_C@_0DG@MIPMPPHJ@ZEndTag?5can?8t?5be?5greater?5than?5D3@ 00620320     d3d8d:d3dbase.obj
 0003:000422a0       ??_C@_0CC@OBKGFBDB@ZEndTag?5must?5be?5a?5multiple?5of?525@ 00620360     d3d8d:d3dbase.obj
 0003:000422c8       ??_C@_0FD@PADENIAL@?$CIx?5?$CL?5width?5?$DM?$DN?5pDevice?9?$DOm_Surface@ 00620388     d3d8d:d3dbase.obj
 0003:0004232c       ??_C@_0DI@CPCPFFPC@SetScissors?5rectangle?5dimension?5@ 006203ec     d3d8d:d3dbase.obj
 0003:00042370       ??_C@_0CJ@FCJJNMJM@pRects?5can?5be?5NULL?5only?5if?5Count@ 00620430     d3d8d:d3dbase.obj
 0003:000423a4       ??_C@_0BI@LEDFOGCN@Invalid?5Exclusive?5value?$AA@ 00620464     d3d8d:d3dbase.obj
 0003:000423c0       ??_C@_0CN@CMHODFHI@Count?5can?8t?5be?5more?5than?5D3DSCIS@ 00620480     d3d8d:d3dbase.obj
 0003:000423f8       ??_C@_0CB@MPNLHHBK@D3D__AllocsNoncontiguous?5?$DO?$DN?5size@ 006204b8     d3d8d:memory.obj
 0003:00042420       ??_C@_0BN@DFCDNKKM@MemFree?5?9?5Invalid?5pointer?5?$CFx?$AA@ 006204e0     d3d8d:memory.obj
 0003:00042444       ??_C@_0BO@KIBIIKE@D3D__AllocsContiguous?5?$DO?$DN?5size?$AA@ 00620504     d3d8d:memory.obj
 0003:00042468       ??_C@_0DJ@MFIMKNEL@D3D_AllocContiguousMemory?5alignm@ 00620528     d3d8d:memory.obj
 0003:000424ac       ??_C@_0DK@JKONBLGE@D3D_AllocContiguousMemory?5alignm@ 0062056c     d3d8d:memory.obj
 0003:000424f4       ??_C@_08LPCDBLNN@D3DFixup?$AA@ 006205b4     d3d8d:resource.obj
 0003:00042500       ??_C@_0L@BGLDBADN@D3DSurface?$AA@ 006205c0     d3d8d:resource.obj
 0003:00042510       ??_C@_0L@CIMGLOB@D3DTexture?$AA@ 006205d0     d3d8d:resource.obj
 0003:00042520       ??_C@_0L@LHPKEGA@D3DPalette?$AA@ 006205e0     d3d8d:resource.obj
 0003:00042530       ??_C@_0O@IOCIOEPF@D3DPushBuffer?$AA@ 006205f0     d3d8d:resource.obj
 0003:00042540       ??_C@_0P@PFMGCGA@D3DIndexBuffer?$AA@ 00620600     d3d8d:resource.obj
 0003:00042554       ??_C@_0BA@JGKGAOJA@D3DVertexBuffer?$AA@ 00620614     d3d8d:resource.obj
 0003:000425c0       ??_C@_0CI@EMFLNAIP@not?5derived?5from?5the?5IUnknown?5in@ 00620680     d3d8d:resource.obj
 0003:000425f0       ??_C@_0DH@EFGOHII@Possible?5attempt?5to?5use?5D3DSPD_I@ 006206b0     d3d8d:resource.obj
 0003:00042638       ??_C@_0FC@JGPLNNH@DestroyResource?5?9?5The?5reference?5@ 006206f8     d3d8d:resource.obj
 0003:000426a0       ??_C@_0FM@JKGEMPII@Validate?3?5The?5?$CFs?5?8?$CFs?8?5structure?5@ 00620760     d3d8d:resource.obj
 0003:00042710       ??_C@_0BA@IHPCNGOC@user?9Registered?$AA@ 006207d0     d3d8d:resource.obj
 0003:00042724       ??_C@_0M@JAAAGMMB@D3D?9created?$AA@ 006207e4     d3d8d:resource.obj
 0003:00042738       ??_C@_0OL@KHOPNLIH@?6Validate?3?5The?5user?9Registered?5?8@ 006207f8     d3d8d:resource.obj
 0003:00042854       ??_C@_0DP@CBEBDECE@Validate?3?5Invalid?5?8Format?8?5field@ 00620914     d3d8d:resource.obj
 0003:000428a0       ??_C@_0DO@BAPKGMCK@Validate?3?5Invalid?5?8Format?8?5field@ 00620960     d3d8d:resource.obj
 0003:000428f0       ??_C@_0EO@MECDGBKI@Validate?3?5Invalid?5?8Format?8?5field@ 006209b0     d3d8d:resource.obj
 0003:00042950       ??_C@_0DC@MOCIPOJE@Validate?3?5Invalid?5?8Size?8?5field?5?$CI@ 00620a10     d3d8d:resource.obj
 0003:0004298c       ??_C@_0DF@CCFCCDNF@Validate?3?5Invalid?5?8Format?8?5field@ 00620a4c     d3d8d:resource.obj
 0003:000429cc       ??_C@_0DM@GHEJOIOO@Validate?3?5Invalid?5?8Common?8?5field@ 00620a8c     d3d8d:resource.obj
 0003:00042a14       ??_C@_0DA@IDCJKANA@Validate?3?5Invalid?5?8Data?8?5field?5?$CI@ 00620ad4     d3d8d:resource.obj
 0003:00042a50       ??_C@_0CM@LCFBCANH@Validate?3?5Invalid?5?8Data?8?5field?5?$CI@ 00620b10     d3d8d:resource.obj
 0003:00042a84       ??_C@_0DB@KGLAFNFF@Validate?3?5Invalid?5?8Lock?8?5field?5?$CI@ 00620b44     d3d8d:resource.obj
 0003:00042ac0       ??_C@_0DI@DJACLJMG@Validate?3?5Invalid?5?8Common?8?5field@ 00620b80     d3d8d:resource.obj
 0003:00042b08       ??_C@_0FG@PEJDFABB@Validate?3?5Invalid?5?8Parent?8?5field@ 00620bc8     d3d8d:resource.obj
 0003:00042b70       ??_C@_0DN@PPIGBLBP@Validate?3?5Invalid?5?8Common?8?5field@ 00620c30     d3d8d:resource.obj
 0003:00042bbc       ??_C@_0CC@MKOLAKO@Validate?3?5NULL?5resource?5pointer?4@ 00620c7c     d3d8d:resource.obj
 0003:00042be8       ??_C@_0EE@GBCCIJLF@?$CIpResource?9?$DOCommon?5?$CG?5D3DCOMMON_T@ 00620ca8     d3d8d:resource.obj
 0003:00042c40       ??_C@_0ED@EDFPOPAK@D3DResource_AddRef?5overflow?5?9?5wa@ 00620d00     d3d8d:resource.obj
 0003:00042c90       ??_C@_0EF@NCNJGGFE@D3DResource_Release?5underflow?5?9?5@ 00620d50     d3d8d:resource.obj
 0003:00042ce4       ??_C@_0CE@DAPOCMLH@D3DResource_GetType?5?9?5unknown?5ty@ 00620da4     d3d8d:resource.obj
 0003:00042d10       ??_C@_0EL@DKLIGAMF@D3DResource_Register?5?9?5The?5objec@ 00620dd0     d3d8d:resource.obj
 0003:00042d70       ??_C@_0EN@HOPMMMMA@D3DResource_Register?5?9?5D3DResour@ 00620e30     d3d8d:resource.obj
 0003:00042dcc       ??_C@_0DC@DOFDNLM@D3DResource_Register?5?9?5Lock?5fiel@ 00620e8c     d3d8d:resource.obj
 0003:00042e08       ??_C@_0CP@PIIMCIIO@D3DResource_Register?5?9?5Do?5not?5re@ 00620ec8     d3d8d:resource.obj
 0003:00042e40       ??_C@_0DG@NIJLIHNB@D3DResource_Register?5?9?5Do?5not?5re@ 00620f00     d3d8d:resource.obj
 0003:00042e80       ??_C@_0DP@PBBFBAHL@D3DResource_Register?5?9?5Do?5not?5re@ 00620f40     d3d8d:resource.obj
 0003:00042ecc       ??_C@_0DC@CLDHLALM@Invalid?5SizeOfData?5for?5IUnknown?5@ 00620f8c     d3d8d:resource.obj
 0003:00042f08       ??_C@_0CA@LKLBDBBE@Invalid?5flags?5to?5SetPrivateData?$AA@ 00620fc8     d3d8d:resource.obj
 0003:00042f30       ??_C@_0BF@JMIIBPPG@?$CB?$CI?$CIcount?5?9?515?$CJ?5?$CF?516?$CJ?$AA@ 00620ff0     d3d8d:drawprim.obj
 0003:00042f4c       ??_C@_0BB@NKMDADPJ@count?5?$DO?$DN?515?5?$CL?516?$AA@ 0062100c     d3d8d:drawprim.obj
 0003:00042f60       ??_C@_0CI@OOIBOIP@?$CB?$CIm_StateFlags?5?$CG?5STATE_BEGINENDB@ 00621020     d3d8d:drawprim.obj
 0003:00042f90       ??_C@_0CH@GLFHGJNH@?$CB?$CIstateFlags?5?$CG?5STATE_RECORDPUSHB@ 00621050     d3d8d:drawprim.obj
 0003:00042fc0       ??_C@_0CF@PLJGOBKI@m_StateFlags?5?$CG?5STATE_BEGINENDBRA@ 00621080     d3d8d:drawprim.obj
 0003:00042ff0       ??_C@_0IC@BPLOBEMA@Vertex?5or?5index?5data?5for?5this?5ca@ 006210b0     d3d8d:drawprim.obj
 0003:0004308c       ??_C@_0BK@BBDNHEJI@?$CIcount?$CJ?5?$CG?$CG?5?$CIcount?5?$DM?52048?$CJ?$AA@ 0062114c     d3d8d:drawprim.obj
 0003:000430ac       ??_C@_0DD@EEGLELPJ@DWORD?5alignment?5is?5required?5for?5@ 0062116c     d3d8d:drawprim.obj
 0003:000430ec       ??_C@_0DD@BBBPALEC@DWORD?5alignment?5is?5required?5for?5@ 006211ac     d3d8d:drawprim.obj
 0003:0004312c       ??_C@_0N@KGACPIIJ@NULL?5pointer?$AA@ 006211ec     d3d8d:drawprim.obj
 0003:0004313c       ??_C@_0P@CKJLCCHP@Invalid?5stride?$AA@ 006211fc     d3d8d:drawprim.obj
 0003:00043150       ??_C@_0BH@HJMOEJID@Invalid?5primitive?5type?$AA@ 00621210     d3d8d:drawprim.obj
 0003:0004316c       ??_C@_0BB@OHDBMGEF@Zero?5VertexCount?$AA@ 0062122c     d3d8d:drawprim.obj
 0003:00043180       ??_C@_0EH@HLODDIAD@W?5buffering?5is?5not?5supported?5wit@ 00621240     d3d8d:drawprim.obj
 0003:000431d8       ??_C@_0DH@MKEBHOIH@Can?5only?5do?5D3DPT_POINTLIST?5when@ 00621298     d3d8d:drawprim.obj
 0003:0004321c       ??_C@_0BB@BJHAFOLB@VertexCount?5?$DO?$DN?51?$AA@ 006212dc     d3d8d:drawprim.obj
 0003:00043230       ??_C@_0BF@KHOMBPMK@drawArraysCount?5?$DN?$DN?51?$AA@ 006212f0     d3d8d:drawprim.obj
 0003:0004324c       ??_C@_0BG@OKBIBJIA@drawArraysCount?9?9?5?$DO?51?$AA@ 0062130c     d3d8d:drawprim.obj
 0003:00043268       ??_C@_0CO@KPHFOJKI@Hardware?5can?8t?5take?5more?5than?50x@ 00621328     d3d8d:drawprim.obj
 0003:000432a0       ??_C@_0DD@ELEHDKFA@Hardware?5can?8t?5take?5a?5StartVerte@ 00621360     d3d8d:drawprim.obj
 0003:000432e0       ??_C@_0BH@MECBGGGC@?$CIINT?$CJ?5VertexCount?5?$DO?$DN?50?$AA@ 006213a0     d3d8d:drawprim.obj
 0003:000432fc       ??_C@_0BH@CLJFFACA@?$CB?$CI?$CIDWORD?$CJpPush?5?$CG?50x1f?$CJ?$AA@ 006213bc     d3d8d:drawprim.obj
 0003:00043318       ??_C@_0N@IKBPHMOD@dwAlign?5?$DM?$DN?57?$AA@ 006213d8     d3d8d:drawprim.obj
 0003:00043328       ??_C@_0BO@JEFJMFAA@Pointer?5to?5index?5data?5is?5NULL?$AA@ 006213e8     d3d8d:drawprim.obj
 0003:0004334c       ??_C@_0BE@FAAHPGOP@Invalid?5VertexCount?$AA@ 0062140c     d3d8d:drawprim.obj
 0003:00043364       ??_C@_0BC@HLOHPCGA@Goofy?5VertexCount?$AA@ 00621424     d3d8d:drawprim.obj
 0003:0004337c       ??_C@_0BB@IGDLPBAO@Invalid?5register?$AA@ 0062143c     d3d8d:drawprim.obj
 0003:00043390       ??_C@_0DF@NMJMKCMN@D3DVSDE_VERTEX?5specified?5outside@ 00621450     d3d8d:drawprim.obj
 0003:000433d0       ??_C@_0CA@PJPFLDGC@g_pD3DPerfEventBeginEnd?5?$DN?$DN?5NULL?$AA@ 00621490     d3d8d:drawprim.obj
 0003:000433f8       ??_C@_0EA@IMKPILCF@D3DDevice_Begin?5?9?5Begin?5before?5a@ 006214b8     d3d8d:drawprim.obj
 0003:00043444       ??_C@_0CO@CAGFJJPP@D3DDevice_End?5?9?5End?5without?5a?5ma@ 00621504     d3d8d:drawprim.obj
 0003:0004347c       ?g_TextureFormatMask@D3D@@3QBKB 0062153c     d3d8d:vshader.obj
 0003:000434a8       ?g_BytesPerUnit@D3D@@3QBEB 00621568     d3d8d:vshader.obj
 0003:000434b0       ?g_UnitsOfElement@D3D@@3QBEB 00621570     d3d8d:vshader.obj
 0003:000434c0       ?g_IdentityMatrix@D3D@@3U_D3DMATRIX@@B 00621580     d3d8d:vshader.obj
 0003:0004350c       ?g_FixedFunctionPipelineConstants@D3D@@3QBKB 006215cc     d3d8d:vshader.obj
 0003:00043548       ?g_PassthruProgramWFog@D3D@@3QBKB 00621608     d3d8d:vshader.obj
 0003:00043630       ?g_PassthruProgramZFog@D3D@@3QBKB 006216f0     d3d8d:vshader.obj
 0003:00043708       ?g_PassthruProgramSpecularFog@D3D@@3QBKB 006217c8     d3d8d:vshader.obj
 0003:000437f0       ?g_TextureCount@D3D@@3QBKB 006218b0     d3d8d:vshader.obj
 0003:00043804       ??_C@_0CB@PHKFKCND@numTextures?5?$DM?$DN?5D3DDP_MAXTEXCOORD@ 006218c4     d3d8d:vshader.obj
 0003:0004382c       ??_C@_0N@FCEFPFAH@weights?5?$DN?$DN?54?$AA@ 006218ec     d3d8d:vshader.obj
 0003:0004383c       ??_C@_0N@CPDCABEC@weights?5?$DN?$DN?51?$AA@ 006218fc     d3d8d:vshader.obj
 0003:0004384c       ??_C@_0DE@LLNGCEJM@Normal?5should?5not?5be?5used?5with?5X@ 0062190c     d3d8d:vshader.obj
 0003:0004388c       ??_C@_0CA@HEHFEDOA@FVF?5has?5incorrect?5position?5type?$AA@ 0062194c     d3d8d:vshader.obj
 0003:000438b4       ??_C@_0BM@HLFOOGLF@FVF?5has?5reserved?5bit?$CIs?$CJ?5set?$AA@ 00621974     d3d8d:vshader.obj
 0003:000438d8       ??_C@_0CB@ONIBJMIK@FVF?5has?5incorrect?5texture?5format@ 00621998     d3d8d:vshader.obj
 0003:00043900       ??_C@_0GH@DMPFOLNB@pProgramAndConstants?5?$DN?$DN?5?$CGpVertex@ 006219c0     d3d8d:vshader.obj
 0003:00043980       ??_C@_0FH@HAGKBBAG@?$CImethodEncode?5?$CG?50xffff?$CJ?5?$DN?$DN?5PUSHE@ 00621a40     d3d8d:vshader.obj
 0003:000439e8       ??_C@_0EI@MFMJIECF@pConstants?5?$CL?5count?5?$DM?$DN?5?$CGg_VertexS@ 00621aa8     d3d8d:vshader.obj
 0003:00043a40       ??_C@_0DI@CJLMMLLK@?$CI?$CIcount?5?$CG?53?$CJ?5?$DN?$DN?50?$CJ?5?$CG?$CG?5?$CIcount?5?$DM?5V@ 00621b00     d3d8d:vshader.obj
 0003:00043a88       ??_C@_0FJ@OJFNNPBJ@?$CImethodEncode?5?$CG?50xffff?$CJ?5?$DN?$DN?5PUSHE@ 00621b48     d3d8d:vshader.obj
 0003:00043af4       ??_C@_0CE@FJEIAEBF@constantSlot?5?$DM?5VSHADER_CONSTANT_@ 00621bb4     d3d8d:vshader.obj
 0003:00043b20       ??_C@_0FB@PAHPDFFM@pSlots?5?$CL?5count?5?$DM?$DN?5?$CGpDevice?9?$DOm_Ve@ 00621be0     d3d8d:vshader.obj
 0003:00043b88       ??_C@_0EI@FMNNPLNH@?$CI?$CIcount?5?$CG?53?$CJ?5?$DN?$DN?50?$CJ?5?$CG?$CG?5?$CIcount?5?$CB?$DN?5@ 00621c48     d3d8d:vshader.obj
 0003:00043be0       ??_C@_0L@EJHHCBB@count?5?$CB?$DN?50?$AA@ 00621ca0     d3d8d:vshader.obj
 0003:00043bf0       ??_C@_0N@HHPCKPHG@Null?5pointer?$AA@ 00621cb0     d3d8d:vshader.obj
 0003:00043c00       ??_C@_0CD@KIEPPLFL@Bad?5declaration?5CONST?5token?3?50x?$CF@ 00621cc0     d3d8d:vshader.obj
 0003:00043c2c       ??_C@_0BC@DBCPLAKL@Token?5type?3?50x?$CFlx?$AA@ 00621cec     d3d8d:vshader.obj
 0003:00043c44       ??_C@_0BE@OAECGIIC@Unidentified?5token?6?$AA@ 00621d04     d3d8d:vshader.obj
 0003:00043c5c       ??_C@_0CE@FNKMGIDM@Bad?5declaration?5STREAM?5token?3?50x@ 00621d1c     d3d8d:vshader.obj
 0003:00043c88       ??_C@_0DH@MCDIFIFP@?$CIpVertexShader?9?$DODimensionality?5?$CG@ 00621d48     d3d8d:vshader.obj
 0003:00043ccc       ??_C@_0BG@KOHIBHKI@Invalid?5type?5encoding?$AA@ 00621d8c     d3d8d:vshader.obj
 0003:00043ce8       ??_C@_0CG@JMCLAKEG@Can?8t?5specify?5a?5register?5more?5th@ 00621da8     d3d8d:vshader.obj
 0003:00043d18       ??_C@_0CB@DFIPDGBF@Bad?5declaration?5REG?5token?3?50x?$CFlx@ 00621dd8     d3d8d:vshader.obj
 0003:00043d40       ??_C@_0CC@LNPPHCBF@Bad?5declaration?5SKIP?5token?3?50x?$CFl@ 00621e00     d3d8d:vshader.obj
 0003:00043d68       ??_C@_0DA@GDJBAAFE@?$CIpPush?5?$DN?$DN?5NULL?$CJ?5?$HM?$HM?5?$CIpPush?5?$DN?$DN?5pPu@ 00621e28     d3d8d:vshader.obj
 0003:00043da8       ??_C@_0JC@OOMFPJIF@Address?5range?5can?8t?5include?5rese@ 00621e68     d3d8d:vshader.obj
 0003:00043e58       ??_C@_0EO@EMIEAOLH@Invalid?5constant?5address?5range?5?$CI@ 00621f18     d3d8d:vshader.obj
 0003:00043eb8       ??_C@_0DA@JCJBFNBM@Invalid?5declaration?5token?5?$CImissi@ 00621f78     d3d8d:vshader.obj
 0003:00043ef4       ??_C@_0CC@PHDPLKOD@programSize?5?$DN?$DN?54?5?$CK?5functionDword@ 00621fb4     d3d8d:vshader.obj
 0003:00043f20       ??_C@_0IO@KIBHLFN@?$CIUsage?5?$CG?5?$HO?$CID3DUSAGE_PERSISTENTDI@ 00621fe0     d3d8d:vshader.obj
 0003:00043fcc       ??_C@_0DH@DFGOMKPH@Declaration?5pointer?5can?5be?5NULL?5@ 0062208c     d3d8d:vshader.obj
 0003:00044010       ??_C@_0DD@DAPPAEGJ@State?5shaders?5must?5pass?5a?5NULL?5d@ 006220d0     d3d8d:vshader.obj
 0003:00044050       ??_C@_0GO@LDJNALAE@?$CIPerhaps?5you?8re?5calling?5with?5a?5D@ 00622110     d3d8d:vshader.obj
 0003:000440d8       ??_C@_0FI@JGHLGLIO@Invalid?5function?5header?4?5?5Only?5v@ 00622198     d3d8d:vshader.obj
 0003:00044144       ??_C@_0BD@DGPMADLF@Invalid?5usage?5flag?$AA@ 00622204     d3d8d:vshader.obj
 0003:00044160       ??_C@_0HL@EFPAOGAJ@Address?5range?5can?8t?5include?5rese@ 00622220     d3d8d:vshader.obj
 0003:000441f4       ??_C@_0DK@NIGMDLDI@Negative?5addresses?5allowed?5only?5@ 006222b4     d3d8d:vshader.obj
 0003:0004423c       ??_C@_0CP@DDKHGFOM@Invalid?5address?5range?5?$CInot?5betwe@ 006222fc     d3d8d:vshader.obj
 0003:00044274       ??_C@_0O@PGNOGEJ@Invalid?5count?$AA@ 00622334     d3d8d:vshader.obj
 0003:00044284       ??_C@_0BD@EIMPNJEF@Invalid?5DwordCount?$AA@ 00622344     d3d8d:vshader.obj
 0003:0004429c       ??_C@_0DD@KCHMLDEN@Can?8t?5query?5the?5constant?5registe@ 0062235c     d3d8d:vshader.obj
 0003:000442dc       ??_C@_0DB@KLAPEIPA@Register?5range?5can?8t?5include?5res@ 0062239c     d3d8d:vshader.obj
 0003:00044318       ??_C@_0DK@GECDPLJI@Negative?5registers?5allowed?5only?5@ 006223d8     d3d8d:vshader.obj
 0003:00044360       ??_C@_0O@KDMHEBBH@Invalid?5range?$AA@ 00622420     d3d8d:vshader.obj
 0003:00044370       ??_C@_0FE@KNNKKMFN@Invalid?5Format?5in?5D3DVERTEXATTRI@ 00622430     d3d8d:vshader.obj
 0003:000443d8       ??_C@_0EB@EKLHDNGO@Invalid?5Format?5in?5Input?5?$CFd?5of?5D3@ 00622498     d3d8d:vshader.obj
 0003:00044428       ??_C@_0EO@CIKACGPM@SetStreamSource?5called?5while?5Set@ 006224e8     d3d8d:vshader.obj
 0003:00044488       ??_C@_0CE@MCLKFCJM@NV2A?5allows?5a?5maximum?5stride?5of?5@ 00622548     d3d8d:vshader.obj
 0003:000444b4       ??_C@_0BG@LEHOPBGI@Invalid?5stream?5number?$AA@ 00622574     d3d8d:vshader.obj
 0003:000444d0       ??_C@_0DJ@HPPHDDEA@Can?8t?5run?5a?5vertex?5state?5shader?5@ 00622590     d3d8d:vshader.obj
 0003:00044514       ??_C@_0CH@DNOOKINJ@Start?5address?5can?8t?5be?5larger?5th@ 006225d4     d3d8d:vshader.obj
 0003:00044544       ??_C@_0CJ@EOAFAIGL@Must?5have?5a?5vertex?5state?5shader?5@ 00622604     d3d8d:vshader.obj
 0003:00044578       ??_C@_0BM@CJBEKNPP@End?5address?5larger?5than?5136?$AA@ 00622638     d3d8d:vshader.obj
 0003:0004459c       ??_C@_0DA@MIGHDFNI@Invalid?5vertex?5shader?5object?5?$CIal@ 0062265c     d3d8d:vshader.obj
 0003:000445d8       ??_C@_0CM@CPLOHJLO@Must?5be?5a?5vertex?5shader?5program?0@ 00622698     d3d8d:vshader.obj
 0003:0004460c       ??_C@_0DK@HJCMJNDM@Length?5specified?5in?5second?5WORD?5@ 006226cc     d3d8d:vshader.obj
 0003:00044658       ??_C@_0GA@LBFOINDB@Must?5be?5a?5programmable?5vertex?5sh@ 00622718     d3d8d:vshader.obj
 0003:000446d0       ??_C@_0GB@FJIKHMOG@Shader?5handle?5required?5in?5Select@ 00622790     d3d8d:vshader.obj
 0003:00044744       ??_C@_0DM@FGHGHHPJ@Can?8t?5select?5a?5vertex?5state?5shad@ 00622804     d3d8d:vshader.obj
 0003:0004478c       ??_C@_0DG@DJBLHFNA@Can?8t?5set?5constant?5mode?5while?5re@ 0062284c     d3d8d:vshader.obj
 0003:000447cc       ??_C@_0N@HLFHGGIB@Invalid?5mode?$AA@ 0062288c     d3d8d:vshader.obj
 0003:000447dc       ??_C@_0DF@LMNBJDJK@Can?8t?5delete?5a?5vertex?5shader?5tha@ 0062289c     d3d8d:vshader.obj
 0003:0004481c       ??_C@_0CD@GIAJNKCK@Invalid?5vertex?5shader?5handle?5val@ 006228dc     d3d8d:vshader.obj
 0003:00044848       ??_C@_0CP@BMDPEPJ@?$CB?$CIpVertexShader?9?$DOFlags?5?$CG?5VERTEXS@ 00622908     d3d8d:vshader.obj
 0003:00044880       ??_C@_0EE@LKMGIIIE@Can?8t?5use?5fixed?5function?5pipelin@ 00622940     d3d8d:vshader.obj
 0003:000448d8       ??_C@_0EO@CAKHIOOL@SetVertexShader?5called?5while?5Set@ 00622998     d3d8d:vshader.obj
 0003:00044938       ??_C@_0BA@KIDBJOKH@slotCount?5?$DM?$DN?515?$AA@ 006229f8     d3d8d:vshader.obj
 0003:0004494c       ??_C@_0BL@BLBIAJE@currentEndOffset?5?$CB?$DN?5offset?$AA@ 00622a0c     d3d8d:vshader.obj
 0003:0004496c       ??_C@_0BO@LNLCEMLH@Can?8t?5have?5a?5NULL?5pSizeOfData?$AA@ 00622a2c     d3d8d:vshader.obj
 0003:00044990       ??_C@_0CL@LIKPONOL@?$CIDWORD?$CJ?5pDst?5?9?5?$CIDWORD?$CJ?5pData?5?$DN?$DN?5@ 00622a50     d3d8d:vshader.obj
 0003:000449c8       ??_C@_0EJ@OMDKLKAK@Vertex?5Shader?5references?5more?5st@ 00622a88     d3d8d:vshader.obj
 0003:00044a20       ??_C@_0DO@NAHHKKFO@D3DTSS_TEXCOORDINDEX?5mapping?5for@ 00622ae0     d3d8d:vshader.obj
 0003:00044a6c       ??_C@_0CC@PNFJFOCM@Can?8t?5have?5a?5stride?5more?5than?525@ 00622b2c     d3d8d:vshader.obj
 0003:00044a94       ??_C@_0CA@IPBCNNEN@Can?8t?5specify?5NULL?5VertexBuffer?$AA@ 00622b54     d3d8d:vshader.obj
 0003:00044abc       ??_C@_0CI@KAOAOIIK@Stream?5count?5can?8t?5be?50?5or?5more?5@ 00622b7c     d3d8d:vshader.obj
 0003:00044aec       ??_C@_0DM@LAAGKHEL@StreamCount?5and?5pStreamInputs?5mu@ 00622bac     d3d8d:vshader.obj
 0003:00044b34       ??_C@_0CP@JHBOLDDM@D3DDevice_Clear?5?9?5Unknown?5depth?5@ 00622bf4     d3d8d:clear.obj
 0003:00044b70       ??_C@_0EJ@FPIELBOB@D3DFMT_LIN_L8?5and?5D3DFMT_LIN_G8B@ 00622c30     d3d8d:clear.obj
 0003:00044bc8       ??_C@_0GG@ECDGCNLG@Swizzled?5render?5targets?5can?5only@ 00622c88     d3d8d:clear.obj
 0003:00044c44       ??_C@_0DP@BELDGAFH@Swizzled?5render?5targets?5can?5only@ 00622d04     d3d8d:clear.obj
 0003:00044c90       ??_C@_0GP@JHIABBNO@D3DCLEAR_ZBUFFER?5for?532?9bit?5dept@ 00622d50     d3d8d:clear.obj
 0003:00044d18       ??_C@_0BF@CCBELMKI@Invalid?5Z?5fill?5value?$AA@ 00622dd8     d3d8d:clear.obj
 0003:00044d34       ??_C@_0BL@HEFICIED@Invalid?5stencil?5fill?5value?$AA@ 00622df4     d3d8d:clear.obj
 0003:00044d54       ??_C@_0BO@CICDDOP@Invalid?5flags?5passed?5to?5Clear?$AA@ 00622e14     d3d8d:clear.obj
 0003:00044d78       ?g_AntiAliasedTextureStates@D3D@@3QBKB 00622e38     d3d8d:present.obj
 0003:00044de8       ?g_AntiAliasedRenderStates@D3D@@3QBKB 00622ea8     d3d8d:present.obj
 0003:00044ea8       ?g_PassthruProgramPositionAndTexture@D3D@@3QBKB 00622f68     d3d8d:present.obj
 0003:00044ed0       ??_C@_0EI@DOHHNPGF@?$CB?$CIAddress?5?$CG?5?$CIFLIP_DATA_OR_IMMEDI@ 00622f90     d3d8d:present.obj
 0003:00044f28       ??_C@_0BG@JGMBNEJP@State?5?$DO?$DN?5D3DRS_PS_MAX?$AA@ 00622fe8     d3d8d:present.obj
 0003:00044f48       ??_C@_0GA@FHOAJEOO@Gaussian?5filter?5is?5nonsensical?5u@ 00623008     d3d8d:present.obj
 0003:00044fc0       ??_C@_0GA@CCHLALJJ@Quincunx?5filter?5is?5nonsensical?5u@ 00623080     d3d8d:present.obj
 0003:00045034       ??_C@_0CO@PBJBCKMF@Can?8t?5call?5Swap?5while?5recording?5@ 006230f4     d3d8d:present.obj
 0003:0004506c       ??_C@_0N@CKMPFIBH@Invalid?5flag?$AA@ 0062312c     d3d8d:present.obj
 0003:0004507c       ??_C@_0DH@NBPKOOMF@D3DSWAP_FINISH?5without?5a?5D3DSWAP@ 0062313c     d3d8d:present.obj
 0003:000450c0       ??_C@_0DL@NCDFJANP@D3DSWAP_COPY?1BYPASSCOPY?5before?5a@ 00623180     d3d8d:present.obj
 0003:00045108       ??_C@_0DP@LNNLEIKO@Scale?5causes?5rendering?5to?5exceed@ 006231c8     d3d8d:present.obj
 0003:00045154       ??_C@_0BE@HGKHLCPN@Invalid?5scale?5value?$AA@ 00623214     d3d8d:present.obj
 0003:0004516c       ??_C@_03CCCACEOK@oT3?$AA@  0062322c     d3d8d:shadersnapshot.obj
 0003:00045170       ??_C@_03DLDLBFKL@oT2?$AA@  00623230     d3d8d:shadersnapshot.obj
 0003:00045174       ??_C@_03BABGEGGI@oT1?$AA@  00623234     d3d8d:shadersnapshot.obj
 0003:00045178       ??_C@_03JANHHCJ@oT0?$AA@   00623238     d3d8d:shadersnapshot.obj
 0003:0004517c       ??_C@_03ILNJJKK@oB1?$AA@   0062323c     d3d8d:shadersnapshot.obj
 0003:00045180       ??_C@_03BBKGKIOL@oB0?$AA@  00623240     d3d8d:shadersnapshot.obj
 0003:00045184       ??_C@_04LOFIANGF@oPts?$AA@ 00623244     d3d8d:shadersnapshot.obj
 0003:0004518c       ??_C@_04PFPHJOOC@oFog?$AA@ 0062324c     d3d8d:shadersnapshot.obj
 0003:00045194       ??_C@_03MDAOFBI@oD1?$AA@   00623254     d3d8d:shadersnapshot.obj
 0003:00045198       ??_C@_03BFCLNEFJ@oD0?$AA@  00623258     d3d8d:shadersnapshot.obj
 0003:0004519c       ??_C@_03MCMPNMHE@o2?$DP?$AA@ 0062325c     d3d8d:shadersnapshot.obj
 0003:000451a0       ??_C@_03MAIJGCCN@o1?$DP?$AA@ 00623260     d3d8d:shadersnapshot.obj
 0003:000451a4       ??_C@_04KOCLEBPE@oPos?$AA@ 00623264     d3d8d:shadersnapshot.obj
 0003:000451ac       ??_C@_0CA@GJMEKBLB@Wait?5for?5image?5write?5timed?9out?6?$AA@ 0062326c     d3d8d:shadersnapshot.obj
 0003:000451d4       ??_C@_0BP@BPOFKPAI@Wait?5for?5image?5read?5timed?9out?6?$AA@ 00623294     d3d8d:shadersnapshot.obj
 0003:000451fc       ??_C@_02BKJPHGNJ@pc?$AA@   006232bc     d3d8d:shadersnapshot.obj
 0003:00045200       ??_C@_05CCMOGDN@?$CFs?3?$CFs?$AA@ 006232c0     d3d8d:shadersnapshot.obj
 0003:00045208       ??_C@_0N@HDMAKJFI@1?400?45849?415?$AA@ 006232c8     d3d8d:shadersnapshot.obj
 0003:00045218       ??_C@_05GCIPIGEI@Debug?$AA@ 006232d8     d3d8d:shadersnapshot.obj
 0003:00045220       ??_C@_07DLHCIBDH@default?$AA@ 006232e0     d3d8d:shadersnapshot.obj
 0003:0004522c       ??_C@_0DB@PLEMIDFP@Unable?5to?5re?9open?5movie?5cache?5fi@ 006232ec     d3d8d:shadersnapshot.obj
 0003:00045268       ??_C@_0BM@PMANFOOE@createfile?5error?5?9?5st?$DN?$CF08x?6?$AA@ 00623328     d3d8d:shadersnapshot.obj
 0003:0004528c       ??_C@_0CF@JAIFDFBO@GetDiskFreeSpaceEx?5failed?5with?5?$CF@ 0062334c     d3d8d:shadersnapshot.obj
 0003:000452b8       ??_C@_02HGOPDIBI@t?3?$AA@  00623378     d3d8d:shadersnapshot.obj
 0003:000452bb       ??_C@_00CNPNBAHC@?$AA@     0062337b     d3d8d:pshader.obj
 0003:000452bc       ??_C@_06DJHOIPC@?$CFs?3?5?$CFs?$AA@ 0062337c     d3d8d:pshader.obj
 0003:000452c4       ??_C@_0BD@GKHLDCIP@Invalid?5D?5Register?$AA@ 00623384     d3d8d:pshader.obj
 0003:000452dc       ??_C@_0BD@EDEACHAM@Invalid?5C?5Register?$AA@ 0062339c     d3d8d:pshader.obj
 0003:000452f4       ??_C@_0BD@ICMOPIMM@Invalid?5B?5Register?$AA@ 006233b4     d3d8d:pshader.obj
 0003:0004530c       ??_C@_0BD@BLCMJOMN@Invalid?5A?5Register?$AA@ 006233cc     d3d8d:pshader.obj
 0003:00045324       ??_C@_0BE@DNFHIMBN@Invalid?5CD?5register?$AA@ 006233e4     d3d8d:pshader.obj
 0003:0004533c       ??_C@_0BE@DJNJNIMB@Invalid?5AB?5register?$AA@ 006233fc     d3d8d:pshader.obj
 0003:00045354       ??_C@_0BF@NOJONFHH@Invalid?5Sum?5register?$AA@ 00623414     d3d8d:pshader.obj
 0003:00045370       ??_C@_0BH@ODKPGKEJ@Invalid?5output?5mapping?$AA@ 00623430     d3d8d:pshader.obj
 0003:0004538c       ??_C@_0BA@OHBGBLJB@13?312?5must?5be?50?$AA@ 0062344c     d3d8d:pshader.obj
 0003:000453a0       ??_C@_0BA@CCAHGHAC@31?318?5must?5be?50?$AA@ 00623460     d3d8d:pshader.obj
 0003:000453b4       ??_C@_0BA@JJMBHNDC@31?320?5must?5be?50?$AA@ 00623474     d3d8d:pshader.obj
 0003:000453c8       ??_C@_0BM@OFCNLPL@Invalid?5input?5mapping?5Reg?5D?$AA@ 00623488     d3d8d:pshader.obj
 0003:000453ec       ??_C@_0BM@EBBDENDM@Invalid?5input?5mapping?5Reg?5C?$AA@ 006234ac     d3d8d:pshader.obj
 0003:00045410       ??_C@_0BM@FIAIHMHN@Invalid?5input?5mapping?5Reg?5B?$AA@ 006234d0     d3d8d:pshader.obj
 0003:00045434       ??_C@_0BM@HDCFCPLO@Invalid?5input?5mapping?5Reg?5A?$AA@ 006234f4     d3d8d:pshader.obj
 0003:00045458       ??_C@_0CD@JOOFIIHJ@Alpha?5invalid?5for?5SUM?5or?5PROD?5on@ 00623518     d3d8d:pshader.obj
 0003:00045484       ??_C@_0CD@NBKEBOLO@Alpha?5invalid?5for?5SUM?5or?5PROD?5on@ 00623544     d3d8d:pshader.obj
 0003:000454b0       ??_C@_0CD@MILPCPPP@Alpha?5invalid?5for?5SUM?5or?5PROD?5on@ 00623570     d3d8d:pshader.obj
 0003:000454dc       ??_C@_0CD@ODJCHMDM@Alpha?5invalid?5for?5SUM?5or?5PROD?5on@ 0062359c     d3d8d:pshader.obj
 0003:00045508       ??_C@_0BD@PDJJFEIO@Invalid?5G?5Register?$AA@ 006235c8     d3d8d:pshader.obj
 0003:00045520       ??_C@_0BD@DCBHILEO@Invalid?5F?5Register?$AA@ 006235e0     d3d8d:pshader.obj
 0003:00045538       ??_C@_0BD@KLPFONEP@Invalid?5E?5Register?$AA@ 006235f8     d3d8d:pshader.obj
 0003:00045550       ??_C@_0O@JINFECGF@4?30?5must?5be?50?$AA@ 00623610     d3d8d:pshader.obj
 0003:00045560       ??_C@_0BM@CFHPIIDI@Invalid?5input?5mapping?5Reg?5G?$AA@ 00623620     d3d8d:pshader.obj
 0003:00045584       ??_C@_0BM@DMGELJHJ@Invalid?5input?5mapping?5Reg?5F?$AA@ 00623644     d3d8d:pshader.obj
 0003:000455a8       ??_C@_0BM@BHEJOKLK@Invalid?5input?5mapping?5Reg?5E?$AA@ 00623668     d3d8d:pshader.obj
 0003:000455cc       ??_C@_0CH@NLHGFDAO@Stg1?5mode?5requires?5different?5Stg@ 0062368c     d3d8d:pshader.obj
 0003:000455fc       ??_C@_0CI@GNMKOHHG@Stg?53?5mode?5requires?5DOTPRODUCT?5i@ 006236bc     d3d8d:pshader.obj
 0003:00045630       ??_C@_0ED@FNHMLECF@Stg2?5mode?5requires?5DOT_RFLCT_SPE@ 006236f0     d3d8d:pshader.obj
 0003:00045680       ??_C@_0DI@BIFPNCGA@Stg3?5mode?5requires?5DOTPRODUCT?5or@ 00623740     d3d8d:pshader.obj
 0003:000456c4       ??_C@_0CO@OMGNECJG@Stg3?5mode?5requires?5DOTPRODUCT?5in@ 00623784     d3d8d:pshader.obj
 0003:000456fc       ??_C@_0CG@PJJDFFCL@Stg3?5mode?5requires?5DOTPRODUCT?5in@ 006237bc     d3d8d:pshader.obj
 0003:0004572c       ??_C@_0CG@BNCABBCA@Stg2?5mode?5requires?5DOTPRODUCT?5in@ 006237ec     d3d8d:pshader.obj
 0003:0004575c       ??_C@_0CH@IMJBPHNB@Stg3?5mode?5requires?5different?5Stg@ 0062381c     d3d8d:pshader.obj
 0003:0004578c       ??_C@_0CH@LPJGCIPA@Stg2?5mode?5requires?5different?5Stg@ 0062384c     d3d8d:pshader.obj
 0003:000457bc       ??_C@_0BD@DKBHCCDJ@Invalid?5Stg?53?5Mode?$AA@ 0062387c     d3d8d:pshader.obj
 0003:000457d4       ??_C@_0BD@JMGACJIN@Invalid?5Stg?52?5Mode?$AA@ 00623894     d3d8d:pshader.obj
 0003:000457ec       ??_C@_0BD@KNIIDDBA@Invalid?5Stg?51?5Mode?$AA@ 006238ac     d3d8d:pshader.obj
 0003:00045804       ??_C@_0BD@LPPDIKE@Invalid?5Stg?50?5Mode?$AA@ 006238c4     d3d8d:pshader.obj
 0003:0004581c       ??_C@_0BA@JKMHEGEN@31?324?5must?5be?50?$AA@ 006238dc     d3d8d:pshader.obj
 0003:00045830       ??_C@_0BP@GEEGIDAO@Invalid?5input?5texture?5in?5stg?53?$AA@ 006238f0     d3d8d:pshader.obj
 0003:00045858       ??_C@_0BP@HNFNLCEP@Invalid?5input?5texture?5in?5stg?52?$AA@ 00623918     d3d8d:pshader.obj
 0003:00045880       ??_C@_0P@HGOOKDAK@15?30?5must?5be?50?$AA@ 00623940     d3d8d:pshader.obj
 0003:00045894       ??_C@_0BA@FAJDPIHD@31?317?5must?5be?50?$AA@ 00623954     d3d8d:pshader.obj
 0003:000458a8       ??_C@_0BJ@KPIHFFMC@Invalid?5Separate?5C0?5flag?$AA@ 00623968     d3d8d:pshader.obj
 0003:000458c8       ??_C@_0BA@GFPKLOGA@Invalid?5Mux?5bit?$AA@ 00623988     d3d8d:pshader.obj
 0003:000458dc       ??_C@_0BH@BFFHEEFP@Invalid?5Combiner?5Count?$AA@ 0062399c     d3d8d:pshader.obj
 0003:000458f8       ??_C@_0BB@OOCFICHB@31?316?5must?5be?50?6?$AA@ 006239b8     d3d8d:pshader.obj
 0003:0004590c       ??_C@_0BA@MIDAIPGD@31?312?5must?5be?50?$AA@ 006239cc     d3d8d:pshader.obj
 0003:00045920       ??_C@_0BA@HBJMMAED@Stage?53?5invalid?$AA@ 006239e0     d3d8d:pshader.obj
 0003:00045934       ??_C@_0BA@JOFOKLHN@Stage?52?5invalid?$AA@ 006239f4     d3d8d:pshader.obj
 0003:00045948       ??_C@_0BA@HFGJBAHO@Stage?51?5invalid?$AA@ 00623a08     d3d8d:pshader.obj
 0003:0004595c       ??_C@_0P@FKGNKHBB@31?39?5must?5be?50?$AA@ 00623a1c     d3d8d:pshader.obj
 0003:00045970       ??_C@_0DP@HBKCHHNA@D3DDevice_CreatePixelShader?5?9?5In@ 00623a30     d3d8d:pshader.obj
 0003:000459bc       ??_C@_0BJ@CIGDIJMC@PSFinalCombinerConstants?$AA@ 00623a7c     d3d8d:pshader.obj
 0003:000459dc       ??_C@_0BA@GIFJJBHO@PSRGBOutputs?$FL7?$FN?$AA@ 00623a9c     d3d8d:pshader.obj
 0003:000459f0       ??_C@_0BA@GJJLPLEJ@PSRGBOutputs?$FL6?$FN?$AA@ 00623ab0     d3d8d:pshader.obj
 0003:00045a04       ??_C@_0BA@GLNNEFBA@PSRGBOutputs?$FL5?$FN?$AA@ 00623ac4     d3d8d:pshader.obj
 0003:00045a18       ??_C@_0BA@GKBPCPCH@PSRGBOutputs?$FL4?$FN?$AA@ 00623ad8     d3d8d:pshader.obj
 0003:00045a2c       ??_C@_0BA@GPFADJKC@PSRGBOutputs?$FL3?$FN?$AA@ 00623aec     d3d8d:pshader.obj
 0003:00045a40       ??_C@_0BA@GOJCFDJF@PSRGBOutputs?$FL2?$FN?$AA@ 00623b00     d3d8d:pshader.obj
 0003:00045a54       ??_C@_0BA@GMNEONMM@PSRGBOutputs?$FL1?$FN?$AA@ 00623b14     d3d8d:pshader.obj
 0003:00045a68       ??_C@_0BA@GNBGIHPL@PSRGBOutputs?$FL0?$FN?$AA@ 00623b28     d3d8d:pshader.obj
 0003:00045a7c       ??_C@_0BC@GJJBHION@PSAlphaOutputs?$FL7?$FN?$AA@ 00623b3c     d3d8d:pshader.obj
 0003:00045a94       ??_C@_0BC@GIFDBCNK@PSAlphaOutputs?$FL6?$FN?$AA@ 00623b54     d3d8d:pshader.obj
 0003:00045aac       ??_C@_0BC@GKBFKMID@PSAlphaOutputs?$FL5?$FN?$AA@ 00623b6c     d3d8d:pshader.obj
 0003:00045ac4       ??_C@_0BC@GLNHMGLE@PSAlphaOutputs?$FL4?$FN?$AA@ 00623b84     d3d8d:pshader.obj
 0003:00045adc       ??_C@_0BC@GOJINADB@PSAlphaOutputs?$FL3?$FN?$AA@ 00623b9c     d3d8d:pshader.obj
 0003:00045af4       ??_C@_0BC@GPFKLKAG@PSAlphaOutputs?$FL2?$FN?$AA@ 00623bb4     d3d8d:pshader.obj
 0003:00045b0c       ??_C@_0BC@GNBMAEFP@PSAlphaOutputs?$FL1?$FN?$AA@ 00623bcc     d3d8d:pshader.obj
 0003:00045b24       ??_C@_0BC@GMNOGOGI@PSAlphaOutputs?$FL0?$FN?$AA@ 00623be4     d3d8d:pshader.obj
 0003:00045b3c       ??_C@_0P@KGCEBPCA@PSRGBInputs?$FL7?$FN?$AA@ 00623bfc     d3d8d:pshader.obj
 0003:00045b50       ??_C@_0P@KHOGHFBH@PSRGBInputs?$FL6?$FN?$AA@ 00623c10     d3d8d:pshader.obj
 0003:00045b64       ??_C@_0P@KFKAMLEO@PSRGBInputs?$FL5?$FN?$AA@ 00623c24     d3d8d:pshader.obj
 0003:00045b78       ??_C@_0P@KEGCKBHJ@PSRGBInputs?$FL4?$FN?$AA@ 00623c38     d3d8d:pshader.obj
 0003:00045b8c       ??_C@_0P@KBCNLHPM@PSRGBInputs?$FL3?$FN?$AA@ 00623c4c     d3d8d:pshader.obj
 0003:00045ba0       ??_C@_0P@KAOPNNML@PSRGBInputs?$FL2?$FN?$AA@ 00623c60     d3d8d:pshader.obj
 0003:00045bb4       ??_C@_0P@KCKJGDJC@PSRGBInputs?$FL1?$FN?$AA@ 00623c74     d3d8d:pshader.obj
 0003:00045bc8       ??_C@_0P@KDGLAJKF@PSRGBInputs?$FL0?$FN?$AA@ 00623c88     d3d8d:pshader.obj
 0003:00045bdc       ??_C@_0BB@LFLMIKGB@PSAlphaInputs?$FL7?$FN?$AA@ 00623c9c     d3d8d:pshader.obj
 0003:00045bf0       ??_C@_0BB@LEHOOAFG@PSAlphaInputs?$FL6?$FN?$AA@ 00623cb0     d3d8d:pshader.obj
 0003:00045c04       ??_C@_0BB@LGDIFOAP@PSAlphaInputs?$FL5?$FN?$AA@ 00623cc4     d3d8d:pshader.obj
 0003:00045c18       ??_C@_0BB@LHPKDEDI@PSAlphaInputs?$FL4?$FN?$AA@ 00623cd8     d3d8d:pshader.obj
 0003:00045c2c       ??_C@_0BB@LCLFCCLN@PSAlphaInputs?$FL3?$FN?$AA@ 00623cec     d3d8d:pshader.obj
 0003:00045c40       ??_C@_0BB@LDHHEIIK@PSAlphaInputs?$FL2?$FN?$AA@ 00623d00     d3d8d:pshader.obj
 0003:00045c54       ??_C@_0BB@LBDBPGND@PSAlphaInputs?$FL1?$FN?$AA@ 00623d14     d3d8d:pshader.obj
 0003:00045c68       ??_C@_0BB@LAPDJMOE@PSAlphaInputs?$FL0?$FN?$AA@ 00623d28     d3d8d:pshader.obj
 0003:00045c7c       ??_C@_0CP@OPOPOMI@Invalid?5pixel?5shader?5object?5?$CIalr@ 00623d3c     d3d8d:pshader.obj
 0003:00045cb4       ??_C@_0DE@HMOCCGDM@Can?8t?5delete?5a?5pixel?5shader?5that@ 00623d74     d3d8d:pshader.obj
 0003:00045cf4       ??_C@_0CC@DDICNKIO@Invalid?5pixel?5shader?5handle?5valu@ 00623db4     d3d8d:pshader.obj
 0003:00045d20       ??_C@_0EA@JJMFKHGJ@D3DDevice_SetUserPixelShader?5?9?5I@ 00623de0     d3d8d:pshader.obj
 0003:00045d6c       ??_C@_0CE@IKMHMGFJ@Pixel?5shader?5handle?5pointer?5is?5N@ 00623e2c     d3d8d:pshader.obj
 0003:00045d98       ??_C@_0DH@NDBFEDFN@Too?5many?5constants?5specified?5in?5@ 00623e58     d3d8d:pshader.obj
 0003:00045ddc       ??_C@_0DI@DACHOIOH@Invalid?5constant?5data?5pointer?5in@ 00623e9c     d3d8d:pshader.obj
 0003:00045e20       ??_C@_0CI@COCHLMNC@Invalid?5pixel?5shader?5definition?5@ 00623ee0     d3d8d:pshader.obj
 0003:00045e50       ??_C@_0EC@NFDPBIGH@Attempt?5to?5set?5pixel?5shader?5cons@ 00623f10     d3d8d:pshader.obj
 0003:00045ea0       ??_C@_0DH@NCDLGEIC@Too?5many?5constants?5specified?5in?5@ 00623f60     d3d8d:pshader.obj
 0003:00045ee4       ??_C@_0DI@DBAJMPDI@Invalid?5constant?5data?5pointer?5in@ 00623fa4     d3d8d:pshader.obj
 0003:00045f28       ??_C@_0BI@GIBIFBKD@Unexpected?5texture?5type?$AA@ 00623fe8     d3d8d:texture.obj
 0003:00045f44       ??_C@_0DD@KBIOPGPB@D3DTexture_GetSurfaceLevel?5?9?5inv@ 00624004     d3d8d:texture.obj
 0003:00045f84       ??_C@_0DI@NJCBJCLN@D3DVolumeTexture_GetVolumeLevel?5@ 00624044     d3d8d:texture.obj
 0003:00045fc8       ??_C@_0L@HDAAHHIH@Usage?5?$DN?$DN?50?$AA@ 00624088     d3d8d:surface.obj
 0003:00045fd8       ??_C@_0BN@LDFCBFCL@Invalid?5render?5target?5format?$AA@ 00624098     d3d8d:surface.obj
 0003:00045ffc       ?g_MinFilter@D3D@@3QAY02$$CBKA 006240bc     d3d8d:precomp.obj
 0003:00046018       ?g_Pgraph@@3QBUPgraphEncoding@@B 006240d8     d3d8d:precomp.obj
 0003:0004776c       ?g_Dimension@@3QBKB        0062582c     d3d8d:precomp.obj
 0003:00047778       ?g_Dma@@3QBKB              00625838     d3d8d:precomp.obj
 0003:00047788       ?g_Format@@3QBKB           00625848     d3d8d:precomp.obj
 0003:000477d4       ?g_SwathWidth@@3QBKB       00625894     d3d8d:precomp.obj
 0003:000477fc       ?g_TexGen@@3QBKB           006258bc     d3d8d:precomp.obj
 0003:00047818       ?g_Face@@3QBKB             006258d8     d3d8d:precomp.obj
 0003:00047824       ?g_Cull@@3QBKB             006258e4     d3d8d:precomp.obj
 0003:00047838       ?g_FogMode@@3QBKB          006258f8     d3d8d:precomp.obj
 0003:00047860       ?g_FaceMode@@3QBKB         00625920     d3d8d:precomp.obj
 0003:00047870       ?g_ShadeMode@@3QBKB        00625930     d3d8d:precomp.obj
 0003:0004787c       ?g_StencilOperation@@3QBKB 0062593c     d3d8d:precomp.obj
 0003:000478a8       ?g_BlendEquation@@3QBKB    00625968     d3d8d:precomp.obj
 0003:000478d0       ?g_BlendFactor@@3QBKB      00625990     d3d8d:precomp.obj
 0003:0004791c       ?g_ComparisonFunction@@3QBKB 006259dc     d3d8d:precomp.obj
 0003:00047948       ?g_LogicOp@@3QBKB          00625a08     d3d8d:precomp.obj
 0003:00047994       ?g_DebugRegister@@3QBKB    00625a54     d3d8d:precomp.obj
 0003:000479c8       ?g_Kelvin@@3QBU_FieldDescription@@B 00625a88     d3d8d:precomp.obj
 0003:0004d548       ??_C@_0BB@MJHELBHI@NV097_GET_REPORT?$AA@ 0062b608     d3d8d:precomp.obj
 0003:0004d55c       ??_C@_0CD@MDGHHGAI@NV097_SET_ZPASS_PIXEL_COUNT_ENAB@ 0062b61c     d3d8d:precomp.obj
 0003:0004d588       ??_C@_0BJ@KCFONLFE@NV097_CLEAR_REPORT_VALUE?$AA@ 0062b648     d3d8d:precomp.obj
 0003:0004d5a8       ??_C@_0CB@OOAFJOA@NV097_SET_BACK_MATERIAL_EMISSION@ 0062b668     d3d8d:precomp.obj
 0003:0004d5d0       ??_C@_0CD@MPEPHGJM@NV097_SET_BACK_SCENE_AMBIENT_COL@ 0062b690     d3d8d:precomp.obj
 0003:0004d5fc       ??_C@_0BM@GBFPEFKI@NV097_SET_TWO_SIDE_LIGHT_EN?$AA@ 0062b6bc     d3d8d:precomp.obj
 0003:0004d620       ??_C@_0BP@JHANHE@NV097_LAUNCH_TRANSFORM_PROGRAM?$AA@ 0062b6e0     d3d8d:precomp.obj
 0003:0004d648       ??_C@_0BJ@IEGPGNNA@NV097_SET_TRANSFORM_DATA?$AA@ 0062b708     d3d8d:precomp.obj
 0003:0004d668       ??_C@_0BN@NIFIKAJJ@NV097_SET_TRANSFORM_CONSTANT?$AA@ 0062b728     d3d8d:precomp.obj
 0003:0004d68c       ??_C@_0N@ECIKCLFO@CONST_LD_PTR?$AA@ 0062b74c     d3d8d:precomp.obj
 0003:0004d69c       ??_C@_0CC@PMNCEGIM@NV097_SET_TRANSFORM_CONSTANT_LOA@ 0062b75c     d3d8d:precomp.obj
 0003:0004d6c4       ??_C@_0BM@JNMKPDHL@NV097_SET_TRANSFORM_PROGRAM?$AA@ 0062b784     d3d8d:precomp.obj
 0003:0004d6e8       ??_C@_0CC@ICBJCFJE@NV097_SET_TRANSFORM_PROGRAM_STAR@ 0062b7a8     d3d8d:precomp.obj
 0003:0004d710       ??_C@_0M@EENDGNIF@PROG_LD_PTR?$AA@ 0062b7d0     d3d8d:precomp.obj
 0003:0004d720       ??_C@_0CB@EOHKFKB@NV097_SET_TRANSFORM_PROGRAM_LOAD@ 0062b7e0     d3d8d:precomp.obj
 0003:0004d748       ??_C@_0CJ@IOMABCND@NV097_SET_TRANSFORM_PROGRAM_CXT_@ 0062b808     d3d8d:precomp.obj
 0003:0004d77c       ??_C@_0L@ICLIPPDK@RANGE_MODE?$AA@ 0062b83c     d3d8d:precomp.obj
 0003:0004d78c       ??_C@_04KAFEECCN@MODE?$AA@ 0062b84c     d3d8d:precomp.obj
 0003:0004d794       ??_C@_0CD@DIOFKAMI@NV097_SET_TRANSFORM_EXECUTION_MO@ 0062b854     d3d8d:precomp.obj
 0003:0004d7c0       ??_C@_0O@JLOLCGL@CD_DOT_ENABLE?$AA@ 0062b880     d3d8d:precomp.obj
 0003:0004d7d0       ??_C@_0O@EIDFKJBL@AB_DOT_ENABLE?$AA@ 0062b890     d3d8d:precomp.obj
 0003:0004d7e0       ??_C@_0P@FNJPJAOE@BLUETOALPHA_CD?$AA@ 0062b8a0     d3d8d:precomp.obj
 0003:0004d7f4       ??_C@_0P@IEBODAM@BLUETOALPHA_AB?$AA@ 0062b8b4     d3d8d:precomp.obj
 0003:0004d808       ??_C@_0BN@DOBPBEMD@NV097_SET_COMBINER_COLOR_OCW?$AA@ 0062b8c8     d3d8d:precomp.obj
 0003:0004d82c       ??_C@_07LJBODBPP@FACTOR1?$AA@ 0062b8ec     d3d8d:precomp.obj
 0003:0004d838       ??_C@_07KAAFAALO@FACTOR0?$AA@ 0062b8f8     d3d8d:precomp.obj
 0003:0004d844       ??_C@_0L@EDHPILII@MUX_SELECT?$AA@ 0062b904     d3d8d:precomp.obj
 0003:0004d854       ??_C@_0BA@KKKIFKCN@ITERATION_COUNT?$AA@ 0062b914     d3d8d:precomp.obj
 0003:0004d868       ??_C@_0BL@FALLIJBC@NV097_SET_COMBINER_CONTROL?$AA@ 0062b928     d3d8d:precomp.obj
 0003:0004d888       ??_C@_0BO@GFOCKLNH@NV097_SET_SPECULAR_FOG_FACTOR?$AA@ 0062b948     d3d8d:precomp.obj
 0003:0004d8ac       ??_C@_0CD@LJMHBMJH@NV097_SET_SHADER_OTHER_STAGE_INP@ 0062b96c     d3d8d:precomp.obj
 0003:0004d8d8       ??_C@_08MFKJKKCJ@STAGE3_Q?$AA@ 0062b998     d3d8d:precomp.obj
 0003:0004d8e4       ??_C@_08OOIEPJOK@STAGE3_R?$AA@ 0062b9a4     d3d8d:precomp.obj
 0003:0004d8f0       ??_C@_08LINOFOGM@STAGE3_T?$AA@ 0062b9b0     d3d8d:precomp.obj
 0003:0004d8fc       ??_C@_08PHJPMIKL@STAGE3_S?$AA@ 0062b9bc     d3d8d:precomp.obj
 0003:0004d908       ??_C@_08HNBFMNEM@STAGE2_Q?$AA@ 0062b9c8     d3d8d:precomp.obj
 0003:0004d914       ??_C@_08FGDIJOIP@STAGE2_R?$AA@ 0062b9d4     d3d8d:precomp.obj
 0003:0004d920       ??_C@_08GCDJAJ@STAGE2_T?$AA@ 0062b9e0     d3d8d:precomp.obj
 0003:0004d92c       ??_C@_08EPCDKPMO@STAGE2_S?$AA@ 0062b9ec     d3d8d:precomp.obj
 0003:0004d938       ??_C@_08GPKAGCKC@STAGE1_Q?$AA@ 0062b9f8     d3d8d:precomp.obj
 0003:0004d944       ??_C@_08EEINDBGB@STAGE1_R?$AA@ 0062ba04     d3d8d:precomp.obj
 0003:0004d950       ??_C@_08BCNHJGOH@STAGE1_T?$AA@ 0062ba10     d3d8d:precomp.obj
 0003:0004d95c       ??_C@_08FNJGAACA@STAGE1_S?$AA@ 0062ba1c     d3d8d:precomp.obj
 0003:0004d968       ??_C@_08NHBMAFMH@STAGE0_Q?$AA@ 0062ba28     d3d8d:precomp.obj
 0003:0004d974       ??_C@_08PMDBFGAE@STAGE0_R?$AA@ 0062ba34     d3d8d:precomp.obj
 0003:0004d980       ??_C@_08KKGLPBIC@STAGE0_T?$AA@ 0062ba40     d3d8d:precomp.obj
 0003:0004d98c       ??_C@_08OFCKGHEF@STAGE0_S?$AA@ 0062ba4c     d3d8d:precomp.obj
 0003:0004d998       ??_C@_0CB@MONMCLMG@NV097_SET_SHADER_CLIP_PLANE_MODE@ 0062ba58     d3d8d:precomp.obj
 0003:0004d9c0       ??_C@_0BJ@HEIBDKPA@NV097_SET_DOT_RGBMAPPING?$AA@ 0062ba80     d3d8d:precomp.obj
 0003:0004d9e0       ??_C@_0BF@LJODBMMP@NV097_SET_EYE_VECTOR?$AA@ 0062baa0     d3d8d:precomp.obj
 0003:0004d9fc       ??_C@_06GNLKCCM@STAGE3?$AA@ 0062babc     d3d8d:precomp.obj
 0003:0004da04       ??_C@_06BPMAJDGN@STAGE2?$AA@ 0062bac4     d3d8d:precomp.obj
 0003:0004da0c       ??_C@_06DEONMAKO@STAGE1?$AA@ 0062bacc     d3d8d:precomp.obj
 0003:0004da14       ??_C@_06CNPGPBOP@STAGE0?$AA@ 0062bad4     d3d8d:precomp.obj
 0003:0004da1c       ??_C@_0BP@OAKALPGI@NV097_SET_SHADER_STAGE_PROGRAM?$AA@ 0062badc     d3d8d:precomp.obj
 0003:0004da44       ??_C@_0BM@OMCPMIDJ@NV097_SET_SHADOW_DEPTH_FUNC?$AA@ 0062bb04     d3d8d:precomp.obj
 0003:0004da68       ??_C@_0CC@ECHGEIMM@NV097_SET_SHADOW_ZSLOPE_THRESHOL@ 0062bb28     d3d8d:precomp.obj
 0003:0004da90       ??_C@_0BJ@ILFKLEHH@NV097_SET_END_TRANSITION?$AA@ 0062bb50     d3d8d:precomp.obj
 0003:0004dab0       ??_C@_0BB@KPBFMOBB@OUTSIDE_SEGMENTS?$AA@ 0062bb70     d3d8d:precomp.obj
 0003:0004dac4       ??_C@_0BA@HDONCNNH@INSIDE_SEGMENTS?$AA@ 0062bb84     d3d8d:precomp.obj
 0003:0004dad8       ??_C@_0BM@EAGOKBMN@NV097_SET_BEGIN_TRANSITION2?$AA@ 0062bb98     d3d8d:precomp.obj
 0003:0004dafc       ??_C@_0BM@GLEDPCAO@NV097_SET_BEGIN_TRANSITION1?$AA@ 0062bbbc     d3d8d:precomp.obj
 0003:0004db20       ??_C@_0BM@HCFIMDEP@NV097_SET_BEGIN_TRANSITION0?$AA@ 0062bbe0     d3d8d:precomp.obj
 0003:0004db44       ??_C@_0BN@GCINPNHL@NV097_SET_CURVE_COEFFICIENTS?$AA@ 0062bc04     d3d8d:precomp.obj
 0003:0004db68       ??_C@_03LLENEDKC@CMD?$AA@  0062bc28     d3d8d:precomp.obj
 0003:0004db6c       ??_C@_0BK@FFMPELDA@NV097_SET_BEGIN_END_CURVE?$AA@ 0062bc2c     d3d8d:precomp.obj
 0003:0004db8c       ??_C@_0O@KJFNIJBE@NARROW_SWATCH?$AA@ 0062bc4c     d3d8d:precomp.obj
 0003:0004db9c       ??_C@_0N@EBHLLNHN@SHORT_SWATCH?$AA@ 0062bc5c     d3d8d:precomp.obj
 0003:0004dbac       ??_C@_0P@DDDALMBE@SKIP_FIRST_COL?$AA@ 0062bc6c     d3d8d:precomp.obj
 0003:0004dbc0       ??_C@_0P@HCKDEHHE@SKIP_FIRST_ROW?$AA@ 0062bc80     d3d8d:precomp.obj
 0003:0004dbd4       ??_C@_09PCOJJAOI@NEW_SWATH?$AA@ 0062bc94     d3d8d:precomp.obj
 0003:0004dbe0       ??_C@_0L@HPDEFOMB@SWATCH_CMD?$AA@ 0062bca0     d3d8d:precomp.obj
 0003:0004dbf0       ??_C@_0BL@LNPOFOEE@NV097_SET_BEGIN_END_SWATCH?$AA@ 0062bcb0     d3d8d:precomp.obj
 0003:0004dc10       ??_C@_0BE@LMJJNAEB@NV097_SET_END_PATCH?$AA@ 0062bcd0     d3d8d:precomp.obj
 0003:0004dc28       ??_C@_0L@KMKAMMKM@NUM_COEFFS?$AA@ 0062bce8     d3d8d:precomp.obj
 0003:0004dc38       ??_C@_0M@BNNFHBDB@TESSELATION?$AA@ 0062bcf8     d3d8d:precomp.obj
 0003:0004dc48       ??_C@_09MCMHJBE@PRIMITIVE?$AA@ 0062bd08     d3d8d:precomp.obj
 0003:0004dc54       ??_C@_0BK@GKELJGNM@NORMAL_GUARD_CURVE_DEGREE?$AA@ 0062bd14     d3d8d:precomp.obj
 0003:0004dc74       ??_C@_0BM@EHDNFGJL@POSITION_GUARD_CURVE_DEGREE?$AA@ 0062bd34     d3d8d:precomp.obj
 0003:0004dc98       ??_C@_08DHCCKBIC@COL_TRNS?$AA@ 0062bd58     d3d8d:precomp.obj
 0003:0004dca4       ??_C@_08OJEADPIE@ROW_TRNS?$AA@ 0062bd64     d3d8d:precomp.obj
 0003:0004dcb0       ??_C@_0BH@NEOHDHLG@NV097_SET_BEGIN_PATCH3?$AA@ 0062bd70     d3d8d:precomp.obj
 0003:0004dccc       ??_C@_0L@FAKBHDC@PATCH_TYPE?$AA@ 0062bd8c     d3d8d:precomp.obj
 0003:0004dcdc       ??_C@_0BG@DHFJECPL@PARTIAL_SWATCH_HEIGHT?$AA@ 0062bd9c     d3d8d:precomp.obj
 0003:0004dcf8       ??_C@_0BF@DGAFAGLN@PARTIAL_SWATCH_WIDTH?$AA@ 0062bdb8     d3d8d:precomp.obj
 0003:0004dd14       ??_C@_0M@JICIPDJH@SWATCH_SIZE?$AA@ 0062bdd4     d3d8d:precomp.obj
 0003:0004dd24       ??_C@_0M@NJJAFBNM@SWATCH_COLS?$AA@ 0062bde4     d3d8d:precomp.obj
 0003:0004dd34       ??_C@_0M@JEGDKDHP@SWATCH_ROWS?$AA@ 0062bdf4     d3d8d:precomp.obj
 0003:0004dd44       ??_C@_0BH@MNPMAGPH@NV097_SET_BEGIN_PATCH2?$AA@ 0062be04     d3d8d:precomp.obj
 0003:0004dd60       ??_C@_0P@FFAHNDLP@PARAM15_DEGREE?$AA@ 0062be20     d3d8d:precomp.obj
 0003:0004dd74       ??_C@_0P@ECHMMHPM@PARAM14_DEGREE?$AA@ 0062be34     d3d8d:precomp.obj
 0003:0004dd88       ??_C@_0P@CGBNKKDF@PARAM13_DEGREE?$AA@ 0062be48     d3d8d:precomp.obj
 0003:0004dd9c       ??_C@_0P@DBGGLOHG@PARAM12_DEGREE?$AA@ 0062be5c     d3d8d:precomp.obj
 0003:0004ddb0       ??_C@_0P@IOLICLD@PARAM11_DEGREE?$AA@ 0062be70     d3d8d:precomp.obj
 0003:0004ddc4       ??_C@_0P@BPJAJGPA@PARAM10_DEGREE?$AA@ 0062be84     d3d8d:precomp.obj
 0003:0004ddd8       ??_C@_0O@FEFLGBGK@PARAM9_DEGREE?$AA@ 0062be98     d3d8d:precomp.obj
 0003:0004dde8       ??_C@_0O@EDCAHFCJ@PARAM8_DEGREE?$AA@ 0062bea8     d3d8d:precomp.obj
 0003:0004ddf8       ??_C@_0BH@OGNBFFDE@NV097_SET_BEGIN_PATCH1?$AA@ 0062beb8     d3d8d:precomp.obj
 0003:0004de14       ??_C@_0O@JMJJLKPI@PARAM7_DEGREE?$AA@ 0062bed4     d3d8d:precomp.obj
 0003:0004de24       ??_C@_0O@ILOCKOLL@PARAM6_DEGREE?$AA@ 0062bee4     d3d8d:precomp.obj
 0003:0004de34       ??_C@_0O@LCGPJCHO@PARAM5_DEGREE?$AA@ 0062bef4     d3d8d:precomp.obj
 0003:0004de44       ??_C@_0O@KFBEIGDN@PARAM4_DEGREE?$AA@ 0062bf04     d3d8d:precomp.obj
 0003:0004de54       ??_C@_0O@MBHFOLPE@PARAM3_DEGREE?$AA@ 0062bf14     d3d8d:precomp.obj
 0003:0004de64       ??_C@_0O@NGAOPPLH@PARAM2_DEGREE?$AA@ 0062bf24     d3d8d:precomp.obj
 0003:0004de74       ??_C@_0O@OPIDMDHC@PARAM1_DEGREE?$AA@ 0062bf34     d3d8d:precomp.obj
 0003:0004de84       ??_C@_0BA@NMNKOPEO@POSITION_DEGREE?$AA@ 0062bf44     d3d8d:precomp.obj
 0003:0004de98       ??_C@_0BH@PPMKGEHF@NV097_SET_BEGIN_PATCH0?$AA@ 0062bf58     d3d8d:precomp.obj
 0003:0004deb4       ??_C@_0BO@MOBPGGMH@NV097_SET_CLEAR_RECT_VERTICAL?$AA@ 0062bf74     d3d8d:precomp.obj
 0003:0004ded8       ??_C@_0CA@DHOLFJHC@NV097_SET_CLEAR_RECT_HORIZONTAL?$AA@ 0062bf98     d3d8d:precomp.obj
 0003:0004df00       ??_C@_01FHEEJDEE@A?$AA@    0062bfc0     d3d8d:precomp.obj
 0003:0004df04       ??_C@_01HMGJMAIH@B?$AA@    0062bfc4     d3d8d:precomp.obj
 0003:0004df08       ??_C@_01BBODEMC@G?$AA@     0062bfc8     d3d8d:precomp.obj
 0003:0004df0c       ??_C@_01DGKLNCNG@R?$AA@    0062bfcc     d3d8d:precomp.obj
 0003:0004df10       ??_C@_07IEJOCFHF@STENCIL?$AA@ 0062bfd0     d3d8d:precomp.obj
 0003:0004df1c       ??_C@_01POHCFINO@Z?$AA@    0062bfdc     d3d8d:precomp.obj
 0003:0004df20       ??_C@_0BE@LHMFKHLP@NV097_CLEAR_SURFACE?$AA@ 0062bfe0     d3d8d:precomp.obj
 0003:0004df38       ??_C@_0BM@CMIAFBIA@NV097_SET_COLOR_CLEAR_VALUE?$AA@ 0062bff8     d3d8d:precomp.obj
 0003:0004df5c       ??_C@_0BP@EGFHCDGD@NV097_SET_ZSTENCIL_CLEAR_VALUE?$AA@ 0062c01c     d3d8d:precomp.obj
 0003:0004df84       ??_C@_0O@JBCBGEFJ@ANTI_ALIASING?$AA@ 0062c044     d3d8d:precomp.obj
 0003:0004df94       ??_C@_0BJ@OCAFFBJF@NV097_SET_SURFACE_FORMAT?$AA@ 0062c054     d3d8d:precomp.obj
 0003:0004dfb4       ??_C@_0BD@EFGOIHHM@OCCLUDE_STENCIL_EN?$AA@ 0062c074     d3d8d:precomp.obj
 0003:0004dfcc       ??_C@_0M@DABDIPCE@OCCLUDE_ZEN?$AA@ 0062c08c     d3d8d:precomp.obj
 0003:0004dfdc       ??_C@_0BO@LJIADFCM@NV097_SET_OCCLUDE_ZSTENCIL_EN?$AA@ 0062c09c     d3d8d:precomp.obj
 0003:0004e000       ??_C@_0BO@BNICDBHI@NV097_SET_COMPRESS_ZBUFFER_EN?$AA@ 0062c0c0     d3d8d:precomp.obj
 0003:0004e024       ??_C@_0M@KKHKCIPM@SAMPLE_MASK?$AA@ 0062c0e4     d3d8d:precomp.obj
 0003:0004e034       ??_C@_0N@LCGPBJJK@ALPHA_TO_ONE?$AA@ 0062c0f4     d3d8d:precomp.obj
 0003:0004e044       ??_C@_0BC@JJECAKHD@ALPHA_TO_COVERAGE?$AA@ 0062c104     d3d8d:precomp.obj
 0003:0004e05c       ??_C@_0CA@EIDLLFEA@NV097_SET_ANTI_ALIASING_CONTROL?$AA@ 0062c11c     d3d8d:precomp.obj
 0003:0004e084       ??_C@_0O@GBENCCGD@CULL_IGNORE_W?$AA@ 0062c144     d3d8d:precomp.obj
 0003:0004e094       ??_C@_09MJACPDII@ZCLAMP_EN?$AA@ 0062c154     d3d8d:precomp.obj
 0003:0004e0a0       ??_C@_0BB@LFCKHBHD@CULL_NEAR_FAR_EN?$AA@ 0062c160     d3d8d:precomp.obj
 0003:0004e0b4       ??_C@_0BL@MFPCANCD@NV097_SET_ZMIN_MAX_CONTROL?$AA@ 0062c174     d3d8d:precomp.obj
 0003:0004e0d4       ??_C@_0CF@NCGGEPGN@NV097_TEXTURE_READ_SEMAPHORE_REL@ 0062c194     d3d8d:precomp.obj
 0003:0004e100       ??_C@_0CH@LJBPPGLK@NV097_BACK_END_WRITE_SEMAPHORE_R@ 0062c1c0     d3d8d:precomp.obj
 0003:0004e130       ??_C@_0BL@CCIBAOCA@NV097_SET_SEMAPHORE_OFFSET?$AA@ 0062c1f0     d3d8d:precomp.obj
 0003:0004e150       ??_C@_0BH@LNEKBOMK@NV097_UNPARK_ATTRIBUTE?$AA@ 0062c210     d3d8d:precomp.obj
 0003:0004e16c       ??_C@_0BF@JDJJIFHO@NV097_PARK_ATTRIBUTE?$AA@ 0062c22c     d3d8d:precomp.obj
 0003:0004e188       ??_C@_0CG@IPGPEHHF@NV097_SET_TEXTURE_SET_BUMP_ENV_O@ 0062c248     d3d8d:precomp.obj
 0003:0004e1b8       ??_C@_0CF@FAIGIOFF@NV097_SET_TEXTURE_SET_BUMP_ENV_S@ 0062c278     d3d8d:precomp.obj
 0003:0004e1e4       ??_C@_0CF@HKDMGPMD@NV097_SET_TEXTURE_SET_BUMP_ENV_M@ 0062c2a4     d3d8d:precomp.obj
 0003:0004e210       ??_C@_0CF@GDCHFOIC@NV097_SET_TEXTURE_SET_BUMP_ENV_M@ 0062c2d0     d3d8d:precomp.obj
 0003:0004e23c       ??_C@_0CF@GCOFDELF@NV097_SET_TEXTURE_SET_BUMP_ENV_M@ 0062c2fc     d3d8d:precomp.obj
 0003:0004e268       ??_C@_0CF@HLPOAFPE@NV097_SET_TEXTURE_SET_BUMP_ENV_M@ 0062c328     d3d8d:precomp.obj
 0003:0004e294       ??_C@_0BP@CFGBKACF@NV097_SET_TEXTURE_BORDER_COLOR?$AA@ 0062c354     d3d8d:precomp.obj
 0003:0004e2bc       ??_C@_06MLIGBJO@LENGTH?$AA@ 0062c37c     d3d8d:precomp.obj
 0003:0004e2c4       ??_C@_0BK@FGJIHGBE@NV097_SET_TEXTURE_PALETTE?$AA@ 0062c384     d3d8d:precomp.obj
 0003:0004e2e4       ??_C@_0BN@JJBMBLPL@NV097_SET_TEXTURE_IMAGE_RECT?$AA@ 0062c3a4     d3d8d:precomp.obj
 0003:0004e308       ??_C@_07LIFDCDPF@BSIGNED?$AA@ 0062c3c8     d3d8d:precomp.obj
 0003:0004e314       ??_C@_07PALDCNJB@GSIGNED?$AA@ 0062c3d4     d3d8d:precomp.obj
 0003:0004e320       ??_C@_07MEOIBCNO@RSIGNED?$AA@ 0062c3e0     d3d8d:precomp.obj
 0003:0004e32c       ??_C@_07DGNMCEBG@ASIGNED?$AA@ 0062c3ec     d3d8d:precomp.obj
 0003:0004e338       ??_C@_03HJKFJODG@MAG?$AA@  0062c3f8     d3d8d:precomp.obj
 0003:0004e33c       ??_C@_03KGHEHEMH@MIN?$AA@  0062c3fc     d3d8d:precomp.obj
 0003:0004e340       ??_C@_0BD@IMOIILLF@CONVOLUTION_KERNEL?$AA@ 0062c400     d3d8d:precomp.obj
 0003:0004e358       ??_C@_0BA@GPFCJDMJ@MIPMAP_LOD_BIAS?$AA@ 0062c418     d3d8d:precomp.obj
 0003:0004e36c       ??_C@_0BJ@GGECPHII@NV097_SET_TEXTURE_FILTER?$AA@ 0062c42c     d3d8d:precomp.obj
 0003:0004e38c       ??_C@_0M@BMCJOLDA@IMAGE_PITCH?$AA@ 0062c44c     d3d8d:precomp.obj
 0003:0004e39c       ??_C@_0BL@EIKPJJJ@NV097_SET_TEXTURE_CONTROL1?$AA@ 0062c45c     d3d8d:precomp.obj
 0003:0004e3bc       ??_C@_0BE@BKGAOHDP@COLOR_KEY_OPERATION?$AA@ 0062c47c     d3d8d:precomp.obj
 0003:0004e3d4       ??_C@_0BD@GBDMNPNH@IMAGE_FIELD_ENABLE?$AA@ 0062c494     d3d8d:precomp.obj
 0003:0004e3ec       ??_C@_0O@FNHLNCOL@LOG_MAX_ANISO?$AA@ 0062c4ac     d3d8d:precomp.obj
 0003:0004e3fc       ??_C@_0O@GBFEIDAI@MAX_LOD_CLAMP?$AA@ 0062c4bc     d3d8d:precomp.obj
 0003:0004e40c       ??_C@_0O@NIHCBIHJ@MIN_LOD_CLAMP?$AA@ 0062c4cc     d3d8d:precomp.obj
 0003:0004e41c       ??_C@_06OBPCDPOI@ENABLE?$AA@ 0062c4dc     d3d8d:precomp.obj
 0003:0004e424       ??_C@_0BL@BNJBMINI@NV097_SET_TEXTURE_CONTROL0?$AA@ 0062c4e4     d3d8d:precomp.obj
 0003:0004e444       ??_C@_09ENBAOKD@CYLWRAP_Q?$AA@ 0062c504     d3d8d:precomp.obj
 0003:0004e450       ??_C@_09BNMKDPOC@CYLWRAP_P?$AA@ 0062c510     d3d8d:precomp.obj
 0003:0004e45c       ??_C@_01EJNLAFE@P?$AA@     0062c51c     d3d8d:precomp.obj
 0003:0004e460       ??_C@_09ELJAJIGE@CYLWRAP_V?$AA@ 0062c520     d3d8d:precomp.obj
 0003:0004e46c       ??_C@_09GALNMLKH@CYLWRAP_U?$AA@ 0062c52c     d3d8d:precomp.obj
 0003:0004e478       ??_C@_01HJOKEEBB@U?$AA@    0062c538     d3d8d:precomp.obj
 0003:0004e47c       ??_C@_0BK@HLFADCFB@NV097_SET_TEXTURE_ADDRESS?$AA@ 0062c53c     d3d8d:precomp.obj
 0003:0004e49c       ??_C@_0M@DMMMKPIL@BASE_SIZE_P?$AA@ 0062c55c     d3d8d:precomp.obj
 0003:0004e4ac       ??_C@_0M@GKJGAIAN@BASE_SIZE_V?$AA@ 0062c56c     d3d8d:precomp.obj
 0003:0004e4bc       ??_C@_0M@EBLLFLMO@BASE_SIZE_U?$AA@ 0062c57c     d3d8d:precomp.obj
 0003:0004e4cc       ??_C@_0O@GDCFDEDC@MIPMAP_LEVELS?$AA@ 0062c58c     d3d8d:precomp.obj
 0003:0004e4dc       ??_C@_0P@CKFHKEFO@DIMENSIONALITY?$AA@ 0062c59c     d3d8d:precomp.obj
 0003:0004e4f0       ??_C@_0O@IIJIFPKC@BORDER_SOURCE?$AA@ 0062c5b0     d3d8d:precomp.obj
 0003:0004e500       ??_C@_0P@DEICCLOP@CUBEMAP_ENABLE?$AA@ 0062c5c0     d3d8d:precomp.obj
 0003:0004e514       ??_C@_0BJ@BDIJCKDJ@NV097_SET_TEXTURE_FORMAT?$AA@ 0062c5d4     d3d8d:precomp.obj
 0003:0004e534       ??_C@_0BJ@IDLBIHBA@NV097_SET_TEXTURE_OFFSET?$AA@ 0062c5f4     d3d8d:precomp.obj
 0003:0004e554       ??_C@_0BD@FHINDLMF@NV097_INLINE_ARRAY?$AA@ 0062c614     d3d8d:precomp.obj
 0003:0004e56c       ??_C@_0BK@EIJPIAJD@NV097_INLINE_VERTEX_REUSE?$AA@ 0062c62c     d3d8d:precomp.obj
 0003:0004e58c       ??_C@_0M@PBFEJEFH@START_INDEX?$AA@ 0062c64c     d3d8d:precomp.obj
 0003:0004e59c       ??_C@_05EFFCCOAM@COUNT?$AA@ 0062c65c     d3d8d:precomp.obj
 0003:0004e5a4       ??_C@_0BC@LFALMAPM@NV097_DRAW_ARRAYS?$AA@ 0062c664     d3d8d:precomp.obj
 0003:0004e5bc       ??_C@_0BG@GJOAHDKK@NV097_ARRAY_ELEMENT32?$AA@ 0062c67c     d3d8d:precomp.obj
 0003:0004e5d8       ??_C@_07JLEKJAEL@VERTEX1?$AA@ 0062c698     d3d8d:precomp.obj
 0003:0004e5e4       ??_C@_07ICFBKBAK@VERTEX0?$AA@ 0062c6a4     d3d8d:precomp.obj
 0003:0004e5f0       ??_C@_0BG@OAIGCMA@NV097_ARRAY_ELEMENT16?$AA@ 0062c6b0     d3d8d:precomp.obj
 0003:0004e60c       ??_C@_02MBMDLBEE@OP?$AA@   0062c6cc     d3d8d:precomp.obj
 0003:0004e610       ??_C@_0BE@PMFFFNFP@NV097_SET_BEGIN_END?$AA@ 0062c6d0     d3d8d:precomp.obj
 0003:0004e628       ??_C@_0BD@OFCABPDA@NV097_SET_LOGIC_OP?$AA@ 0062c6e8     d3d8d:precomp.obj
 0003:0004e640       ??_C@_0BK@HFOEHFBB@NV097_SET_LOGIC_OP_ENABLE?$AA@ 0062c700     d3d8d:precomp.obj
 0003:0004e660       ??_C@_04EMFHLKGI@SIZE?$AA@ 0062c720     d3d8d:precomp.obj
 0003:0004e668       ??_C@_06LJODIMAK@STRIDE?$AA@ 0062c728     d3d8d:precomp.obj
 0003:0004e670       ??_C@_0CD@LKNKPGHA@NV097_SET_VERTEX_DATA_ARRAY_FORM@ 0062c730     d3d8d:precomp.obj
 0003:0004e69c       ??_C@_06KPFMBGLO@OFFSET?$AA@ 0062c75c     d3d8d:precomp.obj
 0003:0004e6a4       ??_C@_0M@PAOHEAMP@CONTEXT_DMA?$AA@ 0062c764     d3d8d:precomp.obj
 0003:0004e6b4       ??_C@_0CD@CKOCFLFJ@NV097_SET_VERTEX_DATA_ARRAY_OFFS@ 0062c774     d3d8d:precomp.obj
 0003:0004e6e0       ??_C@_0O@KKDKIJLC@NV097_TL_SYNC?$AA@ 0062c7a0     d3d8d:precomp.obj
 0003:0004e6f0       ??_C@_0N@LBIJJCBL@NV097_TL_NOP?$AA@ 0062c7b0     d3d8d:precomp.obj
 0003:0004e700       ??_C@_0BN@KACPMCDH@NV097_INVALIDATE_VERTEX_FILE?$AA@ 0062c7c0     d3d8d:precomp.obj
 0003:0004e724       ??_C@_0CD@KDHFMNFG@NV097_INVALIDATE_VERTEX_CACHE_FI@ 0062c7e4     d3d8d:precomp.obj
 0003:0004e750       ??_C@_0BL@OJAHJCDF@NV097_SET_LINEAR_FOG_CONST?$AA@ 0062c810     d3d8d:precomp.obj
 0003:0004e770       ??_C@_0BI@PKPCLBEP@NV097_SET_EYE_DIRECTION?$AA@ 0062c830     d3d8d:precomp.obj
 0003:0004e78c       ??_C@_0BH@HCDHNELD@NV097_SET_TLCONST_ZERO?$AA@ 0062c84c     d3d8d:precomp.obj
 0003:0004e7a8       ??_C@_0CB@BBCJMAOI@NV097_SET_TRANSFORM_FIXED_CONST3@ 0062c868     d3d8d:precomp.obj
 0003:0004e7d0       ??_C@_0CB@IDCPBKJ@NV097_SET_TRANSFORM_FIXED_CONST2@ 0062c890     d3d8d:precomp.obj
 0003:0004e7f8       ??_C@_0CB@CDBPKCGK@NV097_SET_TRANSFORM_FIXED_CONST1@ 0062c8b8     d3d8d:precomp.obj
 0003:0004e820       ??_C@_0CB@DKAEJDCL@NV097_SET_TRANSFORM_FIXED_CONST0@ 0062c8e0     d3d8d:precomp.obj
 0003:0004e848       ??_C@_0BE@DGFBEHKI@NV097_SET_EDGE_FLAG?$AA@ 0062c908     d3d8d:precomp.obj
 0003:0004e860       ??_C@_0BD@NEKNEBAP@NV097_SET_WEIGHT4F?$AA@ 0062c920     d3d8d:precomp.obj
 0003:0004e878       ??_C@_0BD@NBOCFHIK@NV097_SET_WEIGHT3F?$AA@ 0062c938     d3d8d:precomp.obj
 0003:0004e890       ??_C@_0BD@NACADNLN@NV097_SET_WEIGHT2F?$AA@ 0062c950     d3d8d:precomp.obj
 0003:0004e8a8       ??_C@_0BD@NCGGIDOE@NV097_SET_WEIGHT1F?$AA@ 0062c968     d3d8d:precomp.obj
 0003:0004e8c0       ??_C@_0BA@FFCKOPAJ@NV097_SET_FOG1F?$AA@ 0062c980     d3d8d:precomp.obj
 0003:0004e8d4       ??_C@_0BH@EPHAPCGO@NV097_SET_TEXCOORD3_4S?$AA@ 0062c994     d3d8d:precomp.obj
 0003:0004e8f0       ??_C@_0BH@HIMFBEHK@NV097_SET_TEXCOORD3_4F?$AA@ 0062c9b0     d3d8d:precomp.obj
 0003:0004e90c       ??_C@_0BH@ELPNIONM@NV097_SET_TEXCOORD3_2S?$AA@ 0062c9cc     d3d8d:precomp.obj
 0003:0004e928       ??_C@_0BH@EBCIEBHI@NV097_SET_TEXCOORD2_2F?$AA@ 0062c9e8     d3d8d:precomp.obj
 0003:0004e944       ??_C@_0BH@HCBANLNO@NV097_SET_TEXCOORD2_4S?$AA@ 0062ca04     d3d8d:precomp.obj
 0003:0004e960       ??_C@_0BH@EFKFDNMK@NV097_SET_TEXCOORD2_4F?$AA@ 0062ca20     d3d8d:precomp.obj
 0003:0004e97c       ??_C@_0BH@HGJNKHGM@NV097_SET_TEXCOORD2_2S?$AA@ 0062ca3c     d3d8d:precomp.obj
 0003:0004e998       ??_C@_0BH@GIIDLKI@NV097_SET_TEXCOORD1_2F?$AA@ 0062ca58     d3d8d:precomp.obj
 0003:0004e9b4       ??_C@_0BH@DFLAKBAO@NV097_SET_TEXCOORD1_4S?$AA@ 0062ca74     d3d8d:precomp.obj
 0003:0004e9d0       ??_C@_0BH@CAFEHBK@NV097_SET_TEXCOORD1_4F?$AA@ 0062ca90     d3d8d:precomp.obj
 0003:0004e9ec       ??_C@_0BH@DBDNNNLM@NV097_SET_TEXCOORD1_2S?$AA@ 0062caac     d3d8d:precomp.obj
 0003:0004ea08       ??_C@_0BH@INAIILO@NV097_SET_TEXCOORD0_4S?$AA@ 0062cac8     d3d8d:precomp.obj
 0003:0004ea24       ??_C@_0BH@DPGFGOKK@NV097_SET_TEXCOORD0_4F?$AA@ 0062cae4     d3d8d:precomp.obj
 0003:0004ea40       ??_C@_0BH@MFNPEAM@NV097_SET_TEXCOORD0_2S?$AA@ 0062cb00     d3d8d:precomp.obj
 0003:0004ea5c       ??_C@_0BH@DLOIBCBI@NV097_SET_TEXCOORD0_2F?$AA@ 0062cb1c     d3d8d:precomp.obj
 0003:0004ea78       ??_C@_0BM@HKGECKDH@NV097_SET_SPECULAR_COLOR4UB?$AA@ 0062cb38     d3d8d:precomp.obj
 0003:0004ea9c       ??_C@_0BL@PCACOICA@NV097_SET_SPECULAR_COLOR3F?$AA@ 0062cb5c     d3d8d:precomp.obj
 0003:0004eabc       ??_C@_0BL@PHENPOKF@NV097_SET_SPECULAR_COLOR4F?$AA@ 0062cb7c     d3d8d:precomp.obj
 0003:0004eadc       ??_C@_0BL@FEMEPGJO@NV097_SET_DIFFUSE_COLOR4UB?$AA@ 0062cb9c     d3d8d:precomp.obj
 0003:0004eafc       ??_C@_0BK@OGNDMAFN@NV097_SET_DIFFUSE_COLOR3F?$AA@ 0062cbbc     d3d8d:precomp.obj
 0003:0004eb1c       ??_C@_0BK@ODJMNGNI@NV097_SET_DIFFUSE_COLOR4F?$AA@ 0062cbdc     d3d8d:precomp.obj
 0003:0004eb3c       ??_C@_0BD@CLALKPCP@NV097_SET_NORMAL3S?$AA@ 0062cbfc     d3d8d:precomp.obj
 0003:0004eb54       ??_C@_0BD@BMLOEJDL@NV097_SET_NORMAL3F?$AA@ 0062cc14     d3d8d:precomp.obj
 0003:0004eb6c       ??_C@_0BD@KGLOHAFA@NV097_SET_VERTEX4S?$AA@ 0062cc2c     d3d8d:precomp.obj
 0003:0004eb84       ??_C@_0BD@JBALJGEE@NV097_SET_VERTEX4F?$AA@ 0062cc44     d3d8d:precomp.obj
 0003:0004eb9c       ??_C@_0BD@JEEEIAMB@NV097_SET_VERTEX3F?$AA@ 0062cc5c     d3d8d:precomp.obj
 0003:0004ebb4       ??_C@_0CC@BGBINHFE@NV097_SET_LIGHT_LOCAL_ATTENUATIO@ 0062cc74     d3d8d:precomp.obj
 0003:0004ebdc       ??_C@_0BP@NCMIFCPI@NV097_SET_LIGHT_LOCAL_POSITION?$AA@ 0062cc9c     d3d8d:precomp.obj
 0003:0004ec04       ??_C@_0BP@FGBHCHDA@NV097_SET_LIGHT_SPOT_DIRECTION?$AA@ 0062ccc4     d3d8d:precomp.obj
 0003:0004ec2c       ??_C@_0BN@EDFOJIMA@NV097_SET_LIGHT_SPOT_FALLOFF?$AA@ 0062ccec     d3d8d:precomp.obj
 0003:0004ec50       ??_C@_0CD@KIOOCNHK@NV097_SET_LIGHT_INFINITE_DIRECTI@ 0062cd10     d3d8d:precomp.obj
 0003:0004ec7c       ??_C@_0CF@ONHKBOFK@NV097_SET_LIGHT_INFINITE_HALF_VE@ 0062cd3c     d3d8d:precomp.obj
 0003:0004eca8       ??_C@_0BM@OFLAHKFM@NV097_SET_LIGHT_LOCAL_RANGE?$AA@ 0062cd68     d3d8d:precomp.obj
 0003:0004eccc       ??_C@_0BP@FLFPDHHB@NV097_SET_LIGHT_SPECULAR_COLOR?$AA@ 0062cd8c     d3d8d:precomp.obj
 0003:0004ecf4       ??_C@_0BO@PKEHKIJL@NV097_SET_LIGHT_DIFFUSE_COLOR?$AA@ 0062cdb4     d3d8d:precomp.obj
 0003:0004ed18       ??_C@_0BO@OEJDHGKC@NV097_SET_LIGHT_AMBIENT_COLOR?$AA@ 0062cdd8     d3d8d:precomp.obj
 0003:0004ed3c       ??_C@_0CE@CAMOCDGM@NV097_SET_BACK_LIGHT_SPECULAR_CO@ 0062cdfc     d3d8d:precomp.obj
 0003:0004ed68       ??_C@_0CD@NKHIBLFB@NV097_SET_BACK_LIGHT_DIFFUSE_COL@ 0062ce28     d3d8d:precomp.obj
 0003:0004ed94       ??_C@_0CD@MEKMMFGI@NV097_SET_BACK_LIGHT_AMBIENT_COL@ 0062ce54     d3d8d:precomp.obj
 0003:0004edc0       ??_C@_0BH@OHDLBIJP@NV097_SET_EYE_POSITION?$AA@ 0062ce80     d3d8d:precomp.obj
 0003:0004eddc       ??_C@_0BH@CFLAKALB@NV097_SET_POINT_PARAMS?$AA@ 0062ce9c     d3d8d:precomp.obj
 0003:0004edf8       ??_C@_0BK@POGHMCFD@NV097_SET_VIEWPORT_OFFSET?$AA@ 0062ceb8     d3d8d:precomp.obj
 0003:0004ee18       ??_C@_0BJ@OJIGCBBB@NV097_SET_VIEWPORT_SCALE?$AA@ 0062ced8     d3d8d:precomp.obj
 0003:0004ee38       ??_C@_0BO@OPHAMFFG@NV097_SET_SCENE_AMBIENT_COLOR?$AA@ 0062cef8     d3d8d:precomp.obj
 0003:0004ee5c       ??_C@_0BP@FBKJPACA@NV097_SET_BACK_SPECULAR_PARAMS?$AA@ 0062cf1c     d3d8d:precomp.obj
 0003:0004ee84       ??_C@_0BK@NOODLMOP@NV097_SET_SPECULAR_PARAMS?$AA@ 0062cf44     d3d8d:precomp.obj
 0003:0004eea4       ??_C@_0BE@OMHLPGOA@NV097_SET_FOG_PLANE?$AA@ 0062cf64     d3d8d:precomp.obj
 0003:0004eebc       ??_C@_0BF@PMNOCIHL@NV097_SET_FOG_PARAMS?$AA@ 0062cf7c     d3d8d:precomp.obj
 0003:0004eed8       ??_C@_0BJ@IOLEHMLG@NV097_SET_TEXGEN_PLANE_Q?$AA@ 0062cf98     d3d8d:precomp.obj
 0003:0004eef8       ??_C@_0BJ@KFJJCPHF@NV097_SET_TEXGEN_PLANE_R?$AA@ 0062cfb8     d3d8d:precomp.obj
 0003:0004ef18       ??_C@_0BJ@PDMDIIPD@NV097_SET_TEXGEN_PLANE_T?$AA@ 0062cfd8     d3d8d:precomp.obj
 0003:0004ef38       ??_C@_0BJ@LMICBODE@NV097_SET_TEXGEN_PLANE_S?$AA@ 0062cff8     d3d8d:precomp.obj
 0003:0004ef58       ??_C@_0BK@FOGPDBNM@NV097_SET_TEXTURE_MATRIX3?$AA@ 0062d018     d3d8d:precomp.obj
 0003:0004ef78       ??_C@_0BK@EHHEAAJN@NV097_SET_TEXTURE_MATRIX2?$AA@ 0062d038     d3d8d:precomp.obj
 0003:0004ef98       ??_C@_0BK@GMFJFDFO@NV097_SET_TEXTURE_MATRIX1?$AA@ 0062d058     d3d8d:precomp.obj
 0003:0004efb8       ??_C@_0BK@HFECGCBP@NV097_SET_TEXTURE_MATRIX0?$AA@ 0062d078     d3d8d:precomp.obj
 0003:0004efd8       ??_C@_0BL@LMCBEEAM@NV097_SET_COMPOSITE_MATRIX?$AA@ 0062d098     d3d8d:precomp.obj
 0003:0004eff8       ??_C@_0CF@PEHKIBHG@NV097_SET_INVERSE_MODEL_VIEW_MAT@ 0062d0b8     d3d8d:precomp.obj
 0003:0004f024       ??_C@_0CF@ONGBLADH@NV097_SET_INVERSE_MODEL_VIEW_MAT@ 0062d0e4     d3d8d:precomp.obj
 0003:0004f050       ??_C@_0CF@MGEMODPE@NV097_SET_INVERSE_MODEL_VIEW_MAT@ 0062d110     d3d8d:precomp.obj
 0003:0004f07c       ??_C@_0CF@NPFHNCLF@NV097_SET_INVERSE_MODEL_VIEW_MAT@ 0062d13c     d3d8d:precomp.obj
 0003:0004f0a8       ??_C@_0BN@MCFJIAKH@NV097_SET_MODEL_VIEW_MATRIX3?$AA@ 0062d168     d3d8d:precomp.obj
 0003:0004f0cc       ??_C@_0BN@NLECLBOG@NV097_SET_MODEL_VIEW_MATRIX2?$AA@ 0062d18c     d3d8d:precomp.obj
 0003:0004f0f0       ??_C@_0BN@PAGPOCCF@NV097_SET_MODEL_VIEW_MATRIX1?$AA@ 0062d1b0     d3d8d:precomp.obj
 0003:0004f114       ??_C@_0BN@OJHENDGE@NV097_SET_MODEL_VIEW_MATRIX0?$AA@ 0062d1d4     d3d8d:precomp.obj
 0003:0004f138       ??_C@_0BM@JMIKDKAL@NV097_SET_PROJECTION_MATRIX?$AA@ 0062d1f8     d3d8d:precomp.obj
 0003:0004f15c       ??_C@_0BI@BBLODPHA@NV097_SET_FLAT_SHADE_OP?$AA@ 0062d21c     d3d8d:precomp.obj
 0003:0004f178       ??_C@_0BG@HAALKMBJ@NV097_SET_SWATH_WIDTH?$AA@ 0062d238     d3d8d:precomp.obj
 0003:0004f194       ??_C@_0BF@PCPIIKFB@NV097_SET_POINT_SIZE?$AA@ 0062d254     d3d8d:precomp.obj
 0003:0004f1b0       ??_C@_0CA@PIPPADBA@NV097_SET_TEXTURE_MATRIX_ENABLE?$AA@ 0062d270     d3d8d:precomp.obj
 0003:0004f1d8       ??_C@_0BM@NCFKHAPD@NV097_SET_TEXGEN_VIEW_MODEL?$AA@ 0062d298     d3d8d:precomp.obj
 0003:0004f1fc       ??_C@_0BD@KKLMDJKN@NV097_SET_TEXGEN_Q?$AA@ 0062d2bc     d3d8d:precomp.obj
 0003:0004f214       ??_C@_0BD@IBJBGKGO@NV097_SET_TEXGEN_R?$AA@ 0062d2d4     d3d8d:precomp.obj
 0003:0004f22c       ??_C@_0BD@NHMLMNOI@NV097_SET_TEXGEN_T?$AA@ 0062d2ec     d3d8d:precomp.obj
 0003:0004f244       ??_C@_0BD@JIIKFLCP@NV097_SET_TEXGEN_S?$AA@ 0062d304     d3d8d:precomp.obj
 0003:0004f25c       ??_C@_0BK@FHCBPEDE@NV097_SET_VERTEX_DATA4S_M?$AA@ 0062d31c     d3d8d:precomp.obj
 0003:0004f27c       ??_C@_0BJ@LKMNDMPH@NV097_SET_VERTEX_DATA4UB?$AA@ 0062d33c     d3d8d:precomp.obj
 0003:0004f29c       ??_C@_0BI@NHAPAJHM@NV097_SET_VERTEX_DATA2S?$AA@ 0062d35c     d3d8d:precomp.obj
 0003:0004f2b8       ??_C@_0BK@DAOGFDJJ@NV097_SET_VERTEX_DATA4F_M?$AA@ 0062d378     d3d8d:precomp.obj
 0003:0004f2d8       ??_C@_0BK@LPKGKGDJ@NV097_SET_VERTEX_DATA2F_M?$AA@ 0062d398     d3d8d:precomp.obj
 0003:0004f2f8       ??_C@_06IGKOLGPL@LIGHT7?$AA@ 0062d3b8     d3d8d:precomp.obj
 0003:0004f300       ??_C@_06JPLFIHLK@LIGHT6?$AA@ 0062d3c0     d3d8d:precomp.obj
 0003:0004f308       ??_C@_06LEJINEHJ@LIGHT5?$AA@ 0062d3c8     d3d8d:precomp.obj
 0003:0004f310       ??_C@_06KNIDOFDI@LIGHT4?$AA@ 0062d3d0     d3d8d:precomp.obj
 0003:0004f318       ??_C@_06OCMCHDPP@LIGHT3?$AA@ 0062d3d8     d3d8d:precomp.obj
 0003:0004f320       ??_C@_06PLNJECLO@LIGHT2?$AA@ 0062d3e0     d3d8d:precomp.obj
 0003:0004f328       ??_C@_06NAPEBBHN@LIGHT1?$AA@ 0062d3e8     d3d8d:precomp.obj
 0003:0004f330       ??_C@_06MJOPCADM@LIGHT0?$AA@ 0062d3f0     d3d8d:precomp.obj
 0003:0004f338       ??_C@_0BM@ODOAHINO@NV097_SET_LIGHT_ENABLE_MASK?$AA@ 0062d3f8     d3d8d:precomp.obj
 0003:0004f35c       ??_C@_0BK@DCPMCAAP@NV097_SET_SPECULAR_ENABLE?$AA@ 0062d41c     d3d8d:precomp.obj
 0003:0004f37c       ??_C@_0BO@MOMGMOLJ@NV097_SET_BACK_MATERIAL_ALPHA?$AA@ 0062d43c     d3d8d:precomp.obj
 0003:0004f3a0       ??_C@_0BJ@OBBEPOGF@NV097_SET_MATERIAL_ALPHA?$AA@ 0062d460     d3d8d:precomp.obj
 0003:0004f3c0       ??_C@_0BM@DNOIBAJA@NV097_SET_MATERIAL_EMISSION?$AA@ 0062d480     d3d8d:precomp.obj
 0003:0004f3e4       ??_C@_0BP@LLIEMBPI@NV097_SET_NORMALIZATION_ENABLE?$AA@ 0062d4a4     d3d8d:precomp.obj
 0003:0004f40c       ??_C@_0BF@GLLCFPOJ@NV097_SET_FRONT_FACE?$AA@ 0062d4cc     d3d8d:precomp.obj
 0003:0004f428       ??_C@_0BE@ILNOFGGJ@NV097_SET_CULL_FACE?$AA@ 0062d4e8     d3d8d:precomp.obj
 0003:0004f440       ??_C@_0BD@FNLHLNJJ@NV097_SET_CLIP_MAX?$AA@ 0062d500     d3d8d:precomp.obj
 0003:0004f458       ??_C@_0BD@EPDMFJPG@NV097_SET_CLIP_MIN?$AA@ 0062d518     d3d8d:precomp.obj
 0003:0004f470       ??_C@_0BM@JGNBIEEN@NV097_SET_BACK_POLYGON_MODE?$AA@ 0062d530     d3d8d:precomp.obj
 0003:0004f494       ??_C@_0BN@JJHACMMJ@NV097_SET_FRONT_POLYGON_MODE?$AA@ 0062d554     d3d8d:precomp.obj
 0003:0004f4b8       ??_C@_0BO@IPPLBMAB@NV097_SET_POLYGON_OFFSET_BIAS?$AA@ 0062d578     d3d8d:precomp.obj
 0003:0004f4dc       ??_C@_0CG@CGJPAEAJ@NV097_SET_POLYGON_OFFSET_SCALE_F@ 0062d59c     d3d8d:precomp.obj
 0003:0004f50c       ??_C@_0BF@OLFPAPKL@NV097_SET_LINE_WIDTH?$AA@ 0062d5cc     d3d8d:precomp.obj
 0003:0004f528       ??_C@_0BF@IOHECGMG@NV097_SET_SHADE_MODE?$AA@ 0062d5e8     d3d8d:precomp.obj
 0003:0004f544       ??_C@_0BL@BADJMALL@NV097_SET_STENCIL_OP_ZPASS?$AA@ 0062d604     d3d8d:precomp.obj
 0003:0004f564       ??_C@_0BL@CDHCIKKB@NV097_SET_STENCIL_OP_ZFAIL?$AA@ 0062d624     d3d8d:precomp.obj
 0003:0004f584       ??_C@_0BK@JPCEPEIL@NV097_SET_STENCIL_OP_FAIL?$AA@ 0062d644     d3d8d:precomp.obj
 0003:0004f5a4       ??_C@_0BM@HFENIDOH@NV097_SET_STENCIL_FUNC_MASK?$AA@ 0062d664     d3d8d:precomp.obj
 0003:0004f5c8       ??_C@_0BL@POOIOKNL@NV097_SET_STENCIL_FUNC_REF?$AA@ 0062d688     d3d8d:precomp.obj
 0003:0004f5e8       ??_C@_0BH@GKCMIIN@NV097_SET_STENCIL_FUNC?$AA@ 0062d6a8     d3d8d:precomp.obj
 0003:0004f604       ??_C@_0BH@HCCOIDHP@NV097_SET_STENCIL_MASK?$AA@ 0062d6c4     d3d8d:precomp.obj
 0003:0004f620       ??_C@_0BF@DNKFJFKP@NV097_SET_DEPTH_MASK?$AA@ 0062d6e0     d3d8d:precomp.obj
 0003:0004f63c       ??_C@_0BF@KLDHEPHN@NV097_SET_COLOR_MASK?$AA@ 0062d6fc     d3d8d:precomp.obj
 0003:0004f658       ??_C@_0BF@EJCJNOFN@NV097_SET_DEPTH_FUNC?$AA@ 0062d718     d3d8d:precomp.obj
 0003:0004f674       ??_C@_0BJ@JHOCINHB@NV097_SET_BLEND_EQUATION?$AA@ 0062d734     d3d8d:precomp.obj
 0003:0004f694       ??_C@_0BG@HPCGBIFH@NV097_SET_BLEND_COLOR?$AA@ 0062d754     d3d8d:precomp.obj
 0003:0004f6b0       ??_C@_0BN@NKEKCPON@NV097_SET_BLEND_FUNC_DFACTOR?$AA@ 0062d770     d3d8d:precomp.obj
 0003:0004f6d4       ??_C@_0BN@KMDEBHNP@NV097_SET_BLEND_FUNC_SFACTOR?$AA@ 0062d794     d3d8d:precomp.obj
 0003:0004f6f8       ??_C@_0BE@GJDDDDBB@NV097_SET_ALPHA_REF?$AA@ 0062d7b8     d3d8d:precomp.obj
 0003:0004f710       ??_C@_0BF@HKOHDIGC@NV097_SET_ALPHA_FUNC?$AA@ 0062d7d0     d3d8d:precomp.obj
 0003:0004f72c       ??_C@_0CC@DBAOAKIM@NV097_SET_POLY_OFFSET_FILL_ENABL@ 0062d7ec     d3d8d:precomp.obj
 0003:0004f754       ??_C@_0CC@HDGPIEIL@NV097_SET_POLY_OFFSET_LINE_ENABL@ 0062d814     d3d8d:precomp.obj
 0003:0004f77c       ??_C@_0CD@NDJNLJKE@NV097_SET_POLY_OFFSET_POINT_ENAB@ 0062d83c     d3d8d:precomp.obj
 0003:0004f7a8       ??_C@_0BO@GALFOIIK@NV097_SET_STENCIL_TEST_ENABLE?$AA@ 0062d868     d3d8d:precomp.obj
 0003:0004f7cc       ??_C@_0BE@IFENABII@NV097_SET_SKIN_MODE?$AA@ 0062d88c     d3d8d:precomp.obj
 0003:0004f7e4       ??_C@_0BK@LEAGEONA@NV097_SET_STIPPLE_PATTERN?$AA@ 0062d8a4     d3d8d:precomp.obj
 0003:0004f804       ??_C@_0BK@FPEGBPDP@NV097_SET_STIPPLE_CONTROL?$AA@ 0062d8c4     d3d8d:precomp.obj
 0003:0004f824       ??_C@_0BN@LJJCBBNA@NV097_SET_POLY_SMOOTH_ENABLE?$AA@ 0062d8e4     d3d8d:precomp.obj
 0003:0004f848       ??_C@_0BN@NBFMPLKJ@NV097_SET_LINE_SMOOTH_ENABLE?$AA@ 0062d908     d3d8d:precomp.obj
 0003:0004f86c       ??_C@_0BO@MEGGNBFL@NV097_SET_POINT_SMOOTH_ENABLE?$AA@ 0062d92c     d3d8d:precomp.obj
 0003:0004f890       ??_C@_0BO@BHFCPMOB@NV097_SET_POINT_PARAMS_ENABLE?$AA@ 0062d950     d3d8d:precomp.obj
 0003:0004f8b4       ??_C@_0BK@JDCIDGBL@NV097_SET_LIGHTING_ENABLE?$AA@ 0062d974     d3d8d:precomp.obj
 0003:0004f8d4       ??_C@_0BI@LLPFMPME@NV097_SET_DITHER_ENABLE?$AA@ 0062d994     d3d8d:precomp.obj
 0003:0004f8f0       ??_C@_0BM@BLLIMDKB@NV097_SET_DEPTH_TEST_ENABLE?$AA@ 0062d9b0     d3d8d:precomp.obj
 0003:0004f914       ??_C@_0BL@MHADOMNN@NV097_SET_CULL_FACE_ENABLE?$AA@ 0062d9d4     d3d8d:precomp.obj
 0003:0004f934       ??_C@_0BH@MMLACNIG@NV097_SET_BLEND_ENABLE?$AA@ 0062d9f4     d3d8d:precomp.obj
 0003:0004f950       ??_C@_0BM@DBDFOPHA@NV097_SET_ALPHA_TEST_ENABLE?$AA@ 0062da10     d3d8d:precomp.obj
 0003:0004f974       ??_C@_04GGJKBFBD@YMAX?$AA@ 0062da34     d3d8d:precomp.obj
 0003:0004f97c       ??_C@_04HEBBPBHM@YMIN?$AA@ 0062da3c     d3d8d:precomp.obj
 0003:0004f984       ??_C@_0BP@BKEICPMO@NV097_SET_WINDOW_CLIP_VERTICAL?$AA@ 0062da44     d3d8d:precomp.obj
 0003:0004f9ac       ??_C@_04FLPKDMKD@XMAX?$AA@ 0062da6c     d3d8d:precomp.obj
 0003:0004f9b4       ??_C@_04EJHBNIMM@XMIN?$AA@ 0062da74     d3d8d:precomp.obj
 0003:0004f9bc       ??_C@_0CB@OJCJMPFI@NV097_SET_WINDOW_CLIP_HORIZONTAL@ 0062da7c     d3d8d:precomp.obj
 0003:0004f9e4       ??_C@_0BL@HHIFIGMC@NV097_SET_WINDOW_CLIP_TYPE?$AA@ 0062daa4     d3d8d:precomp.obj
 0003:0004fa04       ??_C@_0BK@INKHNKII@NV097_SET_COLOR_KEY_COLOR?$AA@ 0062dac4     d3d8d:precomp.obj
 0003:0004fa24       ??_C@_0BE@NILCMKHJ@NV097_SET_FOG_COLOR?$AA@ 0062dae4     d3d8d:precomp.obj
 0003:0004fa3c       ??_C@_0BF@BAMBLEJL@NV097_SET_FOG_ENABLE?$AA@ 0062dafc     d3d8d:precomp.obj
 0003:0004fa58       ??_C@_0BH@MMGFDGHB@NV097_SET_FOG_GEN_MODE?$AA@ 0062db18     d3d8d:precomp.obj
 0003:0004fa74       ??_C@_0BD@HBEIJECD@NV097_SET_FOG_MODE?$AA@ 0062db34     d3d8d:precomp.obj
 0003:0004fa8c       ??_C@_0BD@OJPDDNDK@BACK_DIFF_MATERIAL?$AA@ 0062db4c     d3d8d:precomp.obj
 0003:0004faa4       ??_C@_0BG@IFHMIJDJ@BACK_AMBIENT_MATERIAL?$AA@ 0062db64     d3d8d:precomp.obj
 0003:0004fac0       ??_C@_0BH@MGCBLMMA@BACK_EMISSIVE_MATERIAL?$AA@ 0062db80     d3d8d:precomp.obj
 0003:0004fadc       ??_C@_0BC@KPNANEGM@SPECULAR_MATERIAL?$AA@ 0062db9c     d3d8d:precomp.obj
 0003:0004faf4       ??_C@_0O@COELGFFC@DIFF_MATERIAL?$AA@ 0062dbb4     d3d8d:precomp.obj
 0003:0004fb04       ??_C@_0BB@HEGAPPIE@AMBIENT_MATERIAL?$AA@ 0062dbc4     d3d8d:precomp.obj
 0003:0004fb18       ??_C@_0BC@HDAAGPIH@EMISSIVE_MATERIAL?$AA@ 0062dbd8     d3d8d:precomp.obj
 0003:0004fb30       ??_C@_0BJ@EFGGFLPE@NV097_SET_COLOR_MATERIAL?$AA@ 0062dbf0     d3d8d:precomp.obj
 0003:0004fb50       ??_C@_0BF@KBJHEEOL@SEPARATE_SPECULAR_EN?$AA@ 0062dc10     d3d8d:precomp.obj
 0003:0004fb6c       ??_C@_04DBLJIBJJ@SOUT?$AA@ 0062dc2c     d3d8d:precomp.obj
 0003:0004fb74       ??_C@_08LPKAMOBG@LOCALEYE?$AA@ 0062dc34     d3d8d:precomp.obj
 0003:0004fb80       ??_C@_0BI@GOPANCCI@NV097_SET_LIGHT_CONTROL?$AA@ 0062dc40     d3d8d:precomp.obj
 0003:0004fb9c       ??_C@_0BF@BAHICDJE@STENCIL_WRITE_ENABLE?$AA@ 0062dc5c     d3d8d:precomp.obj
 0003:0004fbb8       ??_C@_08CPHLFKMF@Z_FORMAT?$AA@ 0062dc78     d3d8d:precomp.obj
 0003:0004fbc4       ??_C@_0BF@OADKEIJL@Z_PERSPECTIVE_ENABLE?$AA@ 0062dc84     d3d8d:precomp.obj
 0003:0004fbe0       ??_C@_0BD@MOCHDPFB@TEXTUREPERSPECTIVE?$AA@ 0062dca0     d3d8d:precomp.obj
 0003:0004fbf8       ??_C@_0BD@IMOBKENL@PREMULTIPLIEDALPHA?$AA@ 0062dcb8     d3d8d:precomp.obj
 0003:0004fc10       ??_C@_0BE@CFDFCCMG@COLOR_SPACE_CONVERT?$AA@ 0062dcd0     d3d8d:precomp.obj
 0003:0004fc28       ??_C@_0BD@HKGLLICE@NV097_SET_CONTROL0?$AA@ 0062dce8     d3d8d:precomp.obj
 0003:0004fc40       ??_C@_0BI@OMGDELEN@SPECULAR_ADD_INVERT_R12?$AA@ 0062dd00     d3d8d:precomp.obj
 0003:0004fc5c       ??_C@_0BH@KMACPPEF@SPECULAR_ADD_INVERT_R5?$AA@ 0062dd1c     d3d8d:precomp.obj
 0003:0004fc78       ??_C@_0P@EBKKDIK@SPECULAR_CLAMP?$AA@ 0062dd38     d3d8d:precomp.obj
 0003:0004fc8c       ??_C@_08KNBFCACN@G_SOURCE?$AA@ 0062dd4c     d3d8d:precomp.obj
 0003:0004fc98       ??_C@_07GJPJLDCD@G_ALPHA?$AA@ 0062dd58     d3d8d:precomp.obj
 0003:0004fca4       ??_C@_09CHCKACEG@G_INVERSE?$AA@ 0062dd64     d3d8d:precomp.obj
 0003:0004fcb0       ??_C@_08LKGODEGO@F_SOURCE?$AA@ 0062dd70     d3d8d:precomp.obj
 0003:0004fcbc       ??_C@_07KFFDLDLN@F_ALPHA?$AA@ 0062dd7c     d3d8d:precomp.obj
 0003:0004fcc8       ??_C@_09MIOIGJHI@F_INVERSE?$AA@ 0062dd88     d3d8d:precomp.obj
 0003:0004fcd4       ??_C@_08IDODAIKL@E_SOURCE?$AA@ 0062dd94     d3d8d:precomp.obj
 0003:0004fce0       ??_C@_07CLNMLEFO@E_ALPHA?$AA@ 0062dda0     d3d8d:precomp.obj
 0003:0004fcec       ??_C@_09CDNPNCHL@E_INVERSE?$AA@ 0062ddac     d3d8d:precomp.obj
 0003:0004fcf8       ??_C@_0CE@EAHKDCDN@NV097_SET_COMBINER_SPECULAR_FOG_@ 0062ddb8     d3d8d:precomp.obj
 0003:0004fd24       ??_C@_09MMBNLJEF@D_INVERSE?$AA@ 0062dde4     d3d8d:precomp.obj
 0003:0004fd30       ??_C@_09COMBKCDM@C_INVERSE?$AA@ 0062ddf0     d3d8d:precomp.obj
 0003:0004fd3c       ??_C@_09MBADMJAC@B_INVERSE?$AA@ 0062ddfc     d3d8d:precomp.obj
 0003:0004fd48       ??_C@_09CKDEHCAB@A_INVERSE?$AA@ 0062de08     d3d8d:precomp.obj
 0003:0004fd54       ??_C@_0CE@FJGBADHM@NV097_SET_COMBINER_SPECULAR_FOG_@ 0062de14     d3d8d:precomp.obj
 0003:0004fd80       ??_C@_06JNKBJING@CD_DST?$AA@ 0062de40     d3d8d:precomp.obj
 0003:0004fd88       ??_C@_06NMGHGKOC@AB_DST?$AA@ 0062de48     d3d8d:precomp.obj
 0003:0004fd90       ??_C@_07JNEHJENI@SUM_DST?$AA@ 0062de50     d3d8d:precomp.obj
 0003:0004fd9c       ??_C@_0L@BAHEEKJK@MUX_ENABLE?$AA@ 0062de5c     d3d8d:precomp.obj
 0003:0004fdac       ??_C@_09COBGLBMG@OPERATION?$AA@ 0062de6c     d3d8d:precomp.obj
 0003:0004fdb8       ??_C@_0BN@GIJGJCOE@NV097_SET_COMBINER_ALPHA_OCW?$AA@ 0062de78     d3d8d:precomp.obj
 0003:0004fddc       ??_C@_0BL@NIOGFHCP@NV097_SET_COMBINER_FACTOR1?$AA@ 0062de9c     d3d8d:precomp.obj
 0003:0004fdfc       ??_C@_05ELNMJPED@ALPHA?$AA@ 0062debc     d3d8d:precomp.obj
 0003:0004fe04       ??_C@_03FNPLCCOA@RED?$AA@  0062dec4     d3d8d:precomp.obj
 0003:0004fe08       ??_C@_05KKNCHNIM@GREEN?$AA@ 0062dec8     d3d8d:precomp.obj
 0003:0004fe10       ??_C@_04CNFFLDFF@BLUE?$AA@ 0062ded0     d3d8d:precomp.obj
 0003:0004fe18       ??_C@_0BL@MBPNGGGO@NV097_SET_COMBINER_FACTOR0?$AA@ 0062ded8     d3d8d:precomp.obj
 0003:0004fe38       ??_C@_0BN@BLHEELBP@NV097_SET_COMBINER_COLOR_ICW?$AA@ 0062def8     d3d8d:precomp.obj
 0003:0004fe5c       ??_C@_08JEJIBMOI@D_SOURCE?$AA@ 0062df1c     d3d8d:precomp.obj
 0003:0004fe68       ??_C@_07OHHGLEMA@D_ALPHA?$AA@ 0062df28     d3d8d:precomp.obj
 0003:0004fe74       ??_C@_05MCCKHEHP@D_MAP?$AA@ 0062df34     d3d8d:precomp.obj
 0003:0004fe7c       ??_C@_08PAPJHBCB@C_SOURCE?$AA@ 0062df3c     d3d8d:precomp.obj
 0003:0004fe88       ??_C@_07ONLDLNNJ@C_ALPHA?$AA@ 0062df48     d3d8d:precomp.obj
 0003:0004fe94       ??_C@_05NPCPEEMH@C_MAP?$AA@ 0062df54     d3d8d:precomp.obj
 0003:0004fe9c       ??_C@_08OHICGFGC@B_SOURCE?$AA@ 0062df5c     d3d8d:precomp.obj
 0003:0004fea8       ??_C@_07CBBJLNEH@B_ALPHA?$AA@ 0062df68     d3d8d:precomp.obj
 0003:0004feb4       ??_C@_05BEHDJHGC@B_MAP?$AA@ 0062df74     d3d8d:precomp.obj
 0003:0004febc       ??_C@_08NOAPFJKH@A_SOURCE?$AA@ 0062df7c     d3d8d:precomp.obj
 0003:0004fec8       ??_C@_07KPJGLKKE@A_ALPHA?$AA@ 0062df88     d3d8d:precomp.obj
 0003:0004fed4       ??_C@_05JCOHOFMM@A_MAP?$AA@ 0062df94     d3d8d:precomp.obj
 0003:0004fedc       ??_C@_0BN@ENPNMNDI@NV097_SET_COMBINER_ALPHA_ICW?$AA@ 0062df9c     d3d8d:precomp.obj
 0003:0004ff00       ??_C@_0BO@HDCHDAAK@NV097_SET_SURFACE_ZETA_OFFSET?$AA@ 0062dfc0     d3d8d:precomp.obj
 0003:0004ff24       ??_C@_0BP@DFNCENEJ@NV097_SET_SURFACE_COLOR_OFFSET?$AA@ 0062dfe4     d3d8d:precomp.obj
 0003:0004ff4c       ??_C@_04GFGDIPKP@ZETA?$AA@ 0062e00c     d3d8d:precomp.obj
 0003:0004ff54       ??_C@_05DPNLPLKI@COLOR?$AA@ 0062e014     d3d8d:precomp.obj
 0003:0004ff5c       ??_C@_0BI@HFNFMJJN@NV097_SET_SURFACE_PITCH?$AA@ 0062e01c     d3d8d:precomp.obj
 0003:0004ff78       ??_C@_06LJJMJONE@HEIGHT?$AA@ 0062e038     d3d8d:precomp.obj
 0003:0004ff80       ??_C@_01NFFPALBN@Y?$AA@    0062e040     d3d8d:precomp.obj
 0003:0004ff84       ??_C@_0CA@ELFKILKJ@NV097_SET_SURFACE_CLIP_VERTICAL?$AA@ 0062e044     d3d8d:precomp.obj
 0003:0004ffac       ??_C@_05ENDGNACA@WIDTH?$AA@ 0062e06c     d3d8d:precomp.obj
 0003:0004ffb4       ??_C@_01MMEEDKFM@X?$AA@    0062e074     d3d8d:precomp.obj
 0003:0004ffb8       ??_C@_0CC@BCCOAENL@NV097_SET_SURFACE_CLIP_HORIZONTA@ 0062e078     d3d8d:precomp.obj
 0003:0004ffe0       ??_C@_0BN@PBCDOEKM@NV097_SET_CONTEXT_DMA_REPORT?$AA@ 0062e0a0     d3d8d:precomp.obj
 0003:00050004       ??_C@_0CA@NJMNAFIL@NV097_SET_CONTEXT_DMA_SEMAPHORE?$AA@ 0062e0c4     d3d8d:precomp.obj
 0003:0005002c       ??_C@_0BP@DLAOCGPK@NV097_SET_CONTEXT_DMA_VERTEX_B?$AA@ 0062e0ec     d3d8d:precomp.obj
 0003:00050054       ??_C@_0BP@BACDHFDJ@NV097_SET_CONTEXT_DMA_VERTEX_A?$AA@ 0062e114     d3d8d:precomp.obj
 0003:0005007c       ??_C@_0BL@EICGHCIL@NV097_SET_CONTEXT_DMA_ZETA?$AA@ 0062e13c     d3d8d:precomp.obj
 0003:0005009c       ??_C@_0BM@DPFFKIE@NV097_SET_CONTEXT_DMA_COLOR?$AA@ 0062e15c     d3d8d:precomp.obj
 0003:000500c0       ??_C@_0BM@PAIJOOFG@NV097_SET_CONTEXT_DMA_STATE?$AA@ 0062e180     d3d8d:precomp.obj
 0003:000500e4       ??_C@_0BI@BAALFGGH@NV097_SET_CONTEXT_DMA_B?$AA@ 0062e1a4     d3d8d:precomp.obj
 0003:00050100       ??_C@_0BI@DLCGAFKE@NV097_SET_CONTEXT_DMA_A?$AA@ 0062e1c0     d3d8d:precomp.obj
 0003:0005011c       ??_C@_0BP@IMCDLBLI@NV097_SET_CONTEXT_DMA_NOTIFIES?$AA@ 0062e1dc     d3d8d:precomp.obj
 0003:00050144       ??_C@_0BB@EFOELFGO@NV097_FLIP_STALL?$AA@ 0062e204     d3d8d:precomp.obj
 0003:00050158       ??_C@_0BL@PLLKFIGN@NV097_FLIP_INCREMENT_WRITE?$AA@ 0062e218     d3d8d:precomp.obj
 0003:00050178       ??_C@_0BG@DKHMBOF@NV097_SET_FLIP_MODULO?$AA@ 0062e238     d3d8d:precomp.obj
 0003:00050194       ??_C@_0BF@OPBHMOOO@NV097_SET_FLIP_WRITE?$AA@ 0062e254     d3d8d:precomp.obj
 0003:000501b0       ??_C@_0BE@IFJHNCOD@NV097_SET_FLIP_READ?$AA@ 0062e270     d3d8d:precomp.obj
 0003:000501c8       ??_C@_0BB@KNNEBDDK@NV097_PM_TRIGGER?$AA@ 0062e288     d3d8d:precomp.obj
 0003:000501dc       ??_C@_0BE@EMDOAHMO@NV097_WAIT_FOR_IDLE?$AA@ 0062e29c     d3d8d:precomp.obj
 0003:000501f4       ??_C@_08JHHIJFJE@GETSTATE?$AA@ 0062e2b4     d3d8d:precomp.obj
 0003:00050200       ??_C@_0BA@HPBOPOPE@NV097_GET_STATE?$AA@ 0062e2c0     d3d8d:precomp.obj
 0003:00050214       ??_C@_01FCMHBHNC@V?$AA@    0062e2d4     d3d8d:precomp.obj
 0003:00050218       ??_C@_0BJ@KODGDHHD@NV097_SET_WARNING_ENABLE?$AA@ 0062e2d8     d3d8d:precomp.obj
 0003:00050238       ??_C@_04KDPJLEDB@TYPE?$AA@ 0062e2f8     d3d8d:precomp.obj
 0003:00050240       ??_C@_0N@MAKHKKFL@NV097_NOTIFY?$AA@ 0062e300     d3d8d:precomp.obj
 0003:00050250       ??_C@_04PCJGBDOP@Zero?$AA@ 0062e310     d3d8d:precomp.obj
 0003:00050258       ??_C@_0BD@IJMBNHPO@NV097_NO_OPERATION?$AA@ 0062e318     d3d8d:precomp.obj
 0003:00050270       ??_C@_03HIPFDOEB@D3D?$AA@  0062e330     d3d8d:debug.obj
 0003:00050f50       ??_C@_09NJHEAKNJ@RESULTARG?$AA@ 0062f010     d3d8d:stats.obj
 0003:00050f5c       ??_C@_09BNGJABHD@ALPHAARG0?$AA@ 0062f01c     d3d8d:stats.obj
 0003:00050f68       ??_C@_09ELOAIHFE@COLORARG0?$AA@ 0062f028     d3d8d:stats.obj
 0003:00050f74       ??_C@_08FOGBOEJL@ADDRESSW?$AA@ 0062f034     d3d8d:stats.obj
 0003:00050f80       ??_C@_0BG@ONDPMHDF@TEXTURETRANSFORMFLAGS?$AA@ 0062f040     d3d8d:stats.obj
 0003:00050f9c       ??_C@_0P@LKPKGDAC@BUMPENVLOFFSET?$AA@ 0062f05c     d3d8d:stats.obj
 0003:00050fb0       ??_C@_0O@HAAKADHN@BUMPENVLSCALE?$AA@ 0062f070     d3d8d:stats.obj
 0003:00050fc0       ??_C@_0O@BPHLIGBH@MAXANISOTROPY?$AA@ 0062f080     d3d8d:stats.obj
 0003:00050fd0       ??_C@_0M@IBELFJEO@MAXMIPLEVEL?$AA@ 0062f090     d3d8d:stats.obj
 0003:00050fe0       ??_C@_0O@LMMLNGGL@MIPMAPLODBIAS?$AA@ 0062f0a0     d3d8d:stats.obj
 0003:00050ff0       ??_C@_09HIBKBLKE@MIPFILTER?$AA@ 0062f0b0     d3d8d:stats.obj
 0003:00050ffc       ??_C@_09BBCLDILN@MINFILTER?$AA@ 0062f0bc     d3d8d:stats.obj
 0003:00051008       ??_C@_09LFLMIBIO@MAGFILTER?$AA@ 0062f0c8     d3d8d:stats.obj
 0003:00051014       ??_C@_0M@IHIMGIEL@BORDERCOLOR?$AA@ 0062f0d4     d3d8d:stats.obj
 0003:00051024       ??_C@_08EHHKNFNK@ADDRESSV?$AA@ 0062f0e4     d3d8d:stats.obj
 0003:00051030       ??_C@_08GMFHIGBJ@ADDRESSU?$AA@ 0062f0f0     d3d8d:stats.obj
 0003:0005103c       ??_C@_0O@NDJAGMKB@TEXCOORDINDEX?$AA@ 0062f0fc     d3d8d:stats.obj
 0003:0005104c       ??_C@_0N@LEJDFAJA@BUMPENVMAT11?$AA@ 0062f10c     d3d8d:stats.obj
 0003:0005105c       ??_C@_0N@KNIIGBNB@BUMPENVMAT10?$AA@ 0062f11c     d3d8d:stats.obj
 0003:0005106c       ??_C@_0N@LFFBDKKH@BUMPENVMAT01?$AA@ 0062f12c     d3d8d:stats.obj
 0003:0005107c       ??_C@_0N@KMEKALOG@BUMPENVMAT00?$AA@ 0062f13c     d3d8d:stats.obj
 0003:0005108c       ??_C@_09CPFPGDPB@ALPHAARG2?$AA@ 0062f14c     d3d8d:stats.obj
 0003:00051098       ??_C@_09EHCDADC@ALPHAARG1?$AA@ 0062f158     d3d8d:stats.obj
 0003:000510a4       ??_C@_07HKJJEOGG@ALPHAOP?$AA@ 0062f164     d3d8d:stats.obj
 0003:000510b0       ??_C@_09HJNGOFNG@COLORARG2?$AA@ 0062f170     d3d8d:stats.obj
 0003:000510bc       ??_C@_09FCPLLGBF@COLORARG1?$AA@ 0062f17c     d3d8d:stats.obj
 0003:000510c8       ??_C@_07INMMLFAH@COLOROP?$AA@ 0062f188     d3d8d:stats.obj
 0003:000510d4       ??_C@_07BPJDNPDP@BLENDOP?$AA@ 0062f194     d3d8d:stats.obj
 0003:000510e0       ??_C@_0BB@KOJBIKMA@COLORWRITEENABLE?$AA@ 0062f1a0     d3d8d:stats.obj
 0003:000510f4       ??_C@_0O@HPIDPBID@POINTSIZE_MAX?$AA@ 0062f1b4     d3d8d:stats.obj
 0003:00051104       ??_C@_0O@JNNNMPPB@PATCHSEGMENTS?$AA@ 0062f1c4     d3d8d:stats.obj
 0003:00051114       ??_C@_0P@FDMCFNLL@PATCHEDGESTYLE?$AA@ 0062f1d4     d3d8d:stats.obj
 0003:00051128       ??_C@_0BA@EOIGANJC@MULTISAMPLEMASK?$AA@ 0062f1e8     d3d8d:stats.obj
 0003:0005113c       ??_C@_0BF@NFOEAMCN@MULTISAMPLEANTIALIAS?$AA@ 0062f1fc     d3d8d:stats.obj
 0003:00051158       ??_C@_0N@FOANIMIK@POINTSCALE_C?$AA@ 0062f218     d3d8d:stats.obj
 0003:00051168       ??_C@_0N@EHBGLNML@POINTSCALE_B?$AA@ 0062f228     d3d8d:stats.obj
 0003:00051178       ??_C@_0N@GMDLOOAI@POINTSCALE_A?$AA@ 0062f238     d3d8d:stats.obj
 0003:00051188       ??_C@_0BB@IMIGEIPA@POINTSCALEENABLE?$AA@ 0062f248     d3d8d:stats.obj
 0003:0005119c       ??_C@_0BC@HKMABPOH@POINTSPRITEENABLE?$AA@ 0062f25c     d3d8d:stats.obj
 0003:000511b4       ??_C@_0O@GNAIBFOM@POINTSIZE_MIN?$AA@ 0062f274     d3d8d:stats.obj
 0003:000511c4       ??_C@_09GEDJPCJO@POINTSIZE?$AA@ 0062f284     d3d8d:stats.obj
 0003:000511d0       ??_C@_0M@IOCDMCGM@VERTEXBLEND?$AA@ 0062f290     d3d8d:stats.obj
 0003:000511e0       ??_C@_0BH@OFPGONAA@EMISSIVEMATERIALSOURCE?$AA@ 0062f2a0     d3d8d:stats.obj
 0003:000511fc       ??_C@_0BG@BIIACLJD@AMBIENTMATERIALSOURCE?$AA@ 0062f2bc     d3d8d:stats.obj
 0003:00051218       ??_C@_0BH@NAIFGNHG@SPECULARMATERIALSOURCE?$AA@ 0062f2d8     d3d8d:stats.obj
 0003:00051234       ??_C@_0BG@CPIBGMAH@DIFFUSEMATERIALSOURCE?$AA@ 0062f2f4     d3d8d:stats.obj
 0003:00051250       ??_C@_0BB@DMDBLADF@NORMALIZENORMALS?$AA@ 0062f310     d3d8d:stats.obj
 0003:00051264       ??_C@_0M@GGOCEFHL@LOCALVIEWER?$AA@ 0062f324     d3d8d:stats.obj
 0003:00051274       ??_C@_0M@JNGLFIB@COLORVERTEX?$AA@ 0062f334     d3d8d:stats.obj
 0003:00051284       ??_C@_07EFFMPHJG@AMBIENT?$AA@ 0062f344     d3d8d:stats.obj
 0003:00051290       ??_C@_08JLJGAGMG@LIGHTING?$AA@ 0062f350     d3d8d:stats.obj
 0003:0005129c       ??_C@_05KGBKIOGA@WRAP3?$AA@ 0062f35c     d3d8d:stats.obj
 0003:000512a4       ??_C@_05LPABLPCB@WRAP2?$AA@ 0062f364     d3d8d:stats.obj
 0003:000512ac       ??_C@_05JECMOMOC@WRAP1?$AA@ 0062f36c     d3d8d:stats.obj
 0003:000512b4       ??_C@_05INDHNNKD@WRAP0?$AA@ 0062f374     d3d8d:stats.obj
 0003:000512bc       ??_C@_0O@GLBNFMOK@TEXTUREFACTOR?$AA@ 0062f37c     d3d8d:stats.obj
 0003:000512cc       ??_C@_0BB@HGHJGPPM@STENCILWRITEMASK?$AA@ 0062f38c     d3d8d:stats.obj
 0003:000512e0       ??_C@_0M@JJMMJBIP@STENCILMASK?$AA@ 0062f3a0     d3d8d:stats.obj
 0003:000512f0       ??_C@_0L@BMAIKEBK@STENCILREF?$AA@ 0062f3b0     d3d8d:stats.obj
 0003:00051300       ??_C@_0M@ONEANKHN@STENCILFUNC?$AA@ 0062f3c0     d3d8d:stats.obj
 0003:00051310       ??_C@_0M@IDKHFKOF@STENCILPASS?$AA@ 0062f3d0     d3d8d:stats.obj
 0003:00051320       ??_C@_0N@HEDFPHGA@STENCILZFAIL?$AA@ 0062f3e0     d3d8d:stats.obj
 0003:00051330       ??_C@_0M@LAOMBAPP@STENCILFAIL?$AA@ 0062f3f0     d3d8d:stats.obj
 0003:00051340       ??_C@_0O@GKAMAGKE@STENCILENABLE?$AA@ 0062f400     d3d8d:stats.obj
 0003:00051350       ??_C@_0P@EELMKGFJ@RANGEFOGENABLE?$AA@ 0062f410     d3d8d:stats.obj
 0003:00051364       ??_C@_05MHMJIADD@ZBIAS?$AA@ 0062f424     d3d8d:stats.obj
 0003:0005136c       ??_C@_0O@ENIMOEIA@EDGEANTIALIAS?$AA@ 0062f42c     d3d8d:stats.obj
 0003:0005137c       ??_C@_0L@GIBCJAFE@FOGDENSITY?$AA@ 0062f43c     d3d8d:stats.obj
 0003:0005138c       ??_C@_06BDEONOOG@FOGEND?$AA@ 0062f44c     d3d8d:stats.obj
 0003:00051394       ??_C@_08BAKBEEOO@FOGSTART?$AA@ 0062f454     d3d8d:stats.obj
 0003:000513a0       ??_C@_0N@HHOOJBN@FOGTABLEMODE?$AA@ 0062f460     d3d8d:stats.obj
 0003:000513b0       ??_C@_08LEIJKPJO@FOGCOLOR?$AA@ 0062f470     d3d8d:stats.obj
 0003:000513bc       ??_C@_0P@KHHIJEKI@SPECULARENABLE?$AA@ 0062f47c     d3d8d:stats.obj
 0003:000513d0       ??_C@_09COMDPICF@FOGENABLE?$AA@ 0062f490     d3d8d:stats.obj
 0003:000513dc       ??_C@_0BB@LJLBKFFE@ALPHABLENDENABLE?$AA@ 0062f49c     d3d8d:stats.obj
 0003:000513f0       ??_C@_0N@GFBIILEJ@DITHERENABLE?$AA@ 0062f4b0     d3d8d:stats.obj
 0003:00051400       ??_C@_09DJFNPEGA@ALPHAFUNC?$AA@ 0062f4c0     d3d8d:stats.obj
 0003:0005140c       ??_C@_08LKBGFLHJ@ALPHAREF?$AA@ 0062f4cc     d3d8d:stats.obj
 0003:00051418       ??_C@_05GJBIJLLI@ZFUNC?$AA@ 0062f4d8     d3d8d:stats.obj
 0003:00051420       ??_C@_08IBJHLGOE@CULLMODE?$AA@ 0062f4e0     d3d8d:stats.obj
 0003:0005142c       ??_C@_09IOFKNDHB@DESTBLEND?$AA@ 0062f4ec     d3d8d:stats.obj
 0003:00051438       ??_C@_08KNIBJBFG@SRCBLEND?$AA@ 0062f4f8     d3d8d:stats.obj
 0003:00051444       ??_C@_0BA@NODJIODI@ALPHATESTENABLE?$AA@ 0062f504     d3d8d:stats.obj
 0003:00051458       ??_C@_0N@EGCNALM@ZWRITEENABLE?$AA@ 0062f518     d3d8d:stats.obj
 0003:00051468       ??_C@_09LIHDEJNE@SHADEMODE?$AA@ 0062f528     d3d8d:stats.obj
 0003:00051474       ??_C@_08OABENHMP@FILLMODE?$AA@ 0062f534     d3d8d:stats.obj
 0003:00051480       ??_C@_07NNFKNAPB@ZENABLE?$AA@ 0062f540     d3d8d:stats.obj
 0003:0005148c       ??_C@_0P@CKFOMMB@D3DFIXUP_RESET?$AA@ 0062f54c     d3d8d:stats.obj
 0003:000514a0       ??_C@_0BC@BLJPNOIF@D3DFIXUP_GETSPACE?$AA@ 0062f560     d3d8d:stats.obj
 0003:000514b8       ??_C@_0BB@PDPFLIEI@D3DFIXUP_GETSIZE?$AA@ 0062f578     d3d8d:stats.obj
 0003:000514cc       ??_C@_0BF@DOLFDKNM@D3DPUSHBUFFER_VERIFY?$AA@ 0062f58c     d3d8d:stats.obj
 0003:000514e8       ??_C@_0CD@MGIIDEOK@D3DPUSHBUFFER_SETVERTEXSHADERINP@ 0062f5a8     d3d8d:stats.obj
 0003:00051514       ??_C@_0CG@MDHLCEBJ@D3DPUSHBUFFER_SETVERTEXSHADERCON@ 0062f5d4     d3d8d:stats.obj
 0003:00051544       ??_C@_0CG@MJDOKEKM@D3DPUSHBUFFER_SETVERTEXBLENDMODE@ 0062f604     d3d8d:stats.obj
 0003:00051574       ??_C@_0BJ@NBJMMODO@D3DPUSHBUFFER_SETTEXTURE?$AA@ 0062f634     d3d8d:stats.obj
 0003:00051594       ??_C@_0BO@GAFKFNDD@D3DPUSHBUFFER_SETRENDERTARGET?$AA@ 0062f654     d3d8d:stats.obj
 0003:000515b8       ??_C@_0BJ@NIGPABLP@D3DPUSHBUFFER_SETPALETTE?$AA@ 0062f678     d3d8d:stats.obj
 0003:000515d8       ??_C@_0BL@IBBFHIGH@D3DPUSHBUFFER_SETMODELVIEW?$AA@ 0062f698     d3d8d:stats.obj
 0003:000515f8       ??_C@_0BM@MLFLHIDC@D3DPUSHBUFFER_RUNPUSHBUFFER?$AA@ 0062f6b8     d3d8d:stats.obj
 0003:0005161c       ??_C@_0BD@BAACLFJP@D3DPUSHBUFFER_JUMP?$AA@ 0062f6dc     d3d8d:stats.obj
 0003:00051634       ??_C@_0CA@DCECJFNO@D3DPUSHBUFFER_ENDVISIBILITYTEST?$AA@ 0062f6f4     d3d8d:stats.obj
 0003:0005165c       ??_C@_0BH@DMNOFFGM@D3DPUSHBUFFER_ENDFIXUP?$AA@ 0062f71c     d3d8d:stats.obj
 0003:00051678       ??_C@_0BJ@KPCMMDBF@D3DPUSHBUFFER_BEGINFIXUP?$AA@ 0062f738     d3d8d:stats.obj
 0003:00051698       ??_C@_0BA@EAFFGDHJ@D3DPALETTE_LOCK?$AA@ 0062f758     d3d8d:stats.obj
 0003:000516ac       ??_C@_0BD@LDJBGEGJ@D3DPALETTE_GETSIZE?$AA@ 0062f76c     d3d8d:stats.obj
 0003:000516c4       ??_C@_0BE@MKPAHHEF@D3DSURFACE_LOCKRECT?$AA@ 0062f784     d3d8d:stats.obj
 0003:000516dc       ??_C@_0BD@JGEPAMBC@D3DSURFACE_GETDESC?$AA@ 0062f79c     d3d8d:stats.obj
 0003:000516f4       ??_C@_0BI@CKOODHGE@D3DSURFACE_GETCONTAINER?$AA@ 0062f7b4     d3d8d:stats.obj
 0003:00051710       ??_C@_0BC@BLMEPDDF@D3DVOLUME_LOCKBOX?$AA@ 0062f7d0     d3d8d:stats.obj
 0003:00051728       ??_C@_0BC@FPIALMOI@D3DVOLUME_GETDESC?$AA@ 0062f7e8     d3d8d:stats.obj
 0003:00051740       ??_C@_0BH@LFNDIMHI@D3DVOLUME_GETCONTAINER?$AA@ 0062f800     d3d8d:stats.obj
 0003:0005175c       ??_C@_0BH@GDOCMOJO@D3DINDEXBUFFER_GETDESC?$AA@ 0062f81c     d3d8d:stats.obj
 0003:00051778       ??_C@_0BF@LLHCKPGB@D3DVERTEXBUFFER_LOCK?$AA@ 0062f838     d3d8d:stats.obj
 0003:00051794       ??_C@_0BI@KCHMNDFA@D3DVERTEXBUFFER_GETDESC?$AA@ 0062f854     d3d8d:stats.obj
 0003:000517b0       ??_C@_0BI@KHMPDNPJ@D3DVOLUMETEXURE_LOCKBOX?$AA@ 0062f870     d3d8d:stats.obj
 0003:000517cc       ??_C@_0BP@PMMOJLPJ@D3DVOLUMETEXURE_GETVOLUMELEVEL?$AA@ 0062f88c     d3d8d:stats.obj
 0003:000517f4       ??_C@_0BN@JJCONOIJ@D3DVOLUMETEXURE_GETLEVELDESC?$AA@ 0062f8b4     d3d8d:stats.obj
 0003:00051818       ??_C@_0BI@EFOGCDAP@D3DCUBETEXTURE_LOCKRECT?$AA@ 0062f8d8     d3d8d:stats.obj
 0003:00051834       ??_C@_0BM@GMCOCHM@D3DCUBETEXTURE_GETLEVELDESC?$AA@ 0062f8f4     d3d8d:stats.obj
 0003:00051858       ??_C@_0CB@ENNAFLLC@D3DCUBETEXTURE_GETCUBEMAPSURFACE@ 0062f918     d3d8d:stats.obj
 0003:00051880       ??_C@_0BE@PJFNNJI@D3DTEXTURE_LOCKRECT?$AA@ 0062f940     d3d8d:stats.obj
 0003:00051898       ??_C@_0BL@INNFFDDD@D3DTEXTURE_GETSURFACELEVEL?$AA@ 0062f958     d3d8d:stats.obj
 0003:000518b8       ??_C@_0BI@LBEOHAA@D3DTEXTURE_GETLEVELDESC?$AA@ 0062f978     d3d8d:stats.obj
 0003:000518d4       ??_C@_0BN@EHJNFCCL@D3DBASETEXTURE_GETLEVELCOUNT?$AA@ 0062f994     d3d8d:stats.obj
 0003:000518f8       ??_C@_0BL@KLNGOLKD@D3DRESOURCE_SETPRIVATEDATA?$AA@ 0062f9b8     d3d8d:stats.obj
 0003:00051918       ??_C@_0BE@JJJNBDOE@D3DRESOURCE_RELEASE?$AA@ 0062f9d8     d3d8d:stats.obj
 0003:00051930       ??_C@_0BF@NNEBOMHO@D3DRESOURCE_REGISTER?$AA@ 0062f9f0     d3d8d:stats.obj
 0003:0005194c       ??_C@_0BD@CIMGLEME@D3DRESOURCE_ISBUSY?$AA@ 0062fa0c     d3d8d:stats.obj
 0003:00051964       ??_C@_0BE@IICINDEG@D3DRESOURCE_GETTYPE?$AA@ 0062fa24     d3d8d:stats.obj
 0003:0005197c       ??_C@_0BL@GFMIBBIP@D3DRESOURCE_GETPRIVATEDATA?$AA@ 0062fa3c     d3d8d:stats.obj
 0003:0005199c       ??_C@_0BG@JAHHHPCK@D3DRESOURCE_GETDEVICE?$AA@ 0062fa5c     d3d8d:stats.obj
 0003:000519b8       ??_C@_0BM@EDBCPLOI@D3DRESOURCE_FREEPRIVATEDATA?$AA@ 0062fa78     d3d8d:stats.obj
 0003:000519dc       ??_C@_0BO@HCLADHMB@D3DRESOURCE_BLOCKUNTILNOTBUSY?$AA@ 0062fa9c     d3d8d:stats.obj
 0003:00051a00       ??_C@_0BD@MCJMNEMF@D3DRESOURCE_ADDREF?$AA@ 0062fac0     d3d8d:stats.obj
 0003:00051a18       ??_C@_0BL@NEAKECMN@D3DDEVICE_SETTIMERCALLBACK?$AA@ 0062fad8     d3d8d:stats.obj
 0003:00051a38       ??_C@_0BK@BEPJEJDH@D3DDEVICE_GETPUSHDISTANCE?$AA@ 0062faf8     d3d8d:stats.obj
 0003:00051a58       ??_C@_0BK@GNJOELHJ@D3DDEVICE_SETWAITCALLBACK?$AA@ 0062fb18     d3d8d:stats.obj
 0003:00051a78       ??_C@_0BF@MOKDEPCJ@D3DDEVICE_GETSTIPPLE?$AA@ 0062fb38     d3d8d:stats.obj
 0003:00051a94       ??_C@_0BF@NAIMPIGA@D3DDEVICE_SETSTIPPLE?$AA@ 0062fb54     d3d8d:stats.obj
 0003:00051ab0       ??_C@_0BP@CDEDLCGA@D3DDEVICE_SETSOFTDISPLAYFILTER?$AA@ 0062fb70     d3d8d:stats.obj
 0003:00051ad8       ??_C@_0BL@EMBIBPNI@D3DDEVICE_SETFLICKERFILTER?$AA@ 0062fb98     d3d8d:stats.obj
 0003:00051af8       ??_C@_0BL@JKIEKLHF@D3DDEVICE_GETOVERSCANCOLOR?$AA@ 0062fbb8     d3d8d:stats.obj
 0003:00051b18       ??_C@_0BL@PONNBFMH@D3DDEVICE_SETOVERSCANCOLOR?$AA@ 0062fbd8     d3d8d:stats.obj
 0003:00051b38       ??_C@_0BI@MFIHLIFL@D3DDEVICE_UPDATEOVERLAY?$AA@ 0062fbf8     d3d8d:stats.obj
 0003:00051b54       ??_C@_0BI@KHOMPGLO@D3DDEVICE_SWITCHTEXTURE?$AA@ 0062fc14     d3d8d:stats.obj
 0003:00051b70       ??_C@_0BC@PIJKAHCL@D3DDEVICE_SUSPEND?$AA@ 0062fc30     d3d8d:stats.obj
 0003:00051b88       ??_C@_0BG@OPOFFEJC@D3DDEVICE_SETVIEWPORT?$AA@ 0062fc48     d3d8d:stats.obj
 0003:00051ba4       ??_C@_0CD@BODFOKJO@D3DDEVICE_SETVERTICALBLANKCALLBA@ 0062fc64     d3d8d:stats.obj
 0003:00051bd0       ??_C@_0BP@JPBKFHOH@D3DDEVICE_SETVERTEXSHADERINPUT?$AA@ 0062fc90     d3d8d:stats.obj
 0003:00051bf8       ??_C@_0CC@JLHCHNBP@D3DDEVICE_SETVERTEXSHADERCONSTAN@ 0062fcb8     d3d8d:stats.obj
 0003:00051c20       ??_C@_0BK@MLMDEIPP@D3DDEVICE_SETVERTEXSHADER?$AA@ 0062fce0     d3d8d:stats.obj
 0003:00051c40       ??_C@_0BN@OHEHPMID@D3DDEVICE_SETVERTEXDATACOLOR?$AA@ 0062fd00     d3d8d:stats.obj
 0003:00051c64       ??_C@_0BL@EBFHLBIH@D3DDEVICE_SETVERTEXDATA4UB?$AA@ 0062fd24     d3d8d:stats.obj
 0003:00051c84       ??_C@_0BK@JNEDGAJB@D3DDEVICE_SETVERTEXDATA4S?$AA@ 0062fd44     d3d8d:stats.obj
 0003:00051ca4       ??_C@_0BK@KKPGIGIF@D3DDEVICE_SETVERTEXDATA4F?$AA@ 0062fd64     d3d8d:stats.obj
 0003:00051cc4       ??_C@_0BK@JJMOBMCD@D3DDEVICE_SETVERTEXDATA2S?$AA@ 0062fd84     d3d8d:stats.obj
 0003:00051ce4       ??_C@_0BK@KOHLPKDH@D3DDEVICE_SETVERTEXDATA2F?$AA@ 0062fda4     d3d8d:stats.obj
 0003:00051d04       ??_C@_0CC@JBDHPNKK@D3DDEVICE_SETVERTEXBLENDMODELVIE@ 0062fdc4     d3d8d:stats.obj
 0003:00051d2c       ??_C@_0BH@CKCPBOCN@D3DDEVICE_SETTRANSFORM?$AA@ 0062fdec     d3d8d:stats.obj
 0003:00051d48       ??_C@_0BC@CHIIFHAK@D3DDEVICE_SETTILE?$AA@ 0062fe08     d3d8d:stats.obj
 0003:00051d60       ??_C@_0CI@IABDEICE@D3DDEVICE_SETTEXTURESTATE_TEXCOO@ 0062fe20     d3d8d:stats.obj
 0003:00051d90       ??_C@_0CJ@JGIAFJPA@D3DDEVICE_SETTEXTURESTATE_PARAME@ 0062fe50     d3d8d:stats.obj
 0003:00051dc4       ??_C@_0CI@ONMLCNOH@D3DDEVICE_SETTEXTURESTATE_COLORK@ 0062fe84     d3d8d:stats.obj
 0003:00051df4       ??_C@_0CC@PAPCLHEG@D3DDEVICE_SETTEXTURESTATE_BUMPEN@ 0062feb4     d3d8d:stats.obj
 0003:00051e1c       ??_C@_0CG@IFMGHDKE@D3DDEVICE_SETTEXTURESTATE_BORDER@ 0062fedc     d3d8d:stats.obj
 0003:00051e4c       ??_C@_0CI@ICMHPFOM@D3DDEVICE_SETTEXTURESTAGESTATENO@ 0062ff0c     d3d8d:stats.obj
 0003:00051e7c       ??_C@_0BF@HIMGPLF@D3DDEVICE_SETTEXTURE?$AA@ 0062ff3c     d3d8d:stats.obj
 0003:00051e98       ??_C@_0BK@PNCKCIMM@D3DDEVICE_SETSWAPCALLBACK?$AA@ 0062ff58     d3d8d:stats.obj
 0003:00051eb8       ??_C@_0BK@BMJDCPHH@D3DDEVICE_SETSTREAMSOURCE?$AA@ 0062ff78     d3d8d:stats.obj
 0003:00051ed8       ??_C@_0CA@NIHKLFC@D3DDEVICE_SETSHADERCONSTANTMODE?$AA@ 0062ff98     d3d8d:stats.obj
 0003:00051f00       ??_C@_0BP@IMEHPMGL@D3DDEVICE_SETSCREENSPACEOFFSET?$AA@ 0062ffc0     d3d8d:stats.obj
 0003:00051f28       ??_C@_0BG@GAGCMJGA@D3DDEVICE_SETSCISSORS?$AA@ 0062ffe8     d3d8d:stats.obj
 0003:00051f44       ??_C@_0BK@JIPPGDDJ@D3DDEVICE_SETRENDERTARGET?$AA@ 00630004     d3d8d:stats.obj
 0003:00051f64       ??_C@_0CC@KGCKLDDI@D3DDEVICE_SETRENDERSTATENOTINLIN@ 00630024     d3d8d:stats.obj
 0003:00051f8c       ??_C@_0CF@ILOABJFP@D3DDEVICE_SETRENDERSTATE_SAMPLEA@ 0063004c     d3d8d:stats.obj
 0003:00051fb8       ??_C@_0CH@KBHCLBIJ@D3DDEVICE_SETRENDERSTATE_STIPPLE@ 00630078     d3d8d:stats.obj
 0003:00051fe8       ??_C@_0CO@FLPNJOIA@D3DDEVICE_SETRENDERSTATE_PRESENT@ 006300a8     d3d8d:stats.obj
 0003:00052020       ??_C@_0CB@EEKONPMH@D3DDEVICE_SETRENDERSTATE_ZENABLE@ 006300e0     d3d8d:stats.obj
 0003:00052048       ??_C@_0BP@PLLMPJCJ@D3DDEVICE_SETRENDERSTATE_ZBIAS?$AA@ 00630108     d3d8d:stats.obj
 0003:00052070       ??_C@_0CD@GIDKMOAK@D3DDEVICE_SETRENDERSTATE_YUVENAB@ 00630130     d3d8d:stats.obj
 0003:0005209c       ??_C@_0CF@KJDMCNHF@D3DDEVICE_SETRENDERSTATE_VERTEXB@ 0063015c     d3d8d:stats.obj
 0003:000520c8       ??_C@_0CK@GKLGKJCK@D3DDEVICE_SETRENDERSTATE_TWOSIDE@ 00630188     d3d8d:stats.obj
 0003:000520fc       ??_C@_0CH@MAKICNAE@D3DDEVICE_SETRENDERSTATE_TEXTURE@ 006301bc     d3d8d:stats.obj
 0003:0005212c       ??_C@_0CF@JHPDPPOG@D3DDEVICE_SETRENDERSTATE_STENCIL@ 006301ec     d3d8d:stats.obj
 0003:00052158       ??_C@_0CH@MBLJHHEK@D3DDEVICE_SETRENDERSTATE_STENCIL@ 00630218     d3d8d:stats.obj
 0003:00052188       ??_C@_0CL@PABCPPNJ@D3DDEVICE_SETRENDERSTATE_STENCIL@ 00630248     d3d8d:stats.obj
 0003:000521bc       ??_C@_0CA@DKEHFILC@D3DDEVICE_SETRENDERSTATE_SIMPLE?$AA@ 0063027c     d3d8d:stats.obj
 0003:000521e4       ??_C@_0CE@KICBAJOK@D3DDEVICE_SETRENDERSTATE_SHADOWF@ 006302a4     d3d8d:stats.obj
 0003:00052210       ??_C@_0CC@PPFIKIAC@D3DDEVICE_SETRENDERSTATE_ROPZREA@ 006302d0     d3d8d:stats.obj
 0003:00052238       ??_C@_0CL@KEHFFNII@D3DDEVICE_SETRENDERSTATE_ROPZCMP@ 006302f8     d3d8d:stats.obj
 0003:0005226c       ??_C@_0CI@KJGPJJG@D3DDEVICE_SETRENDERSTATE_PSTEXTU@ 0063032c     d3d8d:stats.obj
 0003:0005229c       ??_C@_0CI@EMBINHHF@D3DDEVICE_SETRENDERSTATE_PARAMET@ 0063035c     d3d8d:stats.obj
 0003:000522cc       ??_C@_0CN@IMPNHIAF@D3DDEVICE_SETRENDERSTATE_OCCLUSI@ 0063038c     d3d8d:stats.obj
 0003:00052304       ??_C@_0CK@BCGCECIA@D3DDEVICE_SETRENDERSTATE_NORMALI@ 006303c4     d3d8d:stats.obj
 0003:00052338       ??_C@_0DF@GOMDBAJI@D3DDEVICE_SETRENDERSTATE_MULTISA@ 006303f8     d3d8d:stats.obj
 0003:00052378       ??_C@_0CJ@MOEMNGKH@D3DDEVICE_SETRENDERSTATE_MULTISA@ 00630438     d3d8d:stats.obj
 0003:000523ac       ??_C@_0CJ@KJHJDJOP@D3DDEVICE_SETRENDERSTATE_MULTISA@ 0063046c     d3d8d:stats.obj
 0003:000523e0       ??_C@_0CO@EEIBGGD@D3DDEVICE_SETRENDERSTATE_MULTISA@ 006304a0     d3d8d:stats.obj
 0003:00052418       ??_C@_0CB@MADKJNAE@D3DDEVICE_SETRENDERSTATE_LOGICOP@ 006304d8     d3d8d:stats.obj
 0003:00052440       ??_C@_0CD@NKEONEJG@D3DDEVICE_SETRENDERSTATE_LINEWID@ 00630500     d3d8d:stats.obj
 0003:0005246c       ??_C@_0CD@LCIJBCGC@D3DDEVICE_SETRENDERSTATE_FRONTFA@ 0063052c     d3d8d:stats.obj
 0003:00052498       ??_C@_0CC@HLKKMOAI@D3DDEVICE_SETRENDERSTATE_FOGCOLO@ 00630558     d3d8d:stats.obj
 0003:000524c0       ??_C@_0CC@CPDHLGFJ@D3DDEVICE_SETRENDERSTATE_FILLMOD@ 00630580     d3d8d:stats.obj
 0003:000524e8       ??_C@_0CH@OGDJJFGO@D3DDEVICE_SETRENDERSTATE_EDGEANT@ 006305a8     d3d8d:stats.obj
 0003:00052518       ??_C@_0CJ@PMCCGJMN@D3DDEVICE_SETRENDERSTATE_DXT1NOI@ 006305d8     d3d8d:stats.obj
 0003:0005254c       ??_C@_0CP@DFHAGOMB@D3DDEVICE_SETRENDERSTATE_DONOTCU@ 0063060c     d3d8d:stats.obj
 0003:00052584       ??_C@_0CC@EOLENHHC@D3DDEVICE_SETRENDERSTATE_CULLMOD@ 00630644     d3d8d:stats.obj
 0003:000525ac       ??_C@_0CG@DCMCGOAK@D3DDEVICE_SETRENDERSTATE_BACKFIL@ 0063066c     d3d8d:stats.obj
 0003:000525dc       ??_C@_0CA@JICDLHHJ@D3DDEVICE_SETPIXELSHADERPROGRAM?$AA@ 0063069c     d3d8d:stats.obj
 0003:00052604       ??_C@_0CB@DGFDCIPB@D3DDEVICE_SETPIXELSHADERCONSTANT@ 006306c4     d3d8d:stats.obj
 0003:0005262c       ??_C@_0BJ@CEPGHDNP@D3DDEVICE_SETPIXELSHADER?$AA@ 006306ec     d3d8d:stats.obj
 0003:0005264c       ??_C@_0BF@OHPKADE@D3DDEVICE_SETPALETTE?$AA@ 0063070c     d3d8d:stats.obj
 0003:00052668       ??_C@_0BH@PILDHMIJ@D3DDEVICE_SETMODELVIEW?$AA@ 00630728     d3d8d:stats.obj
 0003:00052684       ??_C@_0BG@FOPCCOKN@D3DDEVICE_SETMATERIAL?$AA@ 00630744     d3d8d:stats.obj
 0003:000526a0       ??_C@_0BD@OHJGNLN@D3DDEVICE_SETLIGHT?$AA@ 00630760     d3d8d:stats.obj
 0003:000526b8       ??_C@_0BF@HONCIGAH@D3DDEVICE_SETINDICES?$AA@ 00630778     d3d8d:stats.obj
 0003:000526d4       ??_C@_0BH@MGALDIBA@D3DDEVICE_SETGAMMARAMP?$AA@ 00630794     d3d8d:stats.obj
 0003:000526f0       ??_C@_0BN@GJNJGKHG@D3DDEVICE_SETDEPTHCLIPPLANES?$AA@ 006307b0     d3d8d:stats.obj
 0003:00052714       ??_C@_0BK@KCNBHJGG@D3DDEVICE_SETBACKMATERIAL?$AA@ 006307d4     d3d8d:stats.obj
 0003:00052734       ??_C@_0BN@DNNBOGBO@D3DDEVICE_SETBACKBUFFERSCALE?$AA@ 006307f4     d3d8d:stats.obj
 0003:00052758       ??_C@_0BB@HMOGFEML@D3DDEVICE_SENDCC?$AA@ 00630818     d3d8d:stats.obj
 0003:0005276c       ??_C@_0BN@EBFKHJFA@D3DDEVICE_SELECTVERTEXSHADER?$AA@ 0063082c     d3d8d:stats.obj
 0003:00052790       ??_C@_0BP@PMABMAKB@D3DDEVICE_RUNVERTEXSTATESHADER?$AA@ 00630850     d3d8d:stats.obj
 0003:000527b8       ??_C@_0BI@IMJABBEJ@D3DDEVICE_RUNPUSHBUFFER?$AA@ 00630878     d3d8d:stats.obj
 0003:000527d4       ??_C@_0BB@PGIALGDK@D3DDEVICE_RESUME?$AA@ 00630894     d3d8d:stats.obj
 0003:000527e8       ??_C@_0BA@LIAANOKC@D3DDEVICE_RESET?$AA@ 006308a8     d3d8d:stats.obj
 0003:000527fc       ??_C@_0CD@PEPPEGLA@D3DDEVICE_READVERTEXSHADERCONSTA@ 006308bc     d3d8d:stats.obj
 0003:00052828       ??_C@_0BL@FKKFFKLK@D3DDEVICE_PRIMEVERTEXCACHE?$AA@ 006308e8     d3d8d:stats.obj
 0003:00052848       ??_C@_0BC@GLFPLHEB@D3DDEVICE_PRESENT?$AA@ 00630908     d3d8d:stats.obj
 0003:00052860       ??_C@_0BJ@KEDIHEOJ@D3DDEVICE_PERSISTDISPLAY?$AA@ 00630920     d3d8d:stats.obj
 0003:00052880       ??_C@_0O@PMJMKAIJ@D3DDEVICE_NOP?$AA@ 00630940     d3d8d:stats.obj
 0003:00052890       ??_C@_0BM@CHLAECPP@D3DDEVICE_MULTIPLYTRANSFORM?$AA@ 00630950     d3d8d:stats.obj
 0003:000528b4       ??_C@_0CC@BDMGNANJ@D3DDEVICE_LOADVERTEXSHADERPROGRA@ 00630974     d3d8d:stats.obj
 0003:000528dc       ??_C@_0BL@KIPEJAM@D3DDEVICE_LOADVERTEXSHADER?$AA@ 0063099c     d3d8d:stats.obj
 0003:000528fc       ??_C@_0BG@BKAEKLPM@D3DDEVICE_LIGHTENABLE?$AA@ 006309bc     d3d8d:stats.obj
 0003:00052918       ??_C@_0BJ@CMALIOBB@D3DDEVICE_KICKPUSHBUFFER?$AA@ 006309d8     d3d8d:stats.obj
 0003:00052938       ??_C@_0BJ@NHFHDAGI@D3DDEVICE_ISFENCEPENDING?$AA@ 006309f8     d3d8d:stats.obj
 0003:00052958       ??_C@_0BB@OLJJPCJN@D3DDEVICE_ISBUSY?$AA@ 00630a18     d3d8d:stats.obj
 0003:0005296c       ??_C@_0BG@CLAJENHP@D3DDEVICE_INSERTFENCE?$AA@ 00630a2c     d3d8d:stats.obj
 0003:00052988       ??_C@_0BJ@DLGLAIPM@D3DDEVICE_INSERTCALLBACK?$AA@ 00630a48     d3d8d:stats.obj
 0003:000529a8       ??_C@_0CC@LGFBBEBK@D3DDEVICE_GETVISIBILITYTESTRESUL@ 00630a68     d3d8d:stats.obj
 0003:000529d0       ??_C@_0CE@EIBBMLME@D3DDEVICE_GETVIEWPORTOFFSETANDSC@ 00630a90     d3d8d:stats.obj
 0003:000529fc       ??_C@_0BG@OAPLICBB@D3DDEVICE_GETVIEWPORT?$AA@ 00630abc     d3d8d:stats.obj
 0003:00052a18       ??_C@_0BO@HIOCLJJD@D3DDEVICE_GETVERTEXSHADERTYPE?$AA@ 00630ad8     d3d8d:stats.obj
 0003:00052a3c       ??_C@_0BO@JHEMLHMK@D3DDEVICE_GETVERTEXSHADERSIZE?$AA@ 00630afc     d3d8d:stats.obj
 0003:00052a60       ??_C@_0BP@MGAHEBLA@D3DDEVICE_GETVERTEXSHADERINPUT?$AA@ 00630b20     d3d8d:stats.obj
 0003:00052a88       ??_C@_0CC@FNHOEOEJ@D3DDEVICE_GETVERTEXSHADERFUNCTIO@ 00630b48     d3d8d:stats.obj
 0003:00052ab0       ??_C@_0CF@HMHODAHO@D3DDEVICE_GETVERTEXSHADERDECLARA@ 00630b70     d3d8d:stats.obj
 0003:00052adc       ??_C@_0CC@INBPJMHN@D3DDEVICE_GETVERTEXSHADERCONSTAN@ 00630b9c     d3d8d:stats.obj
 0003:00052b04       ??_C@_0BK@PJNFDKOG@D3DDEVICE_GETVERTEXSHADER?$AA@ 00630bc4     d3d8d:stats.obj
 0003:00052b24       ??_C@_0CC@IHFKBMMI@D3DDEVICE_GETVERTEXBLENDMODELVIE@ 00630be4     d3d8d:stats.obj
 0003:00052b4c       ??_C@_0BH@FOJBNCGB@D3DDEVICE_GETTRANSFORM?$AA@ 00630c0c     d3d8d:stats.obj
 0003:00052b68       ??_C@_0CB@BDDPAKH@D3DDEVICE_GETTILECOMPRESSIONTAGS@ 00630c28     d3d8d:stats.obj
 0003:00052b90       ??_C@_0BC@NPHJGINL@D3DDEVICE_GETTILE?$AA@ 00630c50     d3d8d:stats.obj
 0003:00052ba8       ??_C@_0BP@FMJALMBL@D3DDEVICE_GETTEXTURESTAGESTATE?$AA@ 00630c68     d3d8d:stats.obj
 0003:00052bd0       ??_C@_0BF@BJKDNIPM@D3DDEVICE_GETTEXTURE?$AA@ 00630c90     d3d8d:stats.obj
 0003:00052bec       ??_C@_0BK@COIFFNGO@D3DDEVICE_GETSTREAMSOURCE?$AA@ 00630cac     d3d8d:stats.obj
 0003:00052c0c       ??_C@_0CA@PINBHCBD@D3DDEVICE_GETSHADERCONSTANTMODE?$AA@ 00630ccc     d3d8d:stats.obj
 0003:00052c34       ??_C@_0BP@NFFKOKDM@D3DDEVICE_GETSCREENSPACEOFFSET?$AA@ 00630cf4     d3d8d:stats.obj
 0003:00052c5c       ??_C@_0BG@GPHMBPOD@D3DDEVICE_GETSCISSORS?$AA@ 00630d1c     d3d8d:stats.obj
 0003:00052c78       ??_C@_0BK@KKOJBBCA@D3DDEVICE_GETRENDERTARGET?$AA@ 00630d38     d3d8d:stats.obj
 0003:00052c98       ??_C@_0BJ@GGJCCHJB@D3DDEVICE_GETRENDERSTATE?$AA@ 00630d58     d3d8d:stats.obj
 0003:00052cb8       ??_C@_0BK@ELBEKPEJ@D3DDEVICE_GETRASTERSTATUS?$AA@ 00630d78     d3d8d:stats.obj
 0003:00052cd8       ??_C@_0BO@JFPAJEO@D3DDEVICE_GETPUSHBUFFEROFFSET?$AA@ 00630d98     d3d8d:stats.obj
 0003:00052cfc       ??_C@_0CG@LPDDCDBJ@D3DDEVICE_GETPROJECTIONVIEWPORTM@ 00630dbc     d3d8d:stats.obj
 0003:00052d2c       ??_C@_0CB@OHBMNNBK@D3DDEVICE_GETPIXELSHADERFUNCTION@ 00630dec     d3d8d:stats.obj
 0003:00052d54       ??_C@_0CB@DHHNAPCO@D3DDEVICE_GETPIXELSHADERCONSTANT@ 00630e14     d3d8d:stats.obj
 0003:00052d7c       ??_C@_0BJ@OKOIIJPD@D3DDEVICE_GETPIXELSHADER?$AA@ 00630e3c     d3d8d:stats.obj
 0003:00052d9c       ??_C@_0BF@BAFABHHN@D3DDEVICE_GETPALETTE?$AA@ 00630e5c     d3d8d:stats.obj
 0003:00052db8       ??_C@_0CB@KCEEJIME@D3DDEVICE_GETOVERLAYUPDATESTATUS@ 00630e78     d3d8d:stats.obj
 0003:00052de0       ??_C@_0BH@IMANLAMF@D3DDEVICE_GETMODELVIEW?$AA@ 00630ea0     d3d8d:stats.obj
 0003:00052dfc       ??_C@_0BG@FBOMPICO@D3DDEVICE_GETMATERIAL?$AA@ 00630ebc     d3d8d:stats.obj
 0003:00052e18       ??_C@_0BJ@JGCAJEAO@D3DDEVICE_GETLIGHTENABLE?$AA@ 00630ed8     d3d8d:stats.obj
 0003:00052e38       ??_C@_0BD@PPFFHOMA@D3DDEVICE_GETLIGHT?$AA@ 00630ef8     d3d8d:stats.obj
 0003:00052e50       ??_C@_0BF@GAPNDBEO@D3DDEVICE_GETINDICES?$AA@ 00630f10     d3d8d:stats.obj
 0003:00052e6c       ??_C@_0BH@LCLFPEFM@D3DDEVICE_GETGAMMARAMP?$AA@ 00630f2c     d3d8d:stats.obj
 0003:00052e88       ??_C@_0BJ@NFDKHLMB@D3DDEVICE_GETDISPLAYMODE?$AA@ 00630f48     d3d8d:stats.obj
 0003:00052ea8       ??_C@_0CA@NJDKENIF@D3DDEVICE_GETDISPLAYFIELDSTATUS?$AA@ 00630f68     d3d8d:stats.obj
 0003:00052ed0       ??_C@_0BG@CNCFGHLM@D3DDEVICE_GETDIRECT3D?$AA@ 00630f90     d3d8d:stats.obj
 0003:00052eec       ??_C@_0BI@HAHFHNED@D3DDEVICE_GETDEVICECAPS?$AA@ 00630fac     d3d8d:stats.obj
 0003:00052f08       ??_C@_0CB@GADDPEOP@D3DDEVICE_GETDEPTHSTENCILSURFACE@ 00630fc8     d3d8d:stats.obj
 0003:00052f30       ??_C@_0BN@JDPDFMJO@D3DDEVICE_GETDEPTHCLIPPLANES?$AA@ 00630ff0     d3d8d:stats.obj
 0003:00052f54       ??_C@_0CA@FIDFOPFG@D3DDEVICE_GETCREATIONPARAMETERS?$AA@ 00631014     d3d8d:stats.obj
 0003:00052f7c       ??_C@_0BG@IFGAKMFD@D3DDEVICE_GETCCSTATUS?$AA@ 0063103c     d3d8d:stats.obj
 0003:00052f98       ??_C@_0BK@JAMHALHP@D3DDEVICE_GETBACKMATERIAL?$AA@ 00631058     d3d8d:stats.obj
 0003:00052fb8       ??_C@_0BN@MHPLNAPG@D3DDEVICE_GETBACKBUFFERSCALE?$AA@ 00631078     d3d8d:stats.obj
 0003:00052fdc       ??_C@_0BI@MGDJPJAF@D3DDEVICE_GETBACKBUFFER?$AA@ 0063109c     d3d8d:stats.obj
 0003:00052ff8       ??_C@_0BL@MHPHIDMD@D3DDEVICE_FLUSHVERTEXCACHE?$AA@ 006310b8     d3d8d:stats.obj
 0003:00053018       ??_C@_0BM@JMMJIFK@D3DDEVICE_ENDVISIBILITYTEST?$AA@ 006310d8     d3d8d:stats.obj
 0003:0005303c       ??_C@_0BI@JKFFLLHN@D3DDEVICE_ENDSTATEBLOCK?$AA@ 006310fc     d3d8d:stats.obj
 0003:00053058       ??_C@_0BI@DGBGHGPN@D3DDEVICE_ENDPUSHBUFFER?$AA@ 00631118     d3d8d:stats.obj
 0003:00053074       ??_C@_0BC@NBBGONCA@D3DDEVICE_ENDPUSH?$AA@ 00631134     d3d8d:stats.obj
 0003:0005308c       ??_C@_0O@EPBJKOK@D3DDEVICE_END?$AA@ 0063114c     d3d8d:stats.obj
 0003:0005309c       ??_C@_0BI@NIOMPOFA@D3DDEVICE_ENABLEOVERLAY?$AA@ 0063115c     d3d8d:stats.obj
 0003:000530b8       ??_C@_0BD@OIBKLEIF@D3DDEVICE_ENABLECC?$AA@ 00631178     d3d8d:stats.obj
 0003:000530d0       ??_C@_0BJ@BCMMINEE@D3DDEVICE_DRAWVERTICESUP?$AA@ 00631190     d3d8d:stats.obj
 0003:000530f0       ??_C@_0BH@MODOFCOB@D3DDEVICE_DRAWVERTICES?$AA@ 006311b0     d3d8d:stats.obj
 0003:0005310c       ??_C@_0BH@DIPLFLLI@D3DDEVICE_DRAWTRIPATCH?$AA@ 006311cc     d3d8d:stats.obj
 0003:00053128       ??_C@_0BI@PMADCLMH@D3DDEVICE_DRAWRECTPATCH?$AA@ 006311e8     d3d8d:stats.obj
 0003:00053144       ??_C@_0CA@EJEAALLP@D3DDEVICE_DRAWINDEXEDVERTICESUP?$AA@ 00631204     d3d8d:stats.obj
 0003:0005316c       ??_C@_0BO@IODKNLFC@D3DDEVICE_DRAWINDEXEDVERTICES?$AA@ 0063122c     d3d8d:stats.obj
 0003:00053190       ??_C@_0BN@DMPIIEFO@D3DDEVICE_DELETEVERTEXSHADER?$AA@ 00631250     d3d8d:stats.obj
 0003:000531b4       ??_C@_0BL@MHDFBNIE@D3DDEVICE_DELETESTATEBLOCK?$AA@ 00631274     d3d8d:stats.obj
 0003:000531d4       ??_C@_0BM@HNGNIPEL@D3DDEVICE_DELETEPIXELSHADER?$AA@ 00631294     d3d8d:stats.obj
 0003:000531f8       ??_C@_0BG@ONOBABLN@D3DDEVICE_DELETEPATCH?$AA@ 006312b8     d3d8d:stats.obj
 0003:00053214       ??_C@_0BO@BNEAIPIG@D3DDEVICE_CREATEVOLUMETEXTURE?$AA@ 006312d4     d3d8d:stats.obj
 0003:00053238       ??_C@_0BN@MMMJBDD@D3DDEVICE_CREATEVERTEXSHADER?$AA@ 006312f8     d3d8d:stats.obj
 0003:0005325c       ??_C@_0BN@GKAEADJH@D3DDEVICE_CREATEVERTEXBUFFER?$AA@ 0063131c     d3d8d:stats.obj
 0003:00053280       ??_C@_0BI@DCOHCBAP@D3DDEVICE_CREATETEXTURE?$AA@ 00631340     d3d8d:stats.obj
 0003:0005329c       ??_C@_0BL@JDKHDPFA@D3DDEVICE_CREATESTATEBLOCK?$AA@ 0063135c     d3d8d:stats.obj
 0003:000532bc       ??_C@_0BN@FPPALKPF@D3DDEVICE_CREATERENDERTARGET?$AA@ 0063137c     d3d8d:stats.obj
 0003:000532e0       ??_C@_0BL@DPOEPCNA@D3DDEVICE_CREATEPUSHBUFFER?$AA@ 006313a0     d3d8d:stats.obj
 0003:00053300       ??_C@_0BM@PMIHALKE@D3DDEVICE_CREATEPIXELSHADER?$AA@ 006313c0     d3d8d:stats.obj
 0003:00053324       ??_C@_0BI@DLBEOOIO@D3DDEVICE_CREATEPALETTE?$AA@ 006313e4     d3d8d:stats.obj
 0003:00053340       ??_C@_0BM@OHKGAFFJ@D3DDEVICE_CREATEINDEXBUFFER?$AA@ 00631400     d3d8d:stats.obj
 0003:00053364       ??_C@_0BN@HKDNNAJE@D3DDEVICE_CREATEIMAGESURFACE?$AA@ 00631424     d3d8d:stats.obj
 0003:00053388       ??_C@_0BG@IKNEBBNI@D3DDEVICE_CREATEFIXUP?$AA@ 00631448     d3d8d:stats.obj
 0003:000533a4       ??_C@_0CE@DGFLCKEG@D3DDEVICE_CREATEDEPTHSTENCILSURF@ 00631464     d3d8d:stats.obj
 0003:000533d0       ??_C@_0BM@OHKIOLBP@D3DDEVICE_CREATECUBETEXTURE?$AA@ 00631490     d3d8d:stats.obj
 0003:000533f4       ??_C@_0BE@ODLECIBH@D3DDEVICE_COPYRECTS?$AA@ 006314b4     d3d8d:stats.obj
 0003:0005340c       ??_C@_0BA@FJLLGKPE@D3DDEVICE_CLEAR?$AA@ 006314cc     d3d8d:stats.obj
 0003:00053420       ??_C@_0BM@CCEJMLNC@D3DDEVICE_CAPTURESTATEBLOCK?$AA@ 006314e0     d3d8d:stats.obj
 0003:00053444       ??_C@_0CC@FPJJEION@D3DDEVICE_BLOCKUNTILVERTICALBLAN@ 00631504     d3d8d:stats.obj
 0003:0005346c       ??_C@_0BJ@LNPFBNDB@D3DDEVICE_BLOCKUNTILIDLE?$AA@ 0063152c     d3d8d:stats.obj
 0003:0005348c       ??_C@_0BH@PKGBKJDH@D3DDEVICE_BLOCKONFENCE?$AA@ 0063154c     d3d8d:stats.obj
 0003:000534a8       ??_C@_0BO@MOOAAIEH@D3DDEVICE_BEGINVISIBILITYTEST?$AA@ 00631568     d3d8d:stats.obj
 0003:000534cc       ??_C@_0BK@KFPOKOKN@D3DDEVICE_BEGINSTATEBLOCK?$AA@ 0063158c     d3d8d:stats.obj
 0003:000534ec       ??_C@_0BK@JLNGDCN@D3DDEVICE_BEGINPUSHBUFFER?$AA@ 006315ac     d3d8d:stats.obj
 0003:0005350c       ??_C@_0BE@INOHGCAF@D3DDEVICE_BEGINPUSH?$AA@ 006315cc     d3d8d:stats.obj
 0003:00053524       ??_C@_0BA@NNJKBPEO@D3DDEVICE_BEGIN?$AA@ 006315e4     d3d8d:stats.obj
 0003:00053538       ??_C@_0BK@JNADBKFH@D3DDEVICE_APPLYSTATEBLOCK?$AA@ 006315f8     d3d8d:stats.obj
 0003:00053558       ??_C@_0BL@LFEFEFHD@DIRECT3D_SETPUSHBUFFERSIZE?$AA@ 00631618     d3d8d:stats.obj
 0003:00053578       ??_C@_0BH@OLCFEAMM@DIRECT3D_GETDEVICECAPS?$AA@ 00631638     d3d8d:stats.obj
 0003:00053594       ??_C@_0BN@OFKIAMLE@DIRECT3D_GETADAPTERMODECOUNT?$AA@ 00631654     d3d8d:stats.obj
 0003:000535b8       ??_C@_0BO@JFBPDNNO@DIRECT3D_GETADAPTERIDENTIFIER?$AA@ 00631678     d3d8d:stats.obj
 0003:000535dc       ??_C@_0BP@BLNODCNK@DIRECT3D_GETADAPTERDISPLAYMODE?$AA@ 0063169c     d3d8d:stats.obj
 0003:00053604       ??_C@_0BK@COEJJFPC@DIRECT3D_ENUMADAPTERMODES?$AA@ 006316c4     d3d8d:stats.obj
 0003:00053624       ??_C@_0BG@GKLBJAEK@DIRECT3D_CREATEDEVICE?$AA@ 006316e4     d3d8d:stats.obj
 0003:00053640       ??_C@_0BJ@OLBDBKJH@DIRECT3D_CHECKDEVICETYPE?$AA@ 00631700     d3d8d:stats.obj
 0003:00053660       ??_C@_0CE@NBCHIMIC@DIRECT3D_CHECKDEVICEMULTISAMPLET@ 00631720     d3d8d:stats.obj
 0003:0005368c       ??_C@_0BL@PGFHGGPN@DIRECT3D_CHECKDEVICEFORMAT?$AA@ 0063174c     d3d8d:stats.obj
 0003:000536ac       ??_C@_0CA@JNJFNKFF@DIRECT3D_CHECKDEPTHSTENCILMATCH?$AA@ 0063176c     d3d8d:stats.obj
 0003:000536d4       ??_C@_0BD@KFJNCFKH@SETSTATE_TRANSFORM?$AA@ 00631794     d3d8d:stats.obj
 0003:000536ec       ??_C@_0BA@OEKFAMGG@SETSTATE_LIGHTS?$AA@ 006317ac     d3d8d:stats.obj
 0003:00053700       ??_C@_0BG@MJBAOMOF@SETSTATE_TEXTRANSFORM?$AA@ 006317c0     d3d8d:stats.obj
 0003:0005371c       ??_C@_0BJ@CEFJOOJG@SETSTATE_SPECFOGCOMBINER?$AA@ 006317dc     d3d8d:stats.obj
 0003:0005373c       ??_C@_0BG@GLOJKGHF@SETSTATE_TEXTURESTATE?$AA@ 006317fc     d3d8d:stats.obj
 0003:00053758       ??_C@_0BD@IEKONAKM@SETSTATE_COMBINERS?$AA@ 00631818     d3d8d:stats.obj
 0003:00053770       ??_C@_0BF@EIDCMHJC@SETSTATE_POINTPARAMS?$AA@ 00631830     d3d8d:stats.obj
 0003:0005378c       ??_C@_0BK@GPMLGPGO@REDUNDANT_SETSTREAMSOURCE?$AA@ 0063184c     d3d8d:stats.obj
 0003:000537ac       ??_C@_0BF@PMFJFHGO@REDUNDANT_SETPALETTE?$AA@ 0063186c     d3d8d:stats.obj
 0003:000537c8       ??_C@_0BF@PFKKJIOP@REDUNDANT_SETTEXTURE?$AA@ 00631888     d3d8d:stats.obj
 0003:000537e4       ??_C@_0BH@EJKCDOGK@REDUNDANT_SETTRANSFORM?$AA@ 006318a4     d3d8d:stats.obj
 0003:00053800       ??_C@_0BK@LIJLAIOG@REDUNDANT_SETVERTEXSHADER?$AA@ 006318c0     d3d8d:stats.obj
 0003:00053820       ??_C@_0BK@ONMOEFCN@REDUNDANT_SETTEXTURESTATE?$AA@ 006318e0     d3d8d:stats.obj
 0003:00053840       ??_C@_0BJ@CMNKEHDK@REDUNDANT_SETRENDERSTATE?$AA@ 00631900     d3d8d:stats.obj
 0003:00053860       ??_C@_0BE@GPFJPGEF@RUNPUSHBUFFER_BYTES?$AA@ 00631920     d3d8d:stats.obj
 0003:00053878       ??_C@_0BL@GKDEAGGB@PUSHBUFFER_JUMPTOBEGINNING?$AA@ 00631938     d3d8d:stats.obj
 0003:00053898       ??_C@_0BK@DGMLEHC@UNSWIZZLING_TEXTURE_LOCKS?$AA@ 00631958     d3d8d:stats.obj
 0003:000538b8       ??_C@_0BH@BIKBMNFD@CPUSPINDURINGWAIT_TIME?$AA@ 00631978     d3d8d:stats.obj
 0003:000538d4       ??_C@_0BN@OCDLODDG@D3DDEVICE_BLOCKONFENCE_WAITS?$AA@ 00631994     d3d8d:stats.obj
 0003:000538f8       ??_C@_0CI@NIELJDND@D3DDEVICE_BLOCKUNTILVERTICALBLAN@ 006319b8     d3d8d:stats.obj
 0003:00053928       ??_C@_0BP@JGNCEDEJ@D3DDEVICE_BLOCKUNTILIDLE_WAITS?$AA@ 006319e8     d3d8d:stats.obj
 0003:00053950       ??_C@_0O@CLBABCLD@PRESENT_WAITS?$AA@ 00631a10     d3d8d:stats.obj
 0003:00053960       ??_C@_0BB@MOGPPBMD@OBJECTLOCK_WAITS?$AA@ 00631a20     d3d8d:stats.obj
 0003:00053974       ??_C@_0BB@MJOPNANF@PUSHBUFFER_WAITS?$AA@ 00631a34     d3d8d:stats.obj
 0003:00053988       ??_C@_0BE@PJMHHPML@PUSHBUFFER_SEGMENTS?$AA@ 00631a48     d3d8d:stats.obj
 0003:000539a0       ??_C@_0BF@GDPPMKIO@SETTRANSFORM_TEXTURE?$AA@ 00631a60     d3d8d:stats.obj
 0003:000539bc       ??_C@_0BI@CCHDEPBB@SETTRANSFORM_PROJECTION?$AA@ 00631a7c     d3d8d:stats.obj
 0003:000539d8       ??_C@_0BC@EGDFJNMC@SETTRANSFORM_VIEW?$AA@ 00631a98     d3d8d:stats.obj
 0003:000539f0       ??_C@_0BD@HIJIBJLC@SETTRANSFORM_WORLD?$AA@ 00631ab0     d3d8d:stats.obj
 0003:00053a08       ??_C@_08GBBDCBAM@VERTICES?$AA@ 00631ac8     d3d8d:stats.obj
 0003:00053a14       ??_C@_0L@EFCDGGAC@swap?5stall?$AA@ 00631ad4     d3d8d:stats.obj
 0003:00053a24       ??_C@_07KHALEBB@backend?$AA@ 00631ae4     d3d8d:stats.obj
 0003:00053a30       ??_C@_08NEIINOAD@frontend?$AA@ 00631af0     d3d8d:stats.obj
 0003:00053a3c       ??_C@_03HOPDAKLK@gpu?$AA@  00631afc     d3d8d:stats.obj
 0003:00053a40       ??_C@_0CN@EMJDKNKL@?$CBg_PerfCounters?4m_PushBufferEndD@ 00631b00     d3d8d:stats.obj
 0003:00053a78       ??_C@_0DE@FHGAGMLD@?$CB?$CIg_pDevice?9?$DOm_StateFlags?5?$CG?5STAT@ 00631b38     d3d8d:stats.obj
 0003:00053ab8       ??_C@_06PEMDLAIA@User10?$AA@ 00631b78     d3d8d:stats.obj
 0003:00053ac0       ??_C@_05PJAFGLLC@User9?$AA@ 00631b80     d3d8d:stats.obj
 0003:00053ac8       ??_C@_05OABOFKPD@User8?$AA@ 00631b88     d3d8d:stats.obj
 0003:00053ad0       ??_C@_05GHIGEGDM@User7?$AA@ 00631b90     d3d8d:stats.obj
 0003:00053ad8       ??_C@_05HOJNHHHN@User6?$AA@ 00631b98     d3d8d:stats.obj
 0003:00053ae0       ??_C@_05FFLACELO@User5?$AA@ 00631ba0     d3d8d:stats.obj
 0003:00053ae8       ??_C@_05EMKLBFPP@User4?$AA@ 00631ba8     d3d8d:stats.obj
 0003:00053af0       ??_C@_05DOKIDDI@User3?$AA@ 00631bb0     d3d8d:stats.obj
 0003:00053af8       ??_C@_05BKPBLCHJ@User2?$AA@ 00631bb8     d3d8d:stats.obj
 0003:00053b00       ??_C@_05DBNMOBLK@User1?$AA@ 00631bc0     d3d8d:stats.obj
 0003:00053b08       ??_C@_05CIMHNAPL@User0?$AA@ 00631bc8     d3d8d:stats.obj
 0003:00053b10       ??_C@_07OPKBAMFL@event20?$AA@ 00631bd0     d3d8d:stats.obj
 0003:00053b1c       ??_C@_07DMCFAJEL@event19?$AA@ 00631bdc     d3d8d:stats.obj
 0003:00053b28       ??_C@_07CFDODIAK@event18?$AA@ 00631be8     d3d8d:stats.obj
 0003:00053b34       ??_C@_07KCKGCEMF@event17?$AA@ 00631bf4     d3d8d:stats.obj
 0003:00053b40       ??_C@_07LLLNBFIE@event16?$AA@ 00631c00     d3d8d:stats.obj
 0003:00053b4c       ??_C@_07JAJAEGEH@event15?$AA@ 00631c0c     d3d8d:stats.obj
 0003:00053b58       ??_C@_07IJILHHAG@event14?$AA@ 00631c18     d3d8d:stats.obj
 0003:00053b64       ??_C@_0P@IFNJFJMC@ObjectLockWait?$AA@ 00631c24     d3d8d:stats.obj
 0003:00053b78       ??_C@_0P@NMDIHADG@PushBufferWait?$AA@ 00631c38     d3d8d:stats.obj
 0003:00053b8c       ??_C@_0N@NMNOCPO@BlockOnFence?$AA@ 00631c4c     d3d8d:stats.obj
 0003:00053b9c       ??_C@_0P@NDLNDBJC@BlockUntilIdle?$AA@ 00631c5c     d3d8d:stats.obj
 0003:00053bb0       ??_C@_07FHKFELEN@Present?$AA@ 00631c70     d3d8d:stats.obj
 0003:00053bbc       ??_C@_07IMDOFAFF@Kickoff?$AA@ 00631c7c     d3d8d:stats.obj
 0003:00053bc8       ??_C@_06HLBOAJAH@VBlank?$AA@ 00631c88     d3d8d:stats.obj
 0003:00053bd0       ??_C@_0O@PPDGOOMA@RunPushBuffer?$AA@ 00631c90     d3d8d:stats.obj
 0003:00053be0       ??_C@_08NJGDGLFM@BeginEnd?$AA@ 00631ca0     d3d8d:stats.obj
 0003:00053bec       ??_C@_0BB@KJBHGFML@DrawIndexedVerts?$AA@ 00631cac     d3d8d:stats.obj
 0003:00053c00       ??_C@_0N@EFLJPMOL@DrawVertices?$AA@ 00631cc0     d3d8d:stats.obj
 0003:00053c10       ??_C@_0BD@MFBKIDEK@DrawIndexedVertsUP?$AA@ 00631cd0     d3d8d:stats.obj
 0003:00053c28       ??_C@_0P@NJENGAKG@DrawVerticesUP?$AA@ 00631ce8     d3d8d:stats.obj
 0003:00053c3c       ??_C@_06OENKJGA@Header?$AA@ 00631cfc     d3d8d:stats.obj
 0003:00053c44       ??_C@_0CN@MFAIGAC@?$CFs?$CF?9?$CKs?5?$CF9I64u?5?$CF9lu?5?$CF9I64u?5?$CF8lu?5?$CF@ 00631d04     d3d8d:stats.obj
 0003:00053c90       ??_C@_0BA@FOGOMHOF@?5?5?5?5?$CK?$CK?$CK?5?$CFs?5?$CK?$CK?$CK?6?$AA@ 00631d50     d3d8d:stats.obj
 0003:00053ca4       ??_C@_0DA@GKPJMMFN@Total?5Perf?5Events?3?5?$CFlu?5?5Presents@ 00631d64     d3d8d:stats.obj
 0003:00053ce0       ??_C@_0FC@IBLHLFPJ@?6Event?5?5?5?5?5?5?5?5?5?5?5?5?5?5?5?5CpuStart?5?5@ 00631da0     d3d8d:stats.obj
 0003:00053d44       ??_C@_0L@HINCJDMI@?$CF20s?3?5?$CFLu?6?$AA@ 00631e04     d3d8d:stats.obj
 0003:00053d54       ??_C@_0O@HCGAGGAP@total?5samples?$AA@ 00631e14     d3d8d:stats.obj
 0003:00053d64       ??_C@_0BD@LKANBAHL@?$CF20s?3?5?$CFLu?5?$CI?$CFLu?$CF?$CF?$CJ?6?$AA@ 00631e24     d3d8d:stats.obj
 0003:00053d7c       ??_C@_0BP@NPOABBDJ@?$CD?$CFLu?$CJ?5?$CFs?5?$CFI64u?5cycles?5?$CI?$CFLums?$CJ?6?$AA@ 00631e3c     d3d8d:stats.obj
 0003:00053da4       ??_C@_0CH@HOLJAEAG@Interrupts?3?5?$CFLu?6Context?5Switches@ 00631e64     d3d8d:stats.obj
 0003:00053dd4       ??_C@_0BL@MOFOIDFH@Available?5RAM?3?5?$CFLu?5kbytes?6?$AA@ 00631e94     d3d8d:stats.obj
 0003:00053df4       ??_C@_0DM@DBJILFIM@RunPushBuffer?5bytes?5traversed?3?5?$CF@ 00631eb4     d3d8d:stats.obj
 0003:00053e3c       ??_C@_0DE@IICFGBCN@PushBuffer?5writes?3?5?$CFI64u?5bytes?5?$CI@ 00631efc     d3d8d:stats.obj
 0003:00053e7c       ??_C@_0DM@JHKNCDDE@?5?9?9?$DO?5Doesn?8t?5include?5vertices?5pr@ 00631f3c     d3d8d:stats.obj
 0003:00053ec4       ??_C@_0DB@KDKNMGMG@Vertices?5processed?3?5?$CFLu?5verts?5?$CI?$CF@ 00631f84     d3d8d:stats.obj
 0003:00053f00       ??_C@_0ED@DINHKLGP@?5?9?9?$DO?5D3DPERF_DUMP_FPS_PERFEVENTS@ 00631fc0     d3d8d:stats.obj
 0003:00053f50       ??_C@_0DG@JMHNIINE@?$CFs?5?$CI?$CFLu?$CJ?3?5?$CFLu?4?$CFLums?5?$CI?$CFLu?4?$CFLums?1w@ 00632010     d3d8d:stats.obj
 0003:00053fb4       ??_C@_0DK@MPAMDMOK@Min?1max?5frame?5times?3?5?5frame?5?$CD?$CFLu@ 00632074     d3d8d:stats.obj
 0003:00053ffc       ??_C@_0DL@JCELCDEA@fps?3?5?$CFLu?4?$CFLu?5?$CI?$CFLu?4?$CFLu?5ms?1frame?$CJ?5@ 006320bc     d3d8d:stats.obj
 0003:00054044       ??_C@_0BG@GFDKCHNP@?6Total?5Cycles?3?5?$CFI64u?6?$AA@ 00632104     d3d8d:stats.obj
 0003:00054060       ??_C@_0BK@MMIHDHNG@?6TextureState?5counters?3?6?6?$AA@ 00632120     d3d8d:stats.obj
 0003:00054080       ??_C@_0BE@KCNOLBHC@missing?5description?$AA@ 00632140     d3d8d:stats.obj
 0003:00054098       ??_C@_0BJ@PGEIBDGH@?6RenderState?5counters?3?6?6?$AA@ 00632158     d3d8d:stats.obj
 0003:000540b8       ??_C@_0BB@DHNALNHG@?6API?5Counters?3?6?6?$AA@ 00632178     d3d8d:stats.obj
 0003:000540cc       ??_C@_0M@NHEDINIE@?$CF10Lu?5?9?5?$CFs?6?$AA@ 0063218c     d3d8d:stats.obj
 0003:000540dc       ??_C@_0BE@BCDBGCFM@?$CF10Lu?5?9?5?$CFs?5?9?5?$CFI64u?6?$AA@ 0063219c     d3d8d:stats.obj
 0003:000540f4       ??_C@_0BI@OGFLFPOI@Performance?5Counters?3?6?6?$AA@ 006321b4     d3d8d:stats.obj
 0003:00054120       ?g_DisplayModeCount@D3D@@3KB 006321e0     d3d8d:mpmode.obj
 0003:00054128       ?g_DisplayModes@D3D@@3QBUDISPLAYMODE@1@B 006321e8     d3d8d:mpmode.obj
 0003:00054b90       ??_C@_0CP@CGJJBMOJ@?$CIpMode?9?$DOAvInfo?5?$CG?5AV_STANDARD_MAS@ 00632c50     d3d8d:mpmode.obj
 0003:00054bc8       ??_C@_06PDGMHEMN@i?5?$CB?$DN?5c?$AA@ 00632c88     d3d8d:mpmode.obj
 0003:00054bd0       ??_C@_0CJ@FBDMDGBB@SetVideoMode?5?9?5Unsupported?5displ@ 00632c90     d3d8d:mpmode.obj
 0003:00054c08       ??_C@_0EA@CDKPLOPJ@SetVideoMode?5?9?5Current?5system?5do@ 00632cc8     d3d8d:mpmode.obj
 0003:00054c58       ??_C@_0EN@PEHABGEM@SetVideoMode?5?9?5Current?5AV?5setup?5@ 00632d18     d3d8d:mpmode.obj
 0003:00054cb4       ??_C@_0CB@PECAFMLE@SetVideoMode?5?9?5Bad?5refresh?5rate?6@ 00632d74     d3d8d:mpmode.obj
 0003:00054cdc       ?g_PerfCounter@D3D@@3QBUPERFCOUNTER@1@B 00632d9c     d3d8d:dxgcreate.obj
 0003:00054d08       ??_C@_0CJ@EFFBKMKO@Direct3D?5non?9contiguous?5memory?5a@ 00632dc8     d3d8d:dxgcreate.obj
 0003:00054d3c       ??_C@_0CF@KDLLBAOG@Direct3D?5contiguous?5memory?5alloc@ 00632dfc     d3d8d:dxgcreate.obj
 0003:00054d68       ??_C@_0BN@HADIKKBF@?$CISwPut?9HwGet?$CJ?1PushBufferSize?$AA@ 00632e28     d3d8d:dxgcreate.obj
 0003:00054d8c       ?g_InitialTextureStates@D3D@@3QBEB 00632e4c     d3d8d:dxgcreate.obj
 0003:00054db8       ?g_InitialRenderStates@D3D@@3QBKB 00632e78     d3d8d:dxgcreate.obj
 0003:00054fc4       ??_C@_0DI@IJONGKON@No?5point?5in?5more?5than?52?5back?5buf@ 00633084     d3d8d:dxgcreate.obj
 0003:00055008       ??_C@_0BJ@HOALAPMM@Invalid?5SwapEffect?5value?$AA@ 006330c8     d3d8d:dxgcreate.obj
 0003:00055028       ??_C@_0DC@BEEBDCLA@FullScreen_RefreshRateInHz?5must?5@ 006330e8     d3d8d:dxgcreate.obj
 0003:00055064       ??_C@_0CO@FIOOKALM@Invalid?5FullScreen_PresentationI@ 00633124     d3d8d:dxgcreate.obj
 0003:0005509c       ??_C@_0CH@BIOMEOKC@Improper?5D3DMULTISAMPLE?5scale?5en@ 0063315c     d3d8d:dxgcreate.obj
 0003:000550d0       ??_C@_0ED@ICJPKIPJ@Can?8t?5specifcy?5D3DMULTISAMPLE_PR@ 00633190     d3d8d:dxgcreate.obj
 0003:00055120       ??_C@_0CN@NKLHABAB@Invalid?5D3DMULTISAMPLE_PREFILTER@ 006331e0     d3d8d:dxgcreate.obj
 0003:00055158       ??_C@_0DF@IFDFNEAH@InitializeFrameBuffers?5?9?5unable?5@ 00633218     d3d8d:dxgcreate.obj
 0003:00055198       ??_C@_0DO@GBHMEBGF@InitializeFrameBuffers?5?9?5unable?5@ 00633258     d3d8d:dxgcreate.obj
 0003:000551e4       ??_C@_0DF@FPPEEAGO@?$CIframeSize?5?$CG?5?$CID3D_RENDER_MEMORY_@ 006332a4     d3d8d:dxgcreate.obj
 0003:00055224       ??_C@_0DO@FBKEAPEH@DepthStencilSurface?5must?5be?5at?5l@ 006332e4     d3d8d:dxgcreate.obj
 0003:00055270       ??_C@_0EK@DHMLCNBA@Front?9buffer?5surfaces?5must?5be?5at@ 00633330     d3d8d:dxgcreate.obj
 0003:000552c8       ??_C@_0GJ@LDKEPOPL@Unexpected?5mistmatch?5between?5Buf@ 00633388     d3d8d:dxgcreate.obj
 0003:00055348       ??_C@_0CI@LIKPMBDN@Not?5all?5BufferSurfaces?5have?5same@ 00633408     d3d8d:dxgcreate.obj
 0003:00055378       ??_C@_0DF@JMKGNFFO@Not?5all?5BufferSurfaces?5have?5same@ 00633438     d3d8d:dxgcreate.obj
 0003:000553b8       ??_C@_0CH@KMIJELMK@Unexpected?5NULL?5BufferSurfaces?5s@ 00633478     d3d8d:dxgcreate.obj
 0003:000553e8       ??_C@_0BK@CNNEKOMJ@Graphics?5processor?5error?4?$AA@ 006334a8     d3d8d:dxgcreate.obj
 0003:00055408       ??_C@_0DE@LJMIBGAL@Possible?5deadlock?0?5blocked?5for?5m@ 006334c8     d3d8d:dxgcreate.obj
 0003:00055448       ??_C@_0EB@EPEOAPGO@CDevice?3?3Init?5?9?5unable?5to?5alloca@ 00633508     d3d8d:dxgcreate.obj
 0003:00055498       ??_C@_0DC@EOAHPKO@?$CIm_pRenderTarget?5?$DN?$DN?5NULL?$CJ?5?$CG?$CG?5?$CIm_@ 00633558     d3d8d:dxgcreate.obj
 0003:000554d4       ??_C@_0CL@MELILLMH@?$CB?$CIm_StateFlags?5?$CG?5?$CISTATE_RECORDPU@ 00633594     d3d8d:dxgcreate.obj
 0003:00055508       ??_C@_0JO@DMAGKHGM@Pusher?5?9?5The?5push?5buffer?5allocat@ 006335c8     d3d8d:pusher.obj
 0003:000555c8       ??_C@_0IO@HIHOLHB@Pusher?5?9?5Nested?5calls?5to?5the?5pus@ 00633688     d3d8d:pusher.obj
 0003:00055674       ??_C@_0CK@MCPGFLIH@Previous?5BeginState?5never?5had?5an@ 00633734     d3d8d:pusher.obj
 0003:000556a8       ??_C@_0DJ@GDCJOKNO@pPush?5parameter?5not?5within?5range@ 00633768     d3d8d:pusher.obj
 0003:000556ec       ??_C@_0DA@MAEDDFEJ@EndState?5without?5having?5first?5do@ 006337ac     d3d8d:pusher.obj
 0003:00055728       ??_C@_0BO@PNILCEEC@g_PushIndex?5?$DM?$DN?5g_ReservedSize?$AA@ 006337e8     d3d8d:pusher.obj
 0003:0005574c       ??_C@_0CA@CKIGJMAF@g_PushState?5?$DN?$DN?5PUSH_STATE_START?$AA@ 0063380c     d3d8d:pusher.obj
 0003:00055774       ??_C@_0BF@CPBJDFPD@pPush?5?$DN?$DN?5g_pPushNext?$AA@ 00633834     d3d8d:pusher.obj
 0003:00055790       ??_C@_0N@HKEOOOIJ@count?5?$DM?52048?$AA@ 00633850     d3d8d:pusher.obj
 0003:000557a0       ??_C@_0EE@LEMNGJKP@?$CIpResource?9?$DOCommon?5?$CG?5D3DCOMMON_T@ 00633860     d3d8d:pusher.obj
 0003:000557f4       ??_C@_0DG@BGJIKCDG@FATAL?3?5Unable?5to?5allocate?5segmen@ 006338b4     d3d8d:pusher.obj
 0003:00055834       ??_C@_0BI@KKGBLDEB@m_PusherSegment?5?$DN?$DN?5NULL?$AA@ 006338f4     d3d8d:pusher.obj
 0003:00055850       ??_C@_0DB@EHKIKKHM@segments?5?$DO?$DN?5m_PushBufferSize?5?1?5m@ 00633910     d3d8d:pusher.obj
 0003:00055890       ??_C@_0EL@CCJHLPGL@m_PushBufferSize?5?1?5sizeof?$CIFenceE@ 00633950     d3d8d:pusher.obj
 0003:000558ec       ??_C@_0DE@DCOCPMLL@FATAL?3?5Unable?5to?5allocate?5push?5b@ 006339ac     d3d8d:pusher.obj
 0003:0005592c       ??_C@_0DH@ELMDKKKP@pDevice?9?$DOAge?$CIpFence?9?$DOTime?$CJ?5?$DM?$DN?5pD@ 006339ec     d3d8d:pusher.obj
 0003:00055970       ??_C@_0CG@CDFIIKAJ@pFence?9?$DOTime?5?$CG?5PUSHER_TIME_VALID@ 00633a30     d3d8d:pusher.obj
 0003:000559a0       ??_C@_0BK@NOHAGFLI@pFence?9?$DOpEncoding?5?$CB?$DN?5NULL?$AA@ 00633a60     d3d8d:pusher.obj
 0003:000559c0       ??_C@_0CB@PAGAHGHL@TargetTime?5?$CB?$DN?5pDevice?9?$DOm_CpuTime@ 00633a80     d3d8d:pusher.obj
 0003:000559e8       ??_C@_0CE@LDCNIMHO@TargetTime?5?$CG?5PUSHER_TIME_VALID_F@ 00633aa8     d3d8d:pusher.obj
 0003:00055a14       ??_C@_0BB@FGJFAJMN@previousAge?5?$DM?$DN?52?$AA@ 00633ad4     d3d8d:pusher.obj
 0003:00055a28       ??_C@_0BA@HCFOLNM@segmentAge?5?$DM?$DN?52?$AA@ 00633ae8     d3d8d:pusher.obj
 0003:00055a3c       ??_C@_0DH@JCJMMBFP@?$CIpSegment?5?$DO?$DN?5m_pPushBase?$CJ?5?$CG?$CG?5?$CIpS@ 00633afc     d3d8d:pusher.obj
 0003:00055a80       ??_C@_0CJ@NJGAHMII@GetPushDistance?5?9?5Invalid?5Handle@ 00633b40     d3d8d:pusher.obj
 0003:00055ab8       ??_C@_0EE@BMMFLGPL@?$CIm_pPut?5?$DM?5m_pPushLimit?$CJ?5?$HM?$HM?5?$CIm_St@ 00633b78     d3d8d:pusher.obj
 0003:00055b0c       ??_C@_0CA@BJHGAKML@g_PushState?5?$CB?$DN?5PUSH_STATE_START?$AA@ 00633bcc     d3d8d:pusher.obj
 0003:00055b38       ??_C@_0FP@NKAIKJMN@?$CIpDevice?9?$DOm_pPut?5?$DM?5pDevice?9?$DOm_pP@ 00633bf8     d3d8d:pusher.obj
 0003:00055bac       ??_C@_0DG@OJGKICGJ@Bad?5EndPush?3?5Expected?5?$CFlx?0?5got?5?$CF@ 00633c6c     d3d8d:pusher.obj
 0003:00055bf0       ??_C@_0FF@MHFJKMLI@Pusher?5?9?5End?5push?5is?5not?5paired?5@ 00633cb0     d3d8d:pusher.obj
 0003:00055c58       ??_C@_0BO@PMEDCDKC@time?5?$CG?5PUSHER_TIME_VALID_FLAG?$AA@ 00633d18     d3d8d:pusher.obj
 0003:00055c80       ??_C@_0EI@GGLKDPDE@D3DDevice_InsertFence?5?9?5can?8t?5In@ 00633d40     d3d8d:pusher.obj
 0003:00055cd8       ??_C@_0EJ@JKCFODAN@D3DDevice_InsertFence?5?9?5can?8t?5In@ 00633d98     d3d8d:pusher.obj
 0003:00055d30       ??_C@_0BC@IDLPAGBG@Possible?5deadlock?$AA@ 00633df0     d3d8d:pusher.obj
 0003:00055d48       ??_C@_0DP@IGGLDOFI@?$CB?$CIFlags?5?$CG?5D3DWAIT_PUSHBUFFER?$CJ?5?$HM?$HM@ 00633e08     d3d8d:pusher.obj
 0003:00055d94       ??_C@_0DE@FCFGEMNL@targetFence?9?$DOTime?5?$DN?$DN?5targetFence@ 00633e54     d3d8d:pusher.obj
 0003:00055dd8       ??_C@_0GN@GIDMDFOF@targetFence?9?$DOpEncoding?9?$DOm_Semaph@ 00633e98     d3d8d:pusher.obj
 0003:00055e5c       ??_C@_0BA@MCJGLJHD@Unexpected?5type?$AA@ 00633f1c     d3d8d:pusher.obj
 0003:00055e70       ??_C@_0JN@LCHGPGNH@Pusher?5?9?5Attempting?5to?5block?5on?5@ 00633f30     d3d8d:pusher.obj
 0003:00055f30       ??_C@_0JO@NIHIIAA@Pusher?5?9?5Attempting?5to?5block?5whi@ 00633ff0     d3d8d:pusher.obj
 0003:00055ff0       ??_C@_0IN@DAMOELKN@?$CIpDevice?9?$DOGpuTime?$CI?$CJ?5?$CB?$DN?5pDevice?9?$DO@ 006340b0     d3d8d:pusher.obj
 0003:0005609c       ??_C@_0BO@BNJLFLKG@Time?5?$CG?5PUSHER_TIME_VALID_FLAG?$AA@ 0063415c     d3d8d:pusher.obj
 0003:000560c0       ??_C@_0L@DDKPNMFP@Flags?5?$CB?$DN?50?$AA@ 00634180     d3d8d:pusher.obj
 0003:000560d0       ??_C@_0HC@DJGHABII@Space?5request?5is?5too?5big?5?9?5can?8t@ 00634190     d3d8d:pusher.obj
 0003:00056158       ??_C@_0CI@IMMEDCI@pDevice?9?$DOm_pPut?5?$DM?5pDevice?9?$DOm_pPu@ 00634218     d3d8d:pusher.obj
 0003:00056188       ??_C@_0DA@CJOGDLDC@RequestedSpace?5?$DM?$DN?5pDevice?9?$DOm_Pus@ 00634248     d3d8d:pusher.obj
 0003:000561c4       ??_C@_0CN@BADJEEFD@RequestedSpace?5?$DO?$DN?5pDevice?9?$DOm_Pus@ 00634284     d3d8d:pusher.obj
 0003:000561fc       ??_C@_0BP@HCMDMHHN@MinimumSpace?5?$DM?$DN?5RequestedSpace?$AA@ 006342bc     d3d8d:pusher.obj
 0003:00056228       ??_C@_0EI@JNCMKHME@pDevice?9?$DOm_pPut?5?$CL?5count?5?$DM?5pDevic@ 006342e8     d3d8d:pusher.obj
 0003:00056280       ??_C@_0KH@IHCKNDPD@StartPush?5?9?5an?5individual?5push?5b@ 00634340     d3d8d:pusher.obj
 0003:00056348       ??_C@_0CN@CLPDINBO@pDevice?9?$DOm_PusherPendingFixupInt@ 00634408     d3d8d:pusher.obj
 0003:00056380       ??_C@_0DG@IMLHJHGJ@Resource?5has?5an?5invalid?5?8Lock?8?5f@ 00634440     d3d8d:pusher.obj
 0003:000563c0       ??_C@_0DC@CDBNPOIE@D3DDevice_InsertCallback?5?9?5Inval@ 00634480     d3d8d:pusher.obj
 0003:000563fc       ??_C@_0CN@DGCDCJJP@D3DDevice_InsertCallback?5?9?5Callb@ 006344bc     d3d8d:pusher.obj
 0003:00056434       ??_C@_0CI@KLJLLNDJ@Previous?5BeginPush?5never?5had?5an?5@ 006344f4     d3d8d:pusher.obj
 0003:00056468       ??_C@_0GK@NECMKACO@Texture?5stage?5?$CFd?5is?5mapped?5to?5te@ 00634528     d3d8d:pusher.obj
 0003:000564e8       ??_C@_0DI@BEJHKFDM@pPush?5parameter?5not?5within?5range@ 006345a8     d3d8d:pusher.obj
 0003:00056530       ??_C@_0EK@FBOPPFK@End?5of?5buffer?5overwritten?5?$CImore?5@ 006345f0     d3d8d:pusher.obj
 0003:00056588       ??_C@_0CO@BIPEJAMA@EndPush?5without?5having?5first?5don@ 00634648     d3d8d:pusher.obj
 0003:000565d0       ?g_Mar@D3D@@3QBMB          00634690     d3d8d:math.obj
 0003:00056670       ?g_Lar@D3D@@3QBMB          00634730     d3d8d:math.obj
 0003:0005670c       ??_C@_08DKEMNPAF@res?5?$CB?$DN?5v?$AA@ 006347cc     d3d8d:math.obj
 0003:00056718       ??_C@_0L@LGJGHFGO@invmag?5?$DO?50?$AA@ 006347d8     d3d8d:math.obj
 0003:00056728       ??_C@_0DH@MAAACIOP@Log?5?9?5fast?5log?5doesn?8t?5handle?5ze@ 006347e8     d3d8d:floatmath.obj
 0003:0005676c       ??_C@_0BO@NLABBOCC@?$CI?$CISize?$CL3?$CJ?$CG0xfffffffc?$CJ?5?$DN?$DN?5Size?$AA@ 0063482c     d3d8d:timing.obj
 0003:00056790       ??_C@_0CF@FABCIBKL@TimingCapture?3?5Couldn?8t?5delete?5f@ 00634850     d3d8d:timing.obj
 0003:000567bc       ??_C@_0CJ@CFMKMGIE@TimingCapture?3?5Disk?5error?4?5?5Abor@ 0063487c     d3d8d:timing.obj
 0003:000567f0       ??_C@_09JOIKCMGN@?$CFs?2?$CFs?4tmg?$AA@ 006348b0     d3d8d:timing.obj
 0003:0005682c       ??_C@_0DD@JPPKDGGJ@Timing?5?5Capture?3?5Could?5not?5alloc@ 006348ec     d3d8d:timing.obj
 0003:0005686c       ??_C@_0CE@JBIMJEEJ@Could?5not?5allocate?5timing?5buffer@ 0063492c     d3d8d:timing.obj
 0003:00056898       ??_C@_0EN@MPFFNIFI@TimingCapture?3?5FileName?5can?8t?5in@ 00634958     d3d8d:timing.obj
 0003:000568f4       ??_C@_0CD@DKJFMKOB@TimingCapture?3?5Already?5capturing@ 006349b4     d3d8d:timing.obj
 0003:00056920       ??_C@_0FB@OIALHOLA@Timing?5Capture?3?5User?5Event?5Misma@ 006349e0     d3d8d:timing.obj
 0003:00056988       ??_C@_0FB@DFHBAJIE@Timing?5Capture?3?5User?5Event?5Misma@ 00634a48     d3d8d:timing.obj
 0003:000569ec       ??_C@_0CF@LOFFPJJL@Timing?5Capture?3?5CPU?5Buffer?5Over?9@ 00634aac     d3d8d:timing.obj
 0003:00056a18       ??_C@_0CF@KMKMPNCA@Timing?5Capture?3?5GPU?5Buffer?5Over?9@ 00634ad8     d3d8d:timing.obj
 0003:00056a44       ??_C@_0DA@KEIJEMLP@Timing?5Capture?3?5Vertical?5Blank?5B@ 00634b04     d3d8d:timing.obj
 0003:00056a80       ??_C@_09LEGDMPHC@depth?5?$DO?50?$AA@ 00634b40     d3d8d:timing.obj
 0003:00056a8c       ??_C@_0DG@GLIJJIDK@D3DPERF_SetMarker?3?5Device?5hasn?8t@ 00634b4c     d3d8d:timing.obj
 0003:00056acc       ??_C@_0DH@ICAGGNCK@D3DPERF_BeginEvent?3?5Device?5hasn?8@ 00634b8c     d3d8d:timing.obj
 0003:00056b10       ??_C@_0P@NIMHMNMK@startAddr?5?$CB?$DN?50?$AA@ 00634bd0     d3d8d:mpdac.obj
 0003:00056b24       ??_C@_0BL@NCCLNEAK@?$CIValue?5?$CG?5?$CIValue?5?9?51?$CJ?$CJ?5?$DN?$DN?50?$AA@ 00634be4     d3d8d:pixeljar.obj
 0003:00056b44       ??_C@_05LPIJGKJ@Value?$AA@ 00634c04     d3d8d:pixeljar.obj
 0003:00056b4c       ??_C@_0BD@BHHJDIED@Unexpected?5format?6?$AA@ 00634c0c     d3d8d:pixeljar.obj
 0003:00056b64       ??_C@_0DN@OEHIDMDD@PixelJar?3?3GetDepthBufferScale?5?9?5@ 00634c24     d3d8d:pixeljar.obj
 0003:00056bb0       ??_C@_0DA@PGOIGIJI@IsValidDepthBufferD3DFORMAT?$CIGetF@ 00634c70     d3d8d:pixeljar.obj
 0003:00056bec       ??_C@_0CK@FCJONCHH@PixelJar?3?3GetSize?5?9?5invalid?5mipm@ 00634cac     d3d8d:pixeljar.obj
 0003:00056c20       ??_C@_0DD@DBBKOJDP@PixelJar?3?3Get2DSurfaceDesc?5?9?5inv@ 00634ce0     d3d8d:pixeljar.obj
 0003:00056c60       ??_C@_0DD@LMJCBENN@PixelJar?3?3Get3DSurfaceDesc?5?9?5inv@ 00634d20     d3d8d:pixeljar.obj
 0003:00056ca0       ??_C@_0CG@LEMEJEHP@PixelJar?3?3LockSurface?5?9?5invalid?5@ 00634d60     d3d8d:pixeljar.obj
 0003:00056cd0       ??_C@_0CO@GECHDOGM@PixelJar?3?3LockSurface?5?9?5invalid?5@ 00634d90     d3d8d:pixeljar.obj
 0003:00056d08       ??_C@_0DG@BFHOFLKH@PixelJar?3?3Lock2DSurface?5?9?5Lock?5r@ 00634dc8     d3d8d:pixeljar.obj
 0003:00056d48       ??_C@_0FE@BENNHOGA@PixelJar?3?3Lock2DSurface?5?9?5Lock?5r@ 00634e08     d3d8d:pixeljar.obj
 0003:00056db0       ??_C@_0EO@CLKCOMBB@PixelJar?3?3Lock3DSurface?5?9?5lock?5b@ 00634e70     d3d8d:pixeljar.obj
 0003:00056e10       ??_C@_0HF@LGLNDKAD@PixelJar?3?3EncodeFormat?5?9?5The?5sur@ 00634ed0     d3d8d:pixeljar.obj
 0003:00056ea0       ??_C@_0EL@NMLIBBOD@?$CI?$CI?$CKpSize?5?$CG?5D3DSIZE_HEIGHT_MASK?$CJ?5@ 00634f60     d3d8d:pixeljar.obj
 0003:00056efc       ??_C@_0CP@EHBDBAGE@?$CI?$CKpSize?5?$CG?5D3DSIZE_WIDTH_MASK?$CJ?5?$CL?5@ 00634fbc     d3d8d:pixeljar.obj
 0003:00056f38       ??_C@_0EO@JKLIIGDI@PixelJar?3?3EncodeFormat?5?9?5too?5man@ 00634ff8     d3d8d:pixeljar.obj
 0003:00056f98       ??_C@_0EF@PLCLFDFM@PixelJar?3?3EncodeFormat?5?9?5Cube?5ma@ 00635058     d3d8d:pixeljar.obj
 0003:00056ff0       ??_C@_0EG@FLICAEDJ@PixelJar?3?3EncodeFormat?5?9?5Depth?5f@ 006350b0     d3d8d:pixeljar.obj
 0003:00057048       ??_C@_0FJ@LIHMNNAK@PixelJar?3?3EncodeFormat?5?9?5Texture@ 00635108     d3d8d:pixeljar.obj
 0003:000570b8       ??_C@_0FE@CLFEGID@PixelJar?3?3EncodeFormat?5?9?5Each?5di@ 00635178     d3d8d:pixeljar.obj
 0003:00057120       ??_C@_0EF@FCLEABHL@PixelJar?3?3EncodeFormat?5?9?5Volume?5@ 006351e0     d3d8d:pixeljar.obj
 0003:00057178       ??_C@_0EA@GDJMLFKD@PixelJar?3?3EncodeFormat?5?9?5Volume?5@ 00635238     d3d8d:pixeljar.obj
 0003:000571c8       ??_C@_0FE@BLHFEIKP@PixelJar?3?3EncodeFormat?5?9?5Volume?5@ 00635288     d3d8d:pixeljar.obj
 0003:00057230       ??_C@_0FF@GOCEMAOM@PixelJar?3?3EncodeFormat?5?9?5Volume?5@ 006352f0     d3d8d:pixeljar.obj
 0003:00057298       ??_C@_0FE@MCGMJMEJ@PixelJar?3?3EncodeFormat?5?9?5Volume?5@ 00635358     d3d8d:pixeljar.obj
 0003:00057300       ??_C@_0FJ@NJNIHJKE@PixelJar?3?3EncodeFormat?5?9?5Non?5swi@ 006353c0     d3d8d:pixeljar.obj
 0003:00057370       ??_C@_0FI@PJFHOBMK@PixelJar?3?3EncodeFormat?5?9?5Non?5swi@ 00635430     d3d8d:pixeljar.obj
 0003:000573e0       ??_C@_0EP@HDIMJODC@PixelJar?3?3EncodeFormat?5?9?5Texture@ 006354a0     d3d8d:pixeljar.obj
 0003:00057440       ??_C@_0EO@CKMNPJIE@PixelJar?3?3EncodeFormat?5?9?5Texture@ 00635500     d3d8d:pixeljar.obj
 0003:000574a0       ??_C@_0FO@FKMLMKIF@PixelJar?3?3EncodeFormat?5?9?5Non?5swi@ 00635560     d3d8d:pixeljar.obj
 0003:00057510       ??_C@_0CJ@JIGNJCPH@PixelJar?3?3EncodeFormat?5?9?5Invalid@ 006355d0     d3d8d:pixeljar.obj
 0003:00057548       ??_C@_0EK@DECBCNDG@PixelJar?3?3EncodeFormat?5?9?5All?5tex@ 00635608     d3d8d:pixeljar.obj
 0003:000575a0       ??_C@_0CI@MCLGKKBL@MP?3?5Unhandled?5ServiceMediaPortIn@ 00635660     d3d8d:mpintr.obj
 0003:000575d0       ??_C@_0CB@CDKNFACH@?6The?5probable?5cause?5is?3?6?6?5?5?5?5?$CFs?6@ 00635690     d3d8d:mpintr.obj
 0003:000575f8       ??_C@_0ED@DPFNBPBC@Corrupt?5push?9buffer?5data?4?5?5Bad?5R@ 006356b8     d3d8d:mpintr.obj
 0003:00057648       ??_C@_0EG@KCBCKNJF@Bad?5D3DPUSH_SET_BEGIN_END?5value?5@ 00635708     d3d8d:mpintr.obj
 0003:000576a0       ??_C@_0EJ@ONIICFEP@Bad?5D3DPUSH_SET_TRANSFORM_CONSTA@ 00635760     d3d8d:mpintr.obj
 0003:000576f8       ??_C@_0EB@HNBIPLPB@Invalid?5texture?5format?50x?$CFx?4?5?5Wa@ 006357b8     d3d8d:mpintr.obj
 0003:00057748       ??_C@_0EE@PHFLOALB@Invalid?5texture?5address?50x?$CF08x?4?5@ 00635808     d3d8d:mpintr.obj
 0003:0005779c       ??_C@_0CK@EGKKHNGG@Stage?5requires?5a?5texture?5but?5non@ 0063585c     d3d8d:mpintr.obj
 0003:000577d0       ??_C@_0BL@KFNEKEJA@Need?5a?5color?5in?5this?5stage?$AA@ 00635890     d3d8d:mpintr.obj
 0003:000577f0       ??_C@_0EP@GEKCJDGD@Can?8t?5have?5Color?5OCW?5combiner?5an@ 006358b0     d3d8d:mpintr.obj
 0003:00057850       ??_C@_0DI@NNFGOGHC@No?5wrap?5or?5mirror?5allowed?5if?5tex@ 00635910     d3d8d:mpintr.obj
 0003:00057894       ??_C@_0DE@NLGLKCIJ@No?5color?9key?5support?5for?5compres@ 00635954     d3d8d:mpintr.obj
 0003:000578d4       ??_C@_0CO@GBKFKAHC@No?5anisotropic?5support?5for?5convo@ 00635994     d3d8d:mpintr.obj
 0003:0005790c       ??_C@_0DN@EOBFGIJM@Can?8t?5use?5ImageFieldEnable?5unles@ 006359cc     d3d8d:mpintr.obj
 0003:00057958       ??_C@_0DL@OMJKANGA@Can?8t?5use?5ImageFieldEnable?5with?5@ 00635a18     d3d8d:mpintr.obj
 0003:000579a0       ??_C@_0CB@KCNJOHLJ@Invalid?5height?5with?5field?5enable@ 00635a60     d3d8d:mpintr.obj
 0003:000579c8       ??_C@_0CH@CGFBMNBL@No?5anisotropic?5support?5for?53D?5te@ 00635a88     d3d8d:mpintr.obj
 0003:000579f8       ??_C@_0FA@GAFCMIHF@Combination?5of?5signed?5SetBlendEq@ 00635ab8     d3d8d:mpintr.obj
 0003:00057a58       ??_C@_07MMCOAMKA@0x?$CF08x?5?$AA@ 00635b18     d3d8d:mpintr.obj
 0003:00057a64       ??_C@_09EAIOGDPB@?60x?$CF08x?3?5?$AA@ 00635b24     d3d8d:mpintr.obj
 0003:00057a70       ??_C@_0BN@JGLFJKLG@MP?3?5Graphics?5Hardware?5Error?6?$AA@ 00635b30     d3d8d:mpintr.obj
 0003:00057a98       ??_C@_0HP@LBNICHEH@Because?5single?9stepping?5is?5not?5e@ 00635b58     d3d8d:mpintr.obj
 0003:00057b30       ??_C@_0LF@NDNHONNP@The?5graphics?5hardware?5has?5detect@ 00635bf0     d3d8d:mpintr.obj
 0003:00057c10       ??_C@_0ED@CEHICPLJ@?5?5?5Type?3?5?$CFi?6?5Source?3?5?$CF08x?6?5?5Clas@ 00635cd0     d3d8d:mpintr.obj
 0003:00057c60       ??_C@_0P@GGCIBDIE@SHADOW?3?5?5?$CF08x?6?$AA@ 00635d20     d3d8d:mpintr.obj
 0003:00057c74       ??_C@_0P@BDNDNNNM@NSOURCE?3?5?$CF08x?6?$AA@ 00635d34     d3d8d:mpintr.obj
 0003:00057c88       ??_C@_0P@FFIEEPAB@INTR?3?5?5?5?5?$CF08x?6?$AA@ 00635d48     d3d8d:mpintr.obj
 0003:00057c9c       ??_C@_0CN@GGDFDHHA@CACHE1_GET?3?5?$CF08x?5?$CI0x?$CF08x?$CJ?5?5CACHE@ 00635d5c     d3d8d:mpintr.obj
 0003:00057cd4       ??_C@_0BO@EMPKPNBM@DMA_PUT?3?5?$CF08x?5?5DMA_GET?3?5?$CF08x?6?$AA@ 00635d94     d3d8d:mpintr.obj
 0003:00057cf8       ??_C@_0EA@KEOGMPLI@MethodAndData?3?50x?$CF08lx?6Parameter@ 00635db8     d3d8d:mpintr.obj
 0003:00057d48       ??_C@_0PN@EPFDPOPO@?6Single?9stepping?5is?5enabled?0?5so?5@ 00635e08     d3d8d:mpintr.obj
 0003:00057e78       ??_C@_0MM@KCINPEDH@?8D3D__SingleStepPusher?8?5set?5to?51@ 00635f38     d3d8d:mpintr.obj
 0003:00057f70       ??_C@_0LP@BBKOMOJM@?6Because?5single?9stepping?5is?5not?5@ 00636030     d3d8d:mpintr.obj
 0003:00058058       ??_C@_0CB@DGLIDICN@The?5error?5reported?5is?3?5?6?6?5?5?5?5?$CFs?6@ 00636118     d3d8d:mpintr.obj
 0003:00058080       ??_C@_0FN@HLABLJCC@?6Graphics?5Hardware?5Error?6?9?9?9?9?9?9?9@ 00636140     d3d8d:mpintr.obj
 0003:000580f0       ??_C@_0CC@HCDKFHLJ@?6Graphics?5Hardware?5Error?5?$CFd?3?5?$CFs?6@ 006361b0     d3d8d:mpintr.obj
 0003:00058118       ??_C@_0BK@IKKDHPDO@Unhandled?5software?5method?$AA@ 006361d8     d3d8d:mpintr.obj
 0003:00058138       ??_C@_0BL@EACAFMHF@Push?9buffer?5illegal?5method?$AA@ 006361f8     d3d8d:mpintr.obj
 0003:00058158       ??_C@_0BI@HIBFIELI@Push?9buffer?5parse?5error?$AA@ 00636218     d3d8d:mpintr.obj
 0003:00058174       ??_C@_0BO@HCJOOAFD@Graphics?5texture?5B?5protection?$AA@ 00636234     d3d8d:mpintr.obj
 0003:00058198       ??_C@_0BO@MPFEIMJN@Graphics?5texture?5A?5protection?$AA@ 00636258     d3d8d:mpintr.obj
 0003:000581bc       ??_C@_0BO@MJDBDGKH@Graphics?5FD?5invalid?5operation?$AA@ 0063627c     d3d8d:mpintr.obj
 0003:000581e0       ??_C@_0BL@HNGKAJM@Graphics?5invalid?5operation?$AA@ 006362a0     d3d8d:mpintr.obj
 0003:00058200       ??_C@_0BM@CFBKLINI@Graphics?5index?5inline?5reuse?$AA@ 006362c0     d3d8d:mpintr.obj
 0003:00058224       ??_C@_0BP@PPNPMMBG@Graphics?5DMA?5vertex?5protection?$AA@ 006362e4     d3d8d:mpintr.obj
 0003:0005824c       ??_C@_0BN@CCFDEHEM@Graphics?5buffer?5notification?$AA@ 0063630c     d3d8d:mpintr.obj
 0003:00058270       ??_C@_0BG@IDDKIMMB@Graphics?5method?5count?$AA@ 00636330     d3d8d:mpintr.obj
 0003:0005828c       ??_C@_0BH@MPMIEPNC@Graphics?5notify?5in?5use?$AA@ 0063634c     d3d8d:mpintr.obj
 0003:000582a8       ??_C@_0BH@NNJACPAP@Graphics?5double?5notify?$AA@ 00636368     d3d8d:mpintr.obj
 0003:000582c4       ??_C@_0BO@MOPDBHOC@Graphics?5object?5state?5invalid?$AA@ 00636384     d3d8d:mpintr.obj
 0003:000582e8       ??_C@_0BJ@PAPGFPHL@Graphics?5patch?5exception?$AA@ 006363a8     d3d8d:mpintr.obj
 0003:00058308       ??_C@_0BK@HCCMNHIM@Graphics?5format?5exception?$AA@ 006363c8     d3d8d:mpintr.obj
 0003:00058328       ??_C@_0BO@JHEFEJKM@Graphics?5dma?5write?5protection?$AA@ 006363e8     d3d8d:mpintr.obj
 0003:0005834c       ??_C@_0BN@MNPOCFBN@Graphics?5dma?5read?5protection?$AA@ 0063640c     d3d8d:mpintr.obj
 0003:00058370       ??_C@_0BI@EHPMANFA@Graphics?5illegal?5method?$AA@ 00636430     d3d8d:mpintr.obj
 0003:0005838c       ??_C@_0BL@BDEGAGFE@Graphics?5zeta?5buffer?5limit?$AA@ 0063644c     d3d8d:mpintr.obj
 0003:000583ac       ??_C@_0BM@JENEDKHC@Graphics?5color?5buffer?5limit?$AA@ 0063646c     d3d8d:mpintr.obj
 0003:000583d0       ??_C@_0BJ@JNMFPHJH@Graphics?5range?5exception?$AA@ 00636490     d3d8d:mpintr.obj
 0003:000583f0       ??_C@_0BM@POECPNIH@Graphics?5surface?5protection?$AA@ 006364b0     d3d8d:mpintr.obj
 0003:00058414       ??_C@_0BG@IDMHOBIF@Graphics?5invalid?5data?$AA@ 006364d4     d3d8d:mpintr.obj
 0003:00058430       ??_C@_0CK@JNMJOEHC@?$CBREG_RD32?$CIRegisterBase?0?5NV_PGRAP@ 006364f0     d3d8d:mpintr.obj
 0003:00058464       ??_C@_0CM@DJFEJLDJ@g_Device?4m_PusherPendingFixupInt@ 00636524     d3d8d:mpintr.obj
 0003:00058498       ??_C@_0CC@HJOGBBLD@?$CBm_VBlankFlips?$FLflipIndex?$FN?4Pendin@ 00636558     d3d8d:mpintr.obj
 0003:000584c0       ??_C@_0L@PPJDFNOF@Reset?5FIFO?$AA@ 00636580     d3d8d:mpintr.obj
 0003:000584d0       ??_C@_0CO@FKIHLCLE@MP?3?5Graphics?5DMA?5TLB?5not?5present@ 00636590     d3d8d:mpintr.obj
 0003:00058508       ??_C@_0CO@FIMBAMON@MP?3?5Graphics?5DMA?5TLB?5not?5present@ 006365c8     d3d8d:mpintr.obj
 0003:00058540       ??_C@_0CK@NBGNDIBF@MP?3?5Software?5assisted?5buffer?5not@ 00636600     d3d8d:mpintr.obj
 0003:00058574       ??_C@_0BM@HOKFAJKF@MP?3?5Missing?5hardware?5object?$AA@ 00636634     d3d8d:mpintr.obj
 0003:00058598       ??_C@_0CA@NMJEPLNM@Graphics?5engine?5software?5method?$AA@ 00636658     d3d8d:mpintr.obj
 0003:000585c0       ??_C@_0CB@JNDOIEIC@MP?3?5Invalid?5DMA?5pusher?5PTE?5fetch@ 00636680     d3d8d:mpintr.obj
 0003:000585e8       ??_C@_0BL@BMHLLGON@MP?3?5Access?5to?5free?5channel?$AA@ 006366a8     d3d8d:mpintr.obj
 0003:00058608       ??_C@_0BE@NOLGBBC@MP?3?5FIFO?5hash?5error?$AA@ 006366c8     d3d8d:mpintr.obj
 0003:00058620       ??_C@_0CA@LMGAEPAC@MP?3?5DMA?5acquire?5timeout?5pending?$AA@ 006366e0     d3d8d:mpintr.obj
 0003:00058648       ??_C@_0BK@EGPDMGKC@MP?3?5DMA?5semaphore?5pending?$AA@ 00636708     d3d8d:mpintr.obj
 0003:00058668       ??_C@_0BI@GHIBJHBB@MP?3?5RUNOUT?5NOT?5HANDLED?6?$AA@ 00636728     d3d8d:mpintr.obj
 0003:00058688       ??_C@_0FO@MCBIEHCF@REG_RD_DRF?$CIregbase?0?5_PFIFO?0?5_DEB@ 00636748     d3d8d:mpintr.obj
 0003:00058704       ??_C@_0DH@KLMMHEPE@blocks?5?$DM?$DN?5?$CIINSTANCE_MEM_MAXSIZE?5@ 006367c4     d3d8d:mpcore.obj
 0003:00058748       ??_C@_0CP@MGNCHOMF@MP?3?5Failed?5to?5display?5clock?5spee@ 00636808     d3d8d:mpcore.obj
 0003:00058780       ??_C@_0DH@FAIGFMBF@Crystal?$DN?$CFs?5?5FSB?$DN?$CFd?5?5CPU?$DN?$CFd?5?5NVCL@ 00636840     d3d8d:mpcore.obj
 0003:000587c4       ??_C@_04NHOAGHMH@13?45?$AA@ 00636884     d3d8d:mpcore.obj
 0003:000587cc       ??_C@_04MLBDMEDG@16?46?$AA@ 0063688c     d3d8d:mpcore.obj
 0003:000587d8       ??_C@_0FC@DBGDGPOC@AssertContiguousOrPhysical?5?9?5the@ 00636898     d3d8d:mpcore.obj
 0003:0005883c       ??_C@_0CJ@HMAEKDFN@Invalid?5class?5specified?5for?5DMA?5@ 006368fc     d3d8d:mpcore.obj
 0003:00058870       ??_C@_0FL@LNDFGBCG@?$CIAddressSpace?5?$DN?$DN?5ADDR_FBMEM?5?$HM?$HM?5A@ 00636930     d3d8d:mpcore.obj
 0003:000588e0       ??_C@_0CJ@NFNOHFMH@MP?3?5CreateGrObject?5invalid?5class@ 006369a0     d3d8d:mpcore.obj
 0003:00058914       ??_C@_0DG@NHMGFHJP@m_HalInfo?4GrCurrentObjects3d?$FLm_H@ 006369d4     d3d8d:mpcore.obj
 0003:00058954       ??_C@_0BH@COPOCECB@MP?3?5LoadEngines?5failed?$AA@ 00636a14     d3d8d:mpcore.obj
 0003:00058970       ??_C@_0BH@PPBBGOHK@MP?3?5InitEngines?5failed?$AA@ 00636a30     d3d8d:mpcore.obj
 0003:0005898c       ??_C@_0CA@NCIPKBJI@MP?3?5Unable?5to?5connect?5interrupt?$AA@ 00636a4c     d3d8d:mpcore.obj
 0003:000589b4       ??_C@_0BM@CHKPIKFG@MP?3?5Unable?5to?5get?5chip?5info?$AA@ 00636a74     d3d8d:mpcore.obj
 0003:000589d8       ??_C@_0BP@NOKAHNPE@MP?3?5Failed?5to?5map?5NV?5registers?$AA@ 00636a98     d3d8d:mpcore.obj
 0003:00058a00       ??_C@_0CH@GIEOEJKA@?$CB?$CIOffset?5?$CG?50x3fff?$CJ?5?$CG?$CG?5?$CB?$CISize?5?$CG?50@ 00636ac0     d3d8d:mpcore.obj
 0003:00058a3c       ??_C@_0BJ@CJNEFPMK@MinFilter?5?$DO?5D3DTEXF_NONE?$AA@ 00636afc     d3d8d:lazy.obj
 0003:00058a5c       ??_C@_0DP@BBKHNMJN@?$CIMinFilter?5?$DM?$DN?5D3DTEXF_LINEAR?$CJ?5?$CG?$CG@ 00636b1c     d3d8d:lazy.obj
 0003:00058aa8       ??_C@_0DK@MDNNBFNO@D3DRS_POINTSIZE_MIN?5must?5be?5less@ 00636b68     d3d8d:lazy.obj
 0003:00058af0       ??_C@_0BK@KMFNJPJB@LazySetShaderStageProgram?$AA@ 00636bb0     d3d8d:lazy.obj
 0003:00058b10       ??_C@_0BD@KLCDJBHL@maxAnisotropy?5?$DM?$DN?54?$AA@ 00636bd0     d3d8d:lazy.obj
 0003:00058b28       ??_C@_0BM@DNMHBHLB@fogTableMode?5?$DN?$DN?5D3DFOG_EXP2?$AA@ 00636be8     d3d8d:lazy.obj
 0003:00058b4c       ??_C@_0CC@MIJOFPOL@Unhandled?5texture?5transform?5type@ 00636c0c     d3d8d:lazy.obj
 0003:00058b74       ??_C@_0CO@HCFPGJJH@D3D__RenderState?$FLD3DRS_TWOSIDEDL@ 00636c34     d3d8d:lazy.obj
 0003:00058bac       ??_C@_0BF@HJBLHIPL@pLight?9?$DOSlot?5?$DN?$DN?5slot?$AA@ 00636c6c     d3d8d:lazy.obj
 0003:00058bc8       ??_C@_0JB@DKMNGHHI@Inline?5vertices?5of?5size?51?5DWORD?5@ 00636c88     d3d8d:lazy.obj
 0003:00058c78       ??_C@_0BD@IDCLIDNK@attributeCount?5?$DO?50?$AA@ 00636d38     d3d8d:lazy.obj
 0003:00058c90       ??_C@_0L@GABPGKOF@bytes?5?$CB?$DN?50?$AA@ 00636d50     d3d8d:lazy.obj
 0003:00058ca0       ??_C@_03MDBMCIBA@arl?$AA@  00636d60     d3d8d:rdi.obj
 0003:00058ca4       ??_C@_03PCCDGNNG@sge?$AA@  00636d64     d3d8d:rdi.obj
 0003:00058ca8       ??_C@_03KNKPKBCH@slt?$AA@  00636d68     d3d8d:rdi.obj
 0003:00058cac       ??_C@_03LJAEFNNE@max?$AA@  00636d6c     d3d8d:rdi.obj
 0003:00058cb0       ??_C@_03KLIPLJLL@min?$AA@  00636d70     d3d8d:rdi.obj
 0003:00058cb4       ??_C@_03HHBLCKEM@dst?$AA@  00636d74     d3d8d:rdi.obj
 0003:00058cb8       ??_C@_03IFCENLBA@dp4?$AA@  00636d78     d3d8d:rdi.obj
 0003:00058cbc       ??_C@_03JDCKMJEI@dph?$AA@  00636d7c     d3d8d:rdi.obj
 0003:00058cc0       ??_C@_03MKGFENNH@dp3?$AA@  00636d80     d3d8d:rdi.obj
 0003:00058cc4       ??_C@_03FPHDAAIJ@mad?$AA@  00636d84     d3d8d:rdi.obj
 0003:00058cc8       ??_C@_03BDGOHNNK@add?$AA@  00636d88     d3d8d:rdi.obj
 0003:00058ccc       ??_C@_03IMIFIBCN@mul?$AA@  00636d8c     d3d8d:rdi.obj
 0003:00058cd0       ??_C@_03GKGDKGJI@?$DP?$DPf?$AA@ 00636d90     d3d8d:rdi.obj
 0003:00058cd4       ??_C@_03EBEOPFFL@?$DP?$DPe?$AA@ 00636d94     d3d8d:rdi.obj
 0003:00058cd8       ??_C@_03FIFFMEBK@?$DP?$DPd?$AA@ 00636d98     d3d8d:rdi.obj
 0003:00058cdc       ??_C@_03BHBEFCNN@?$DP?$DPc?$AA@ 00636d9c     d3d8d:rdi.obj
 0003:00058ce0       ??_C@_03OAPGDJM@?$DP?$DPb?$AA@ 00636da0     d3d8d:rdi.obj
 0003:00058ce4       ??_C@_03CFCCDAFP@?$DP?$DPa?$AA@ 00636da4     d3d8d:rdi.obj
 0003:00058ce8       ??_C@_03FHEAOHAD@?$DP?$DP9?$AA@ 00636da8     d3d8d:rdi.obj
 0003:00058cec       ??_C@_03EOFLNGEC@?$DP?$DP8?$AA@ 00636dac     d3d8d:rdi.obj
 0003:00058cf0       ??_C@_03KDBOCEAF@lit?$AA@  00636db0     d3d8d:rdi.obj
 0003:00058cf4       ??_C@_03MGHMBJCF@log?$AA@  00636db4     d3d8d:rdi.obj
 0003:00058cf8       ??_C@_03KHJOGHMM@exp?$AA@  00636db8     d3d8d:rdi.obj
 0003:00058cfc       ??_C@_03HPBONGEK@rsq?$AA@  00636dbc     d3d8d:rdi.obj
 0003:00058d00       ??_C@_03BLMMAFOJ@rcc?$AA@  00636dc0     d3d8d:rdi.obj
 0003:00058d04       ??_C@_03HKCDEEHL@rcp?$AA@  00636dc4     d3d8d:rdi.obj
 0003:00058d08       ??_C@_03CNBJFNFA@mov?$AA@  00636dc8     d3d8d:rdi.obj
 0003:00058d0c       ??_C@_03GJPGFFDI@nop?$AA@  00636dcc     d3d8d:rdi.obj
 0003:00058d4c       ??_C@_07GCIIAIGF@?$CFli?4?$CFs?5?$AA@ 00636e0c     d3d8d:rdi.obj
 0003:00058d58       ??_C@_05KKCIMGE@error?$AA@ 00636e18     d3d8d:rdi.obj
 0003:00058d60       ??_C@_04GHFHNDFH@?4xyz?$AA@ 00636e20     d3d8d:rdi.obj
 0003:00058d68       ??_C@_04NCPJKNBK@?4xyw?$AA@ 00636e28     d3d8d:rdi.obj
 0003:00058d70       ??_C@_03DKEJADLJ@?4xy?$AA@ 00636e30     d3d8d:rdi.obj
 0003:00058d74       ??_C@_04NALPBDED@?4xzw?$AA@ 00636e34     d3d8d:rdi.obj
 0003:00058d7c       ??_C@_03BBGEFAHK@?4xz?$AA@ 00636e3c     d3d8d:rdi.obj
 0003:00058d80       ??_C@_03KEMKCODH@?4xw?$AA@ 00636e40     d3d8d:rdi.obj
 0003:00058d84       ??_C@_02NFILLOPJ@?4x?$AA@  00636e44     d3d8d:rdi.obj
 0003:00058d88       ??_C@_04GIADHECG@?4yzw?$AA@ 00636e48     d3d8d:rdi.obj
 0003:00058d90       ??_C@_03BAKGDKEN@?4yz?$AA@ 00636e50     d3d8d:rdi.obj
 0003:00058d94       ??_C@_03KFAIEEAA@?4yw?$AA@ 00636e54     d3d8d:rdi.obj
 0003:00058d98       ??_C@_02MMJAIPLI@?4y?$AA@  00636e58     d3d8d:rdi.obj
 0003:00058d9c       ??_C@_03KHEOPKFJ@?4zw?$AA@ 00636e5c     d3d8d:rdi.obj
 0003:00058da0       ??_C@_02OHLNNMHL@?4z?$AA@  00636e60     d3d8d:rdi.obj
 0003:00058da4       ??_C@_02FCBDKCDG@?4w?$AA@  00636e64     d3d8d:rdi.obj
 0003:00058da8       ??_C@_05IBPNLFHH@?4null?$AA@ 00636e68     d3d8d:rdi.obj
 0003:00058db0       ??_C@_01OGPIMHDM@?$DP?$AA@ 00636e70     d3d8d:rdi.obj
 0003:00058db4       ??_C@_03NIAIBAHI@?$DPo2?$AA@ 00636e74     d3d8d:rdi.obj
 0003:00058db8       ??_C@_03PDCFEDLL@?$DPo1?$AA@ 00636e78     d3d8d:rdi.obj
 0003:00058dbc       ??_C@_07NNELAGMK@c?$FL?$CFd?$FN?$CFs?$AA@ 00636e7c     d3d8d:rdi.obj
 0003:00058dc8       ??_C@_03OOAAEEIB@?4?$CFc?$AA@ 00636e88     d3d8d:rdi.obj
 0003:00058dcc       ??_C@_09JIOCOLGH@?4?$CFc?$CFc?$CFc?$CFc?$AA@ 00636e8c     d3d8d:rdi.obj
 0003:00058de0       ??_C@_02DPKJAMEF@?$CFd?$AA@ 00636ea0     d3d8d:rdi.obj
 0003:00058de4       ??_C@_04KBDJOJNB@?$FL?$CFd?$FN?$AA@ 00636ea4     d3d8d:rdi.obj
 0003:00058dec       ??_C@_05EAMLCGKJ@a0?4x?$CL?$AA@ 00636eac     d3d8d:rdi.obj
 0003:00058df4       ??_C@_02HAOIJKIC@?$CFc?$AA@ 00636eb4     d3d8d:rdi.obj
 0003:00058e00       ??_C@_01JOAMLHOP@?9?$AA@   00636ec0     d3d8d:rdi.obj
 0003:00058e04       ??_C@_06HNFCNFHD@?$DL?5?$CFs?5?6?$AA@ 00636ec4     d3d8d:rdi.obj
 0003:00058e0c       ??_C@_07FACBJMFL@?$CK?5eos?5?$CK?$AA@ 00636ecc     d3d8d:rdi.obj
 0003:00058e18       ??_C@_05CDJMJPEC@?6?5?5?5?5?$AA@ 00636ed8     d3d8d:rdi.obj
 0003:00058e20       ??_C@_01CELHOKLL@?$HN?$AA@ 00636ee0     d3d8d:rdi.obj
 0003:00058e24       ??_C@_05IPCGJMII@r?$CFd?$CFs?$AA@ 00636ee4     d3d8d:rdi.obj
 0003:00058e2c       ??_C@_02KEGNLNML@?0?5?$AA@ 00636eec     d3d8d:rdi.obj
 0003:00058e30       ??_C@_04LIJBDGKK@a0?4x?$AA@ 00636ef0     d3d8d:rdi.obj
 0003:00058e38       ??_C@_01HCONENDN@?$HL?$AA@ 00636ef8     d3d8d:rdi.obj
 0003:00058e3c       ??_C@_03IKGEINEE@?$CFs?5?$AA@ 00636efc     d3d8d:rdi.obj
 0003:00058e40       ??_C@_0CB@PDNGEFEK@SizeOfData?5must?5be?5multiple?5of?54@ 00636f00     d3d8d:rdi.obj
 0003:00058e68       ??_C@_0CC@PLBKGEKH@?5?5mask?3?50x?$CF08lx?5?5unused?3?50x?$CF08lx@ 00636f28     d3d8d:rdi.obj
 0003:00058e90       ??_C@_07DNLILAEP@?5?5t?$CFd?3?5?$AA@ 00636f50     d3d8d:rdi.obj
 0003:00058e9c       ??_C@_0BD@DJGJCJOI@?5?5ptsize?3?50x?$CF08lx?6?$AA@ 00636f5c     d3d8d:rdi.obj
 0003:00058eb4       ??_C@_08JBCBNKKO@0x?$CF08lx?6?$AA@ 00636f74     d3d8d:rdi.obj
 0003:00058ec0       ??_C@_07HDFAPMNJ@?5?5fog?3?5?$AA@ 00636f80     d3d8d:rdi.obj
 0003:00058ecc       ??_C@_0CC@BJOMKCID@?5?5bdiff?3?50x?$CF08lx?5?5bspec?3?50x?$CF08lx@ 00636f8c     d3d8d:rdi.obj
 0003:00058ef4       ??_C@_0CA@LIANPMKC@?5?5diff?3?50x?$CF08lx?5?5spec?3?50x?$CF08lx?6?$AA@ 00636fb4     d3d8d:rdi.obj
 0003:00058f1c       ??_C@_0CM@DGIHOJFI@?5?5xyzw?3?50x?$CF08lx?0?50x?$CF08lx?0?50x?$CF08l@ 00636fdc     d3d8d:rdi.obj
 0003:00058f50       ??_C@_08GICJONEO@?5?5xyzw?3?5?$AA@ 00637010     d3d8d:rdi.obj
 0003:00058f5c       ??_C@_03PMGGPEJJ@?$CFd?6?$AA@ 0063701c     d3d8d:rdi.obj
 0003:00058f60       ??_C@_06BGAHNFGK@?$CF?53d?3?5?$AA@ 00637020     d3d8d:rdi.obj
 0003:00058f68       ??_C@_06BFNBNHPB@?$CF03d?3?5?$AA@ 00637028     d3d8d:rdi.obj
 0003:00058f70       ??_C@_02MNMNLDAI@?$CJ?6?$AA@ 00637030     d3d8d:rdi.obj
 0003:00058f74       ??_C@_07MHOPGIIE@?6?5?5?5?5?5?$CI?$AA@ 00637034     d3d8d:rdi.obj
 0003:00058f80       ??_C@_08POEKBGIG@0x?$CF08lx?5?$AA@ 00637040     d3d8d:rdi.obj
 0003:00058f8c       ??_C@_06CILBPOEB@?$CF02d?3?5?$AA@ 0063704c     d3d8d:rdi.obj
 0003:00058f94       ??_C@_08KELJJJDE@?50x?$CF08lx?$AA@ 00637054     d3d8d:rdi.obj
 0003:00058fa0       ??_C@_0L@BDMJMANI@?5?5unknown?3?$AA@ 00637060     d3d8d:rdi.obj
 0003:00058fb0       ??_C@_0BK@OLJFMPJP@?5?5z?3?50x?$CF08lx?5?5w?3?50x?$CF08lx?6?$AA@ 00637070     d3d8d:rdi.obj
 0003:00058fd0       ??_C@_07LGLFBKHC@CAS?5?$CFd?6?$AA@ 00637090     d3d8d:rdi.obj
 0003:0005900c       ??_C@_0BA@FGEDNAFM@?$CISize?5?$CG?53?$CJ?5?$DN?$DN?50?$AA@ 006370cc     d3d8d:recorder.obj
 0003:00059020       ??_C@_0BM@CENHKOMM@KickoffFence?5?$DO?$DN?5ModifyFence?$AA@ 006370e0     d3d8d:recorder.obj
 0003:00059044       ??_C@_0DA@CJFIDPIN@?6?$DO?$DO?5Method?3?50x?$CFlx?5?5Got?3?50x?$CFlx?5?5E@ 00637104     d3d8d:recorder.obj
 0003:00059080       ??_C@_0CG@CMMFNMJM@encodedMethod?5?$DM?$DN?5sizeof?$CIg_ParseS@ 00637140     d3d8d:recorder.obj
 0003:000590b0       ??_C@_0CB@KPGGLOHD@?$CB?$CI?$CKp?5?$CG?5D3DPUSH_NOINCREMENT_FLAG?$CJ@ 00637170     d3d8d:recorder.obj
 0003:000590d8       ??_C@_0DH@GADGJMOM@GPU?5references?5an?5unmapped?5page?4@ 00637198     d3d8d:recorder.obj
 0003:0005911c       ??_C@_0BH@GPPJKEBH@?$CI?$CI?$CIDWORD?$CJ?5p?$CJ?5?$CG?57?$CJ?5?$DN?$DN?50?$AA@ 006371dc     d3d8d:recorder.obj
 0003:00059138       ??_C@_0CG@DNKNBKEL@Unexpected?5floating?5point?5precis@ 006371f8     d3d8d:recorder.obj
 0003:00059168       ??_C@_0BA@FOKPLGKO@dwordCount?5?$CB?$DN?50?$AA@ 00637228     d3d8d:recorder.obj
 0003:0005917c       ??_C@_03JNGMJJJL@?4pb?$AA@ 0063723c     d3d8d:recorder.obj
 0003:00059180       ??_C@_01KICIPPFI@?2?$AA@   00637240     d3d8d:recorder.obj
 0003:00059188       ??_C@_0FP@EMEFIAOC@D3DPERF_StartPushBufferCapture?3?5@ 00637248     d3d8d:recorder.obj
 0003:000591fc       ??_C@_0DE@BANDAMNJ@D3DPERF_StartPushBufferCapture?3?5@ 006372bc     d3d8d:recorder.obj
 0003:0005923c       ??_C@_0BL@MBGEBLDD@?6Done?5push?9buffer?5capture?6?$AA@ 006372fc     d3d8d:recorder.obj
 0003:0005925c       ??_C@_0DF@BLPGBBMN@D3DPERF_StopPushBufferCapture?3?5C@ 0063731c     d3d8d:recorder.obj
 0003:0005929c       ??_C@_0DJ@BNIIHIFL@D3DPERF_StopPushBufferCapture?3?5D@ 0063735c     d3d8d:recorder.obj
 0003:000592e0       ??_C@_0DM@GIIDAPD@D3DPERF_StopPushBufferCapture?3?5O@ 006373a0     d3d8d:recorder.obj
 0003:00059328       ??_C@_0DC@GHHLIFGH@D3DPERF_StopPushBufferCapture?3?5W@ 006373e8     d3d8d:recorder.obj
 0003:00059364       ??_C@_0BE@IHKFBKFA@Flags?5must?5be?5zero?6?$AA@ 00637424     d3d8d:recorder.obj
 0003:0005937c       ??_C@_0CD@LJPOEPAC@Couldn?8t?5find?5Kelvin?5method?50x?$CFl@ 0063743c     d3d8d:recorder.obj
 0003:000593a8       ??_C@_0M@DCLLLGMI@End?5?$DO?5Start?$AA@ 00637468     d3d8d:recorder.obj
 0003:000593b8       ??_C@_0CE@ICKIFDJO@?$CIEnd?5?$DO?$DN?50?$CJ?5?$CG?$CG?5?$CIEnd?5?$DM?$DN?5TOTAL_MEMO@ 00637478     d3d8d:recorder.obj
 0003:000593e4       ??_C@_0CH@KIKNLFEJ@?$CIStart?5?$DO?$DN?50?$CJ?5?$CG?$CG?5?$CIStart?5?$DM?5TOTAL_M@ 006374a4     d3d8d:recorder.obj
 0003:00059414       ??_C@_0DH@DEOMMBO@?$CIstartUntiled?5?$DO?$DN?5startTile?$CJ?5?$CG?$CG?5?$CI@ 006374d4     d3d8d:recorder.obj
 0003:00059458       ??_C@_0BK@FCNHNHGN@startUntiled?5?$DM?5endUntiled?$AA@ 00637518     d3d8d:recorder.obj
 0003:00059478       ??_C@_0CH@DOHAPKGH@MarkPages?3?5Invalid?5end?4?5?5Adjusti@ 00637538     d3d8d:recorder.obj
 0003:000594a8       ??_C@_0CG@NEKHAIJL@MarkPages?3?5Empty?5range?4?5?5Skippin@ 00637568     d3d8d:recorder.obj
 0003:000594d8       ??_C@_0CF@ELFBLFNO@MarkPages?3?5Empty?5size?4?5?5Skipping@ 00637598     d3d8d:recorder.obj
 0003:00059504       ??_C@_0BO@KHDNMGBC@offset?5?$CL?5size?5?$DM?$DN?5TOTAL_MEMORY?$AA@ 006375c4     d3d8d:recorder.obj
 0003:00059528       ??_C@_0BF@CCEJCCIL@size?5?$DM?$DN?5TOTAL_MEMORY?$AA@ 006375e8     d3d8d:recorder.obj
 0003:00059544       ??_C@_0BG@PANFGKGJ@offset?5?$DM?5TOTAL_MEMORY?$AA@ 00637604     d3d8d:recorder.obj
 0003:00059560       ??_C@_0BM@LJCIBMPE@m_Fence?5?$DM?$DN?5FLAGSFENCE_FENCE?$AA@ 00637620     d3d8d:recorder.obj
 0003:00059584       ??_C@_0BI@DLNNPGI@Unexpected?5CRC?5failure?6?$AA@ 00637644     d3d8d:recorder.obj
 0003:000595a0       ??_C@_0FF@EDGAGHJK@attributeSize?5?$DN?$DN?5g_UnitsOfElemen@ 00637660     d3d8d:recorder.obj
 0003:00059608       ??_C@_0BH@ICOMLIIE@minVertex?5?$DM?$DN?5maxVertex?$AA@ 006376c8     d3d8d:recorder.obj
 0003:00059624       ??_C@_0DJ@IHDCHHNN@Unexpected?5push?9buffer?5encoding?5@ 006376e4     d3d8d:recorder.obj
 0003:00059668       ??_C@_09NEMJFDJH@push?5?$CB?$DN?50?$AA@ 00637728     d3d8d:recorder.obj
 0003:00059674       ??_C@_0BD@GDJFLNOO@size?5?$DM?$DN?5bufferSize?$AA@ 00637734     d3d8d:recorder.obj
 0003:0005968c       ??_C@_0CD@FPPPLKHI@pBuffer?5?$CL?52?5?$DM?$DN?5?$CGbuffer?$FLbufferSiz@ 0063774c     d3d8d:recorder.obj
 0003:000596b8       ??_C@_0CD@BMJGAIN@pBuffer?5?$CL?57?5?$DM?$DN?5?$CGbuffer?$FLbufferSiz@ 00637778     d3d8d:recorder.obj
 0003:000596e4       ??_C@_0M@FNCCFNIH@count?5?$DM?$DN?516?$AA@ 006377a4     d3d8d:recorder.obj
 0003:000596f4       ??_C@_0CD@GKBCAMCL@pBuffer?5?$CL?51?5?$DM?$DN?5?$CGbuffer?$FLbufferSiz@ 006377b4     d3d8d:recorder.obj
 0003:00059720       ??_C@_0BP@IEOFFDHF@pBuffer?5?$DM?$DN?5?$CGbuffer?$FLbufferSize?$FN?$AA@ 006377e0     d3d8d:recorder.obj
 0003:00059748       ??_C@_0CD@JBKPEGNA@pBuffer?5?$CL?55?5?$DM?$DN?5?$CGbuffer?$FLbufferSiz@ 00637808     d3d8d:recorder.obj
 0003:00059774       ??_C@_09LOCCNJNA@?$CBIsBusy?$CI?$CJ?$AA@ 00637834     d3d8d:recorder.obj
 0003:00059780       ??_C@_0BO@KLBLNLFB@pBuffer?5?$DM?5?$CGbuffer?$FLbufferSize?$FN?$AA@ 00637840     d3d8d:recorder.obj
 0003:000597a4       ??_C@_0BN@OALEKGAE@Starting?5push?9buffer?5capture?$AA@ 00637864     d3d8d:recorder.obj
 0003:000597c8       ??_C@_0P@GBGEEICI@?$CBm_Initialized?$AA@ 00637888     d3d8d:recorder.obj
 0003:000597dc       ??_C@_01LFCBOECM@?4?$AA@   0063789c     d3d8d:recorder.obj
 0003:00059900       ??_C@_09FBGPICKC@CopyRects?$AA@ 006379c0     d3d8d:pushres.obj
 0003:0005990c       ??_C@_0BC@JNDDCMEE@EndVisibilityTest?$AA@ 006379cc     d3d8d:pushres.obj
 0003:00059924       ??_C@_0L@BGIJEDPF@SetPalette?$AA@ 006379e4     d3d8d:pushres.obj
 0003:00059934       ??_C@_0L@BPHKIMHE@SetTexture?$AA@ 006379f4     d3d8d:pushres.obj
 0003:00059944       ??_C@_0BF@MPBJCMNM@SetVertexShaderInput?$AA@ 00637a04     d3d8d:pushres.obj
 0003:00059960       ??_C@_0BA@LPDJAFGN@SetRenderTarget?$AA@ 00637a20     d3d8d:pushres.obj
 0003:00059974       ??_C@_0DA@PPHGBEMF@flagsAndReturnOffset?5?$CG?5PUSHER_FI@ 00637a34     d3d8d:pushres.obj
 0003:000599b0       ??_C@_0EH@JCHLKMMC@FixupPushBuffer?3?5Bad?5RunPushBuff@ 00637a70     d3d8d:pushres.obj
 0003:00059a08       ??_C@_0O@IAAFFPOB@g_FixupActive?$AA@ 00637ac8     d3d8d:pushres.obj
 0003:00059a18       ??_C@_0CN@BJILCOCF@?$CIisRaw?$CJ?5?$HM?$HM?5?$CIg_FixupCount?5?$DN?$DN?5g_Or@ 00637ad8     d3d8d:pushres.obj
 0003:00059a50       ??_C@_0JJ@KEMMOKCH@The?5fix?9up?5signature?5doesn?8t?5mat@ 00637b10     d3d8d:pushres.obj
 0003:00059b08       ??_C@_0BH@LAEABJMM@pFixup?5?$DN?$DN?5g_pNextFixup?$AA@ 00637bc8     d3d8d:pushres.obj
 0003:00059b24       ??_C@_0P@LHFDMALH@?$CBg_FixupActive?$AA@ 00637be4     d3d8d:pushres.obj
 0003:00059b38       ??_C@_0CM@KKOHOLAP@Specified?5offset?5is?5larger?5than?5@ 00637bf8     d3d8d:pushres.obj
 0003:00059b6c       ??_C@_0CI@PNPPNAJG@Push?9buffer?5?8Size?8?5not?5a?5dword?5m@ 00637c2c     d3d8d:pushres.obj
 0003:00059b9c       ??_C@_0DC@BMCDJPKB@Zero?5push?9buffer?5?8Size?8?5?$CImaybe?5f@ 00637c5c     d3d8d:pushres.obj
 0003:00059bd8       ??_C@_0DH@GDPFLFKD@Fix?9up?5routine?5called?5without?5fi@ 00637c98     d3d8d:pushres.obj
 0003:00059c20       ??_C@_0EH@NAPDHEDO@NULL?5D3DVERTEXATTRIBUTEFORMAT?5is@ 00637ce0     d3d8d:pushres.obj
 0003:00059c78       ??_C@_0BA@LADIBKBA@totalCount?5?$DN?$DN?50?$AA@ 00637d38     d3d8d:pushres.obj
 0003:00059c90       ??_C@_0GD@ONNILJOM@Requested?5render?5state?5is?5not?5si@ 00637d50     d3d8d:pushres.obj
 0003:00059d08       ??_C@_0EC@IALPCDLO@D3DPushBuffer_Verify?3?5Unresolved@ 00637dc8     d3d8d:pushres.obj
 0003:00059d58       ??_C@_0EG@HJJNBLEI@D3DPushBuffer_Verify?3?5Unresolved@ 00637e18     d3d8d:pushres.obj
 0003:00059db0       ??_C@_0EP@JAJFLLAK@D3DPushBuffer_Verify?3?5Unexpected@ 00637e70     d3d8d:pushres.obj
 0003:00059e10       ??_C@_0EP@CDJKLMGI@D3DPushBuffer_Verify?3?5Unresolved@ 00637ed0     d3d8d:pushres.obj
 0003:00059e70       ??_C@_0BB@KMGJBADK@instruction?5?$CB?$DN?51?$AA@ 00637f30     d3d8d:pushres.obj
 0003:00059e84       ??_C@_0CB@NKBLPGBO@Invalid?5value?5for?5StampResources@ 00637f44     d3d8d:pushres.obj
 0003:00059eac       ??_C@_0CJ@CJLBKIFE@Can?8t?5Reset?5while?5in?5a?5Begin?1End@ 00637f6c     d3d8d:pushres.obj
 0003:00059ee0       ??_C@_0DF@LAPNGPBL@BeginFixup?5called?5twice?5with?5no?5@ 00637fa0     d3d8d:pushres.obj
 0003:00059f20       ??_C@_0DG@PLCMNNPL@Fixup?5object?5already?5in?5a?5BeginF@ 00637fe0     d3d8d:pushres.obj
 0003:00059f60       ??_C@_0DM@MKNOJFGD@Can?8t?5have?5more?5than?5one?5BeginFi@ 00638020     d3d8d:pushres.obj
 0003:00059fa8       ??_C@_0BJ@BNHGHAJH@Invalid?5value?5for?5NoWait?$AA@ 00638068     d3d8d:pushres.obj
 0003:00059fc8       ??_C@_0BN@NPBMLLDH@End?5without?5a?5matching?5Begin?$AA@ 00638088     d3d8d:pushres.obj
 0003:00059fec       ??_C@_0DB@LNFKILKN@EndFixup?5called?5without?5first?5ca@ 006380ac     d3d8d:pushres.obj
 0003:0005a028       ??_C@_0GE@PFPMKCGH@D3DPUSHBUFFER_RUN_USING_CPU_COPY@ 006380e8     d3d8d:pushres.obj
 0003:0005a0a0       ??_C@_0DM@CFDLIMIG@AssertWriteCombined?5?9?5the?5addres@ 00638160     d3d8d:pushres.obj
 0003:0005a0e8       ??_C@_0CD@LJIKMBKO@Not?5in?5order?5of?5increasing?5offse@ 006381a8     d3d8d:pushres.obj
 0003:0005a114       ??_C@_0CP@EINBOIDP@Offset?5in?5?8Fixup?8?5larger?5than?5pu@ 006381d4     d3d8d:pushres.obj
 0003:0005a14c       ??_C@_0CD@GKCNHGNH@Non?9dword?9multiple?5size?5in?5?8Fixu@ 0063820c     d3d8d:pushres.obj
 0003:0005a178       ??_C@_0CE@LAHGFNK@Non?9dword?9aligned?5offset?5in?5?8Fix@ 00638238     d3d8d:pushres.obj
 0003:0005a1a4       ??_C@_0CN@MCIFFBBD@Size?5in?5?8Fixup?8?5larger?5than?5push@ 00638264     d3d8d:pushres.obj
 0003:0005a1dc       ??_C@_0CA@MCMCNHBE@Can?8t?5have?5empty?5fix?9up?5buffers?$AA@ 0063829c     d3d8d:pushres.obj
 0003:0005a204       ??_C@_0CM@GIEFGCOC@The?5last?5fix?9up?5overflowed?5the?5F@ 006382c4     d3d8d:pushres.obj
 0003:0005a238       ??_C@_0FF@FANJAFCH@Can?8t?5RunPushBuffer?5with?5a?5Fixup@ 006382f8     d3d8d:pushres.obj
 0003:0005a2a0       ??_C@_0IE@IEOAKGLM@D3DPUSHBUFFER_RUN_USING_CPU_COPY@ 00638360     d3d8d:pushres.obj
 0003:0005a340       ??_C@_0GB@KDEDAJLH@Push?9buffer?5size?5too?5small?5or?5fi@ 00638400     d3d8d:pushres.obj
 0003:0005a3b4       ??_C@_0CC@CAJCMLPK@Invalid?5value?5for?5RunUsingCpuCop@ 00638474     d3d8d:pushres.obj
 0003:0005a3dc       ??_C@_0CP@BOICJIPA@Buffer?5allocation?5size?5must?5be?5a@ 0063849c     d3d8d:pushres.obj
 0003:0005a414       ??_C@_0DI@CCMAJOBK@?$CB?$CIpDevice?9?$DOm_StateFlags?5?$CG?5STATE_@ 006384d4     d3d8d:pushres.obj
 0003:0005a458       ??_C@_0FB@PBFNEDGK@Can?8t?5call?5BeginPushBuffer?5when?5@ 00638518     d3d8d:pushres.obj
 0003:0005a4c0       ??_C@_0FA@DCFBEAA@Buffer?5size?5?$CIAllocationSize?$CJ?5mus@ 00638580     d3d8d:pushres.obj
 0003:0005a520       ??_C@_0DH@EDJLEGFH@Already?5recording?5a?5push?9buffer?0@ 006385e0     d3d8d:pushres.obj
 0003:0005a564       ??_C@_0DH@CBFJFJON@Buffer?5pointer?5can?8t?5be?5NULL?5and@ 00638624     d3d8d:pushres.obj
 0003:0005a5a8       ??_C@_0JD@BOJHCPEE@?$CIpDevice?9?$DOm_pPushBufferRecordRes@ 00638668     d3d8d:pushres.obj
 0003:0005a658       ??_C@_0EA@GFMIGBDO@Can?8t?5call?5EndPushBuffer?5without@ 00638718     d3d8d:pushres.obj
 0003:0005a6a8       ??_C@_0EF@NBLMHLHF@GetPushBufferOffset?5can?5only?5be?5@ 00638768     d3d8d:pushres.obj
 0003:0005a700       ??_C@_0FJ@IOGPOGIB@Signature?5mismatch?5?9?5Offset?5or?5p@ 006387c0     d3d8d:pushres.obj
 0003:0005a770       ??_C@_0GC@EICFMLGF@Can?8t?5handle?5D3DPUSHBUFFER_RUN_U@ 00638830     d3d8d:pushres.obj
 0003:0005a7e8       ??_C@_0CI@ILMNLLEJ@Stream?5count?5can?8t?5be?50?5or?5more?5@ 006388a8     d3d8d:pushres.obj
 0003:0005a818       ??_C@_0CD@KKHDCMKC@No?5z?9buffer?5now?5but?5was?5one?5befo@ 006388d8     d3d8d:pushres.obj
 0003:0005a844       ??_C@_0BP@CNNLCOK@Z?9buffer?5now?5but?5wasn?8t?5before?$AA@ 00638904     d3d8d:pushres.obj
 0003:0005a86c       ??_C@_0P@KICNECLF@Pitch?5mismatch?$AA@ 0063892c     d3d8d:pushres.obj
 0003:0005a880       ??_C@_0CD@FCNMPAJ@New?5texture?5type?5doesn?8t?5match?5o@ 00638940     d3d8d:pushres.obj
 0003:0005a8ac       ??_C@_0BK@JHIIBCPL@Can?8t?5take?5a?5NULL?5texture?$AA@ 0063896c     d3d8d:pushres.obj
 0003:0005a8cc       ??_C@_0DJ@MHFCBLOM@Offset?5signature?5is?5neither?5a?5NO@ 0063898c     d3d8d:pushres.obj
 0003:0005a910       ??_C@_0DJ@EAHBDDG@Can?8t?5do?5a?5SetJump?5when?5D3DPUSHB@ 006389d0     d3d8d:pushres.obj
 0003:0005a954       ??_C@_0BC@FMCFJCBF@m_InstMem?5?$CB?$DN?5NULL?$AA@ 00638a14     d3d8d:mphal.obj
 0003:0005a96c       ??_C@_0CN@IGGMMKLM@REG_RD_DRF?$CIregbase?0?5_PFB?0?5_CFG0?0@ 00638a2c     d3d8d:mphal.obj
 0003:0005a9a4       ??_C@_0BG@PPPBDABK@MP?3?5M?5PLL?5not?5locked?6?$AA@ 00638a64     d3d8d:mphal.obj
 0003:0005a9c0       ??_C@_0BD@FLEEGCAC@Setting?5MClk?5to?5?$CFd?$AA@ 00638a80     d3d8d:mphal.obj
 0003:0005a9d8       ??_C@_0BH@NJFAOHIL@MP?3?5NV?5PLL?5not?5locked?6?$AA@ 00638a98     d3d8d:mphal.obj
 0003:0005a9f4       ??_C@_0BF@MMLCEFE@MP?3?5VPLL?5not?5locked?6?$AA@ 00638ab4     d3d8d:mphal.obj
 0003:0005aa10       ??_C@_0CA@PNDPOLDD@m_HalInfo?4GrCtxTable?$FLChID?$FN?5?$DN?$DN?50?$AA@ 00638ad0     d3d8d:mphal.obj
 0003:0005aa38       ??_C@_0DD@BHANLCI@INST_RD32?$CIRegisterBase?0?5grCtxTab@ 00638af8     d3d8d:mphal.obj
 0003:0005aa78       ??_C@_0CG@MHKNMBGB@entry?5?$CK?5sizeof?$CIHW_HASHENTRY?$CJ?5?$DM?50@ 00638b38     d3d8d:mphal.obj
 0003:0005aaa8       ??_C@_0BC@MDGHFKBB@Unexpected?5class?6?$AA@ 00638b68     d3d8d:mphal.obj
 0003:0005aac0       ??_C@_0CO@BOENDAC@m_HalInfo?4GrChID?5?$CB?$DN?5?$CIULONG?$CJm_Hal@ 00638b80     d3d8d:mphal.obj
 0003:0005aaf8       ??_C@_0FK@LLLGLMOI@offset?5?$CL?54?5?$DN?$DN?5?$CIsizeof?$CIGRCTX3D_NV@ 00638bb8     d3d8d:mphal.obj
 0003:0005ab68       ??_C@_0FG@JOPCGLCF@REG_RD32?$CIRegisterBase?0?5NV_PFB_TS@ 00638c28     d3d8d:mphal.obj
 0003:0005abd0       ??_C@_0FI@FHIAIKBD@REG_RD32?$CIRegisterBase?0?5NV_PFB_TL@ 00638c90     d3d8d:mphal.obj
 0003:0005ac40       ??_C@_0FE@JAOOMINB@REG_RD32?$CIRegisterBase?0?5NV_PFB_TI@ 00638d00     d3d8d:mphal.obj
 0003:0005aca4       ??_C@_0BL@MCMEKHMO@Unexpected?5color?5argument?6?$AA@ 00638d64     d3d8d:combiner.obj
 0003:0005acc8       ??_C@_0EE@IMMGKBJA@?$CIstage?5?$DM?53?$CJ?5?$CG?$CG?5?$CID3D__TextureStat@ 00638d88     d3d8d:combiner.obj
 0003:0005ad20       ??_C@_0EL@CIDPOGPC@D3DTOP_BUMPENVMAP?5requires?5a?5tex@ 00638de0     d3d8d:combiner.obj
 0003:0005ad7c       ??_C@_0P@LJPINCNI@Unexpected?5OP?6?$AA@ 00638e3c     d3d8d:combiner.obj
 0003:0005ad90       ??_C@_0CH@HOGGLPIK@?$CIusedStages?5?$DO?$DN?51?$CJ?5?$CG?$CG?5?$CIusedStages@ 00638e50     d3d8d:combiner.obj
 0003:0005adc0       ??_C@_0BG@GKGGGOBL@Illegal?5ALPHAOP?3?5?$CFli?6?$AA@ 00638e80     d3d8d:combiner.obj
 0003:0005ade0       ??_C@_0HK@NMMKDMNE@Point?5sprites?5are?5enabled?5but?5no@ 00638ea0     d3d8d:combiner.obj
 0003:0005ae74       ?g_VertexTextureStates@D3D@@3QBEB 00638f34     d3d8d:block.obj
 0003:0005ae78       ?g_VertexRenderStates@D3D@@3QBEB 00638f38     d3d8d:block.obj
 0003:0005aea0       ?g_PixelTextureStates@D3D@@3QBEB 00638f60     d3d8d:block.obj
 0003:0005aec0       ?g_PixelRenderStates@D3D@@3QBEB 00638f80     d3d8d:block.obj
 0003:0005aee8       ??_C@_0DK@HMKJIBKB@Already?5in?5the?5state?5record?5mode@ 00638fa8     d3d8d:block.obj
 0003:0005af30       ??_C@_0CK@KMJMPNAA@Can?8t?5use?5state?5blocks?5with?5a?5pu@ 00638ff0     d3d8d:block.obj
 0003:0005af64       ??_C@_0BK@BFGEFKPE@pData?5?$DN?$DN?5pBlock?9?$DOpDataEnd?$AA@ 00639024     d3d8d:block.obj
 0003:0005af84       ??_C@_0CM@MKJNGBLI@pDirty?5?$DN?$DN?5?$CGD3D__StateBlockDirty?$FL@ 00639044     d3d8d:block.obj
 0003:0005afb8       ??_C@_0DF@JIKGNMJF@pDirty?5?$DN?$DN?5?$CGD3D__StateBlockDirty?$FL@ 00639078     d3d8d:block.obj
 0003:0005aff8       ??_C@_0DB@CFPFPLBD@pDirty?5?$DN?$DN?5?$CGD3D__StateBlockDirty?$FL@ 006390b8     d3d8d:block.obj
 0003:0005b034       ??_C@_0DB@JDCCMBFE@pDirty?5?$DN?$DN?5?$CGD3D__StateBlockDirty?$FL@ 006390f4     d3d8d:block.obj
 0003:0005b070       ??_C@_0DD@EADJDCKO@pDirty?5?$DN?$DN?5?$CGD3D__StateBlockDirty?$FL@ 00639130     d3d8d:block.obj
 0003:0005b0b0       ??_C@_0DG@FEEIPBIC@pDirty?5?$DN?$DN?5?$CGD3D__StateBlockDirty?$FL@ 00639170     d3d8d:block.obj
 0003:0005b0f0       ??_C@_0DF@PLCGIPHI@pDirty?5?$DN?$DN?5?$CGD3D__StateBlockDirty?$FL@ 006391b0     d3d8d:block.obj
 0003:0005b130       ??_C@_0DO@KPKPBIJK@pDirty?5?$DN?$DN?5?$CGD3D__StateBlockDirty?$FL@ 006391f0     d3d8d:block.obj
 0003:0005b17c       ??_C@_0DN@PFCBHHFK@pDirty?5?$DN?$DN?5?$CGD3D__StateBlockDirty?$FL@ 0063923c     d3d8d:block.obj
 0003:0005b1c8       ??_C@_0DA@FICDCDGG@pDirty?5?$DN?$DN?5?$CGD3D__StateBlockDirty?$FL@ 00639288     d3d8d:block.obj
 0003:0005b204       ??_C@_0DA@EAAONEGK@pDirty?5?$DN?$DN?5?$CGD3D__StateBlockDirty?$FL@ 006392c4     d3d8d:block.obj
 0003:0005b240       ??_C@_0DF@BBBMOFEE@pDirty?5?$DN?$DN?5?$CGD3D__StateBlockDirty?$FL@ 00639300     d3d8d:block.obj
 0003:0005b280       ??_C@_0DE@NKKKGHEC@pDirty?5?$DN?$DN?5?$CGD3D__StateBlockDirty?$FL@ 00639340     d3d8d:block.obj
 0003:0005b2c0       ??_C@_0CO@ECBIIAPA@Invalid?5state?5block?5object?5?$CIalre@ 00639380     d3d8d:block.obj
 0003:0005b2f8       ??_C@_0P@BENLGHBI@NULL?5parameter?$AA@ 006393b8     d3d8d:block.obj
 0003:0005b30c       ??_C@_0BH@GNKAGGOO@Invalid?5Type?5parameter?$AA@ 006393cc     d3d8d:block.obj
 0003:0005b328       ??_C@_0BL@GCCGNMPA@Type?5?$DN?$DN?5D3DSBT_VERTEXSTATE?$AA@ 006393e8     d3d8d:block.obj
 0003:0005b348       ??_C@_0FC@KHPFBOPM@Cannot?5create?5state?5block?5when?5i@ 00639408     d3d8d:block.obj
 0003:0005b3ac       ??_C@_0DA@FBFMADDB@Not?5in?5state?5record?5mode?4?5EndSta@ 0063946c     d3d8d:block.obj
 0003:0005b3e8       ??_C@_0CB@FAOCGAFD@Resume?5failed?0?5not?5enough?5memory@ 006394a8     d3d8d:block.obj
 0003:0005b410       ??_C@_0CH@DCFLBNBP@Only?5TRUE?5or?5FALSE?5are?5valid?5arg@ 006394d0     d3d8d:block.obj
 0003:0005dd70       ?g_WarnAboutCopyRectStateSwizzle@D3D@@3HA 0063be30     d3d8d:state.obj
 0003:0005dd74       ?g_WarnedAboutStencil@D3D@@3HA 0063be34     d3d8d:state.obj
 0003:0005dd78       ?g_StencilEverEnabled@D3D@@3HA 0063be38     d3d8d:state.obj
 0003:0005dd80       ?g_StartPut@@3PCKC         0063be40     d3d8d:globals.obj
 0003:0005dd84       _D3D__Parser               0063be44     d3d8d:globals.obj
 0003:0005dd88       _D3D__SingleStepPusher     0063be48     d3d8d:globals.obj
 0003:0005dd90       ?g_VertexShaderConstants@@3PAY03MA 0063be50     d3d8d:globals.obj
 0003:0005e990       ?g_NullHardwareGetPut@@3PAKA 0063ca50     d3d8d:globals.obj
 0003:0005e998       _D3D__AvInfo               0063ca58     d3d8d:globals.obj
 0003:0005e99c       _D3D__GpuReg               0063ca5c     d3d8d:globals.obj
 0003:0005e9a0       _D3D__NullHardware         0063ca60     d3d8d:globals.obj
 0003:0005e9a4       _D3D__IndexData            0063ca64     d3d8d:globals.obj
 0003:0005e9a8       _D3D__DirtyFlags           0063ca68     d3d8d:globals.obj
 0003:0005e9b0       _D3D__TextureState         0063ca70     d3d8d:globals.obj
 0003:0005ebb0       _D3D__RenderState          0063cc70     d3d8d:globals.obj
 0003:0005ee48       _D3D__pDevice              0063cf08     d3d8d:globals.obj
 0003:0005ee50       _D3D__Device               0063cf10     d3d8d:globals.obj
 0003:00061da0       ?g_OverscanColor@D3D@@3KA  0063fe60     d3d8d:d3dbase.obj
 0003:00061da4       ?g_SoftDisplayFilterValue@D3D@@3HA 0063fe64     d3d8d:d3dbase.obj
 0003:00061da8       ?g_FlickerFilterValue@D3D@@3KA 0063fe68     d3d8d:d3dbase.obj
 0003:00061dac       ?g_SoftDisplayFilterSet@D3D@@3HA 0063fe6c     d3d8d:d3dbase.obj
 0003:00061db0       ?g_FlickerFilterSet@D3D@@3HA 0063fe70     d3d8d:d3dbase.obj
 0003:00061db8       ?g_DoChecksum@D3D@@3KA     0063fe78     d3d8d:d3dbase.obj
 0003:00061dbc       ?g_Channel@D3D@@3KA        0063fe7c     d3d8d:d3dbase.obj
 0003:00061dc0       ?g_Value@D3D@@3PAKA        0063fe80     d3d8d:d3dbase.obj
 0003:00061dd0       _D3D__AllocsNoncontiguous  0063fe90     d3d8d:memory.obj
 0003:00061dd4       _D3D__AllocsContiguous     0063fe94     d3d8d:memory.obj
 0003:00061de8       ?g_CurrentPrimitiveType@D3D@@3HA 0063fea8     d3d8d:drawprim.obj
 0003:00061df0       ?g_Stream@D3D@@3PAUStream@1@A 0063feb0     d3d8d:vshader.obj
 0003:00061eb0       ?g_DirectVertexShader@D3D@@3UVertexShader@1@A 0063ff70     d3d8d:vshader.obj
 0003:00061fd0       ?g_FvfVertexShader@D3D@@3UVertexShader@1@A 00640090     d3d8d:vshader.obj
 0003:000620f0       ?g_LoadedVertexShaderSlot@D3D@@3PAEA 006401b0     d3d8d:vshader.obj
 0003:00062238       ?g_snapshot@D3D@@3VDebugSnapshot@1@A 006402f8     d3d8d:shadersnapshot.obj
 0003:00062a68       ?g_PerfProfData@D3D@@3UD3DPERF_PROFDATA@1@A 00640b28     d3d8d:stats.obj
 0003:00062a6c       ?g_PerfLastGpuBusyCounts@D3D@@3PAKA 00640b2c     d3d8d:stats.obj
 0003:00062a7c       ?g_PerfLastProfileSamples@D3D@@3KA 00640b3c     d3d8d:stats.obj
 0003:00062a80       ?g_rcbAtReset@D3D@@3U_KPRCB@@A 00640b40     d3d8d:stats.obj
 0003:00062cdc       ?g_pPutLocationAtReset@D3D@@3PAKA 00640d9c     d3d8d:stats.obj
 0003:00062d60       ?m_PushSegmentSize@CDevice@D3D@@2KA 00640e20     d3d8d:dxgcreate.obj
 0003:00062d64       ?m_PushBufferSize@CDevice@D3D@@2KA 00640e24     d3d8d:dxgcreate.obj
 0003:00062d6c       ?g_pEndState@D3D@@3PCKC    00640e2c     d3d8d:pusher.obj
 0003:00062d70       ?g_pEndPush@D3D@@3PCKC     00640e30     d3d8d:pusher.obj
 0003:00062d74       ?g_PushState@D3D@@3KA      00640e34     d3d8d:pusher.obj
 0003:00062d78       ?g_ReservedSize@D3D@@3KA   00640e38     d3d8d:pusher.obj
 0003:00062d7c       ?g_PushIndex@D3D@@3KA      00640e3c     d3d8d:pusher.obj
 0003:00062d80       ?g_pPushNext@D3D@@3PCKC    00640e40     d3d8d:pusher.obj
 0003:00062fe8       ?g_UserLevel@D3D@@3HA      006410a8     d3d8d:timing.obj
 0003:00063068       ?g_VideoOffset@D3D@@3KA    00641128     d3d8d:mpintr.obj
 0003:0006306c       ?g_DpcRIPFired@D3D@@3_NA   0064112c     d3d8d:mpintr.obj
 0003:00063078       ?g_PushBufferRecorder@D3D@@3VRecorder@1@A 00641138     d3d8d:recorder.obj
 0003:00063498       ?g_CRCTable@D3D@@3PAKA     00641558     d3d8d:recorder.obj
 0003:00063898       ?g_ParseState@D3D@@3PAKA   00641958     d3d8d:recorder.obj
 0003:000660a0       ?g_pFixup@D3D@@3PAUD3DFixup@@A 00644160     d3d8d:pushres.obj
 0003:000660a4       ?g_OriginalCount@D3D@@3KA  00644164     d3d8d:pushres.obj
 0003:000660a8       ?g_FixupToBuffer@D3D@@3KA  00644168     d3d8d:pushres.obj
 0003:000660ac       ?g_pNextFixup@D3D@@3PAKA   0064416c     d3d8d:pushres.obj
 0003:000660b0       ?g_FixupCount@D3D@@3KA     00644170     d3d8d:pushres.obj
 0003:000660b4       ?g_FixupActive@D3D@@3HA    00644174     d3d8d:pushres.obj
 0003:000660b8       ?g_FixupBracket@D3D@@3HA   00644178     d3d8d:pushres.obj
 0003:000660c8       _D3D__StateBlockDirty      00644188     d3d8d:block.obj
 0004:00000055       _D3DXVec2Hermite@24        00645a15 f   d3dx8d:d3dxmath.obj
 0004:0000013b       _D3DXVec2CatmullRom@24     00645afb f   d3dx8d:d3dxmath.obj
 0004:0000024a       _D3DXVec2BaryCentric@24    00645c0a f   d3dx8d:d3dxmath.obj
 0004:000002ce       _D3DXVec2Transform@12      00645c8e f   d3dx8d:d3dxmath.obj
 0004:00000376       _D3DXVec2TransformNormal@12 00645d36 f   d3dx8d:d3dxmath.obj
 0004:000003dd       _D3DXVec3Hermite@24        00645d9d f   d3dx8d:d3dxmath.obj
 0004:000004eb       _D3DXVec3CatmullRom@24     00645eab f   d3dx8d:d3dxmath.obj
 0004:00000624       _D3DXVec3BaryCentric@24    00645fe4 f   d3dx8d:d3dxmath.obj
 0004:000006c9       _D3DXVec3Transform@12      00646089 f   d3dx8d:d3dxmath.obj
 0004:0000079c       _D3DXVec3TransformNormal@12 0064615c f   d3dx8d:d3dxmath.obj
 0004:00000838       _D3DXVec4Hermite@24        006461f8 f   d3dx8d:d3dxmath.obj
 0004:00000970       _D3DXVec4CatmullRom@24     00646330 f   d3dx8d:d3dxmath.obj
 0004:00000ad4       _D3DXVec4BaryCentric@24    00646494 f   d3dx8d:d3dxmath.obj
 0004:00000b99       _D3DXVec4Transform@12      00646559 f   d3dx8d:d3dxmath.obj
 0004:00000c7d       _D3DXMatrixfDeterminant@4  0064663d f   d3dx8d:d3dxmath.obj
 0004:00000d8c       _D3DXMatrixTranspose@8     0064674c f   d3dx8d:d3dxmath.obj
 0004:00000e39       _D3DXMatrixInverse@12      006467f9 f   d3dx8d:d3dxmath.obj
 0004:000012cc       _D3DXMatrixScaling@16      00646c8c f   d3dx8d:d3dxmath.obj
 0004:00001359       _D3DXMatrixTranslation@16  00646d19 f   d3dx8d:d3dxmath.obj
 0004:000013e6       _D3DXMatrixRotationX@8     00646da6 f   d3dx8d:d3dxmath.obj
 0004:00001498       _D3DXMatrixRotationY@8     00646e58 f   d3dx8d:d3dxmath.obj
 0004:00001549       _D3DXMatrixRotationZ@8     00646f09 f   d3dx8d:d3dxmath.obj
 0004:000015fb       _D3DXMatrixRotationQuaternion@8 00646fbb f   d3dx8d:d3dxmath.obj
 0004:00001738       _D3DXMatrixPerspectiveRH@20 006470f8 f   d3dx8d:d3dxmath.obj
 0004:000017d9       _D3DXMatrixPerspectiveLH@20 00647199 f   d3dx8d:d3dxmath.obj
 0004:0000187a       _D3DXMatrixPerspectiveFovRH@20 0064723a f   d3dx8d:d3dxmath.obj
 0004:0000194d       _D3DXMatrixPerspectiveFovLH@20 0064730d f   d3dx8d:d3dxmath.obj
 0004:00001a20       _D3DXMatrixPerspectiveOffCenterRH@28 006473e0 f   d3dx8d:d3dxmath.obj
 0004:00001afe       _D3DXMatrixPerspectiveOffCenterLH@28 006474be f   d3dx8d:d3dxmath.obj
 0004:00001be1       _D3DXMatrixOrthoRH@20      006475a1 f   d3dx8d:d3dxmath.obj
 0004:00001c89       _D3DXMatrixOrthoLH@20      00647649 f   d3dx8d:d3dxmath.obj
 0004:00001d34       _D3DXMatrixOrthoOffCenterRH@28 006476f4 f   d3dx8d:d3dxmath.obj
 0004:00001e17       _D3DXMatrixOrthoOffCenterLH@28 006477d7 f   d3dx8d:d3dxmath.obj
 0004:00001efd       _D3DXQuaternionRotationYawPitchRoll@16 006478bd f   d3dx8d:d3dxmath.obj
 0004:00002026       _D3DXQuaternionMultiply@12 006479e6 f   d3dx8d:d3dxmath.obj
 0004:00002107       _D3DXColorAdjustSaturation@12 00647ac7 f   d3dx8d:d3dxmath.obj
 0004:00002198       _D3DXColorAdjustContrast@12 00647b58 f   d3dx8d:d3dxmath.obj
 0004:0000220b       _acosf                     00647bcb f i d3dx8d:d3dxmath.obj
 0004:0000221b       _atan2f                    00647bdb f i d3dx8d:d3dxmath.obj
 0004:0000222b       ??0D3DXQUATERNION@@QAE@XZ  00647beb f i d3dx8d:d3dxmath.obj
 0004:0000222e       ??0D3DXPLANE@@QAE@XZ       00647bee f i d3dx8d:d3dxmath.obj
 0004:00002231       ??0D3DXVECTOR2@@QAE@MM@Z   00647bf1 f i d3dx8d:d3dxmath.obj
 0004:0000224a       ??_0D3DXVECTOR2@@QAEAAU0@M@Z 00647c0a f i d3dx8d:d3dxmath.obj
 0004:0000226a       ??KD3DXVECTOR2@@QBE?AU0@M@Z 00647c2a f i d3dx8d:d3dxmath.obj
 0004:00002290       ??_0D3DXVECTOR3@@QAEAAU0@M@Z 00647c50 f i d3dx8d:d3dxmath.obj
 0004:000022ba       ??KD3DXVECTOR4@@QBE?AU0@M@Z 00647c7a f i d3dx8d:d3dxmath.obj
 0004:000022f4       ??0D3DXQUATERNION@@QAE@MMMM@Z 00647cb4 f i d3dx8d:d3dxmath.obj
 0004:0000231c       ??_0D3DXQUATERNION@@QAEAAU0@M@Z 00647cdc f i d3dx8d:d3dxmath.obj
 0004:00002350       ??KD3DXQUATERNION@@QBE?AU0@M@Z 00647d10 f i d3dx8d:d3dxmath.obj
 0004:0000238a       ??0D3DXPLANE@@QAE@MMMM@Z   00647d4a f i d3dx8d:d3dxmath.obj
 0004:000023b2       ??GD3DXPLANE@@QBE?AU0@XZ   00647d72 f i d3dx8d:d3dxmath.obj
 0004:000023e4       ?D3DXVec2LengthSq@@YAMPBUD3DXVECTOR2@@@Z 00647da4 f i d3dx8d:d3dxmath.obj
 0004:00002405       ?D3DXVec3LengthSq@@YAMPBUD3DXVECTOR3@@@Z 00647dc5 f i d3dx8d:d3dxmath.obj
 0004:00002434       ?D3DXVec3Dot@@YAMPBUD3DXVECTOR3@@0@Z 00647df4 f i d3dx8d:d3dxmath.obj
 0004:0000245a       ?D3DXVec3Subtract@@YAPAUD3DXVECTOR3@@PAU1@PBU1@1@Z 00647e1a f i d3dx8d:d3dxmath.obj
 0004:00002489       ?D3DXVec3Lerp@@YAPAUD3DXVECTOR3@@PAU1@PBU1@1M@Z 00647e49 f i d3dx8d:d3dxmath.obj
 0004:000024cd       ?D3DXVec4LengthSq@@YAMPBUD3DXVECTOR4@@@Z 00647e8d f i d3dx8d:d3dxmath.obj
 0004:0000250a       ?D3DXQuaternionLengthSq@@YAMPBUD3DXQUATERNION@@@Z 00647eca f i d3dx8d:d3dxmath.obj
 0004:00002547       ?D3DXQuaternionDot@@YAMPBUD3DXQUATERNION@@0@Z 00647f07 f i d3dx8d:d3dxmath.obj
 0004:00002577       ?D3DXQuaternionConjugate@@YAPAUD3DXQUATERNION@@PAU1@PBU1@@Z 00647f37 f i d3dx8d:d3dxmath.obj
 0004:000025a7       ?D3DXPlaneDot@@YAMPBUD3DXPLANE@@PBUD3DXVECTOR4@@@Z 00647f67 f i d3dx8d:d3dxmath.obj
 0004:000025d7       ?D3DXPlaneDotCoord@@YAMPBUD3DXPLANE@@PBUD3DXVECTOR3@@@Z 00647f97 f i d3dx8d:d3dxmath.obj
 0004:00002601       ?D3DXPlaneDotNormal@@YAMPBUD3DXPLANE@@PBUD3DXVECTOR3@@@Z 00647fc1 f i d3dx8d:d3dxmath.obj
 0004:00002627       _D3DXVec2Normalize@8       00647fe7 f   d3dx8d:d3dxmath.obj
 0004:000026f6       _D3DXVec2TransformCoord@12 006480b6 f   d3dx8d:d3dxmath.obj
 0004:000027df       _D3DXVec3Normalize@8       0064819f f   d3dx8d:d3dxmath.obj
 0004:00002893       _D3DXVec3TransformCoord@12 00648253 f   d3dx8d:d3dxmath.obj
 0004:0000299a       _D3DXVec4Cross@16          0064835a f   d3dx8d:d3dxmath.obj
 0004:00002af0       _D3DXVec4Normalize@8       006484b0 f   d3dx8d:d3dxmath.obj
 0004:00002bab       _D3DXMatrixMultiply@12     0064856b f   d3dx8d:d3dxmath.obj
 0004:00002ced       _D3DXMatrixRotationAxis@12 006486ad f   d3dx8d:d3dxmath.obj
 0004:00002e4c       _D3DXMatrixRotationYawPitchRoll@16 0064880c f   d3dx8d:d3dxmath.obj
 0004:00002eac       _D3DXMatrixTransformation@28 0064886c f   d3dx8d:d3dxmath.obj
 0004:00003136       _D3DXMatrixAffineTransformation@20 00648af6 f   d3dx8d:d3dxmath.obj
 0004:00003262       _D3DXMatrixLookAtRH@16     00648c22 f   d3dx8d:d3dxmath.obj
 0004:000033c1       _D3DXMatrixLookAtLH@16     00648d81 f   d3dx8d:d3dxmath.obj
 0004:00003520       _D3DXQuaternionToAxisAngle@12 00648ee0 f   d3dx8d:d3dxmath.obj
 0004:000035c1       _D3DXQuaternionRotationMatrix@8 00648f81 f   d3dx8d:d3dxmath.obj
 0004:00003757       _D3DXQuaternionRotationAxis@12 00649117 f   d3dx8d:d3dxmath.obj
 0004:000037ea       _D3DXQuaternionNormalize@8 006491aa f   d3dx8d:d3dxmath.obj
 0004:000038a5       _D3DXQuaternionInverse@8   00649265 f   d3dx8d:d3dxmath.obj
 0004:00003948       _D3DXQuaternionLn@8        00649308 f   d3dx8d:d3dxmath.obj
 0004:00003a01       _D3DXQuaternionExp@8       006493c1 f   d3dx8d:d3dxmath.obj
 0004:00003ae0       _D3DXQuaternionSlerp@16    006494a0 f   d3dx8d:d3dxmath.obj
 0004:00003c14       _D3DXQuaternionSquad@24    006495d4 f   d3dx8d:d3dxmath.obj
 0004:00003cb2       _D3DXQuaternionBaryCentric@24 00649672 f   d3dx8d:d3dxmath.obj
 0004:00003d84       _D3DXPlaneNormalize@8      00649744 f   d3dx8d:d3dxmath.obj
 0004:00003e6d       _D3DXPlaneIntersectLine@16 0064982d f   d3dx8d:d3dxmath.obj
 0004:00003f2b       _D3DXPlaneFromPointNormal@12 006498eb f   d3dx8d:d3dxmath.obj
 0004:00003f8d       _D3DXPlaneFromPoints@16    0064994d f   d3dx8d:d3dxmath.obj
 0004:00004024       _D3DXPlaneTransform@12     006499e4 f   d3dx8d:d3dxmath.obj
 0004:000040df       _D3DXVec3Project@24        00649a9f f   d3dx8d:d3dxmath.obj
 0004:00004277       _D3DXVec3Unproject@24      00649c37 f   d3dx8d:d3dxmath.obj
 0004:00004426       _D3DXMatrixShadow@12       00649de6 f   d3dx8d:d3dxmath.obj
 0004:00004564       _D3DXMatrixReflect@8       00649f24 f   d3dx8d:d3dxmath.obj
 0004:00004675       ?D3DXSetDXT3DXT5@@YGXH@Z   0064a035 f   d3dx8d:d3dx8tex.obj
 0004:0000468e       ?D3DXGetDXT3DXT5@@YGHXZ    0064a04e f   d3dx8d:d3dx8tex.obj
 0004:0000469d       ?IsUvl@@YAHW4_D3DFORMAT@@@Z 0064a05d f   d3dx8d:d3dx8tex.obj
 0004:000046f2       ?GetDirect3D@D3DDevice@@SGJPAPAUDirect3D@@@Z 0064a0b2 f i d3dx8d:d3dx8tex.obj
 0004:00004707       ?GetDeviceCaps@D3DDevice@@SGJPAU_D3DCAPS8@@@Z 0064a0c7 f i d3dx8d:d3dx8tex.obj
 0004:0000471c       ?CreateVolumeTexture@D3DDevice@@SGJIIIIKW4_D3DFORMAT@@KPAPAUD3DVolumeTexture@@@Z 0064a0dc f i d3dx8d:d3dx8tex.obj
 0004:0000475b       ?GetLevelDesc@D3DVolumeTexture@@QAGJIPAU_D3DVOLUME_DESC@@@Z 0064a11b f i d3dx8d:d3dx8tex.obj
 0004:00004777       ?GetVolumeLevel@D3DVolumeTexture@@QAGJIPAPAUD3DVolume@@@Z 0064a137 f i d3dx8d:d3dx8tex.obj
 0004:000047a5       ?GetLevelDesc@D3DCubeTexture@@QAGJIPAU_D3DSURFACE_DESC@@@Z 0064a165 f i d3dx8d:d3dx8tex.obj
 0004:000047c3       ?GetDesc@D3DVolume@@QAGJPAU_D3DVOLUME_DESC@@@Z 0064a183 f i d3dx8d:d3dx8tex.obj
 0004:000047dc       ?LockBox@D3DVolume@@QAGJPAU_D3DLOCKED_BOX@@PBU_D3DBOX@@K@Z 0064a19c f i d3dx8d:d3dx8tex.obj
 0004:000047fc       ?UnlockBox@D3DVolume@@QAGJXZ 0064a1bc f i d3dx8d:d3dx8tex.obj
 0004:00004b80       _D3DXLoadSurfaceFromMemory@40 0064a540 f   d3dx8d:d3dx8tex.obj
 0004:00004eba       _D3DXLoadVolumeFromMemory@44 0064a87a f   d3dx8d:d3dx8tex.obj
 0004:000051ea       _D3DXCheckTextureRequirements@28 0064abaa f   d3dx8d:d3dx8tex.obj
 0004:0000521c       _D3DXCreateTexture@32      0064abdc f   d3dx8d:d3dx8tex.obj
 0004:000052f3       _D3DXCheckCubeTextureRequirements@24 0064acb3 f   d3dx8d:d3dx8tex.obj
 0004:00005325       _D3DXCreateCubeTexture@28  0064ace5 f   d3dx8d:d3dx8tex.obj
 0004:000053f7       _D3DXCheckVolumeTextureRequirements@32 0064adb7 f   d3dx8d:d3dx8tex.obj
 0004:0000542a       _D3DXCreateVolumeTexture@36 0064adea f   d3dx8d:d3dx8tex.obj
 0004:00005507       _D3DXLoadSurfaceFromFileInMemory@36 0064aec7 f   d3dx8d:d3dx8tex.obj
 0004:0000561a       _D3DXLoadSurfaceFromSurface@32 0064afda f   d3dx8d:d3dx8tex.obj
 0004:000057be       _D3DXLoadVolumeFromVolume@32 0064b17e f   d3dx8d:d3dx8tex.obj
 0004:00005985       _D3DXFilterTexture@16      0064b345 f   d3dx8d:d3dx8tex.obj
 0004:00005b4d       _D3DXFilterCubeTexture@16  0064b50d f   d3dx8d:d3dx8tex.obj
 0004:00005d53       _D3DXFilterVolumeTexture@16 0064b713 f   d3dx8d:d3dx8tex.obj
 0004:00005f2f       _D3DXLoadSurfaceFromFileA@32 0064b8ef f   d3dx8d:d3dx8tex.obj
 0004:00005f93       _D3DXCreateTextureFromFileInMemoryEx@60 0064b953 f   d3dx8d:d3dx8tex.obj
 0004:00006453       _D3DXCreateCubeTextureFromFileInMemoryEx@56 0064be13 f   d3dx8d:d3dx8tex.obj
 0004:0000695e       _D3DXCreateTextureFromFileExA@56 0064c31e f   d3dx8d:d3dx8tex.obj
 0004:000069d8       _D3DXCreateTextureFromFileInMemory@16 0064c398 f   d3dx8d:d3dx8tex.obj
 0004:00006a0b       _D3DXCreateCubeTextureFromFileExA@52 0064c3cb f   d3dx8d:d3dx8tex.obj
 0004:00006a81       _D3DXCreateCubeTextureFromFileInMemory@16 0064c441 f   d3dx8d:d3dx8tex.obj
 0004:00006ab3       _D3DXCreateTextureFromFileA@12 0064c473 f   d3dx8d:d3dx8tex.obj
 0004:00006ae2       _D3DXCreateCubeTextureFromFileA@12 0064c4a2 f   d3dx8d:d3dx8tex.obj
 0004:00006b10       ?D3DXDebugPrintf@@YAXIPADZZ 0064c4d0 f   d3dx8d:d3dx8dbg.obj
 0004:00006b7f       ?D3DXDebugPrintfAndBreak@@YAXIPADZZ 0064c53f f   d3dx8d:d3dx8dbg.obj
 0004:00006bf4       ?D3DXDebugPrintfHR@@YAXIJPADZZ 0064c5b4 f   d3dx8d:d3dx8dbg.obj
 0004:00006c65       ?D3DXDebugAssert@@YGHPBDH0@Z 0064c625 f   d3dx8d:d3dx8dbg.obj
 0004:00006c6a       ??0CD3DXBlt@@QAE@XZ        0064c62a f   d3dx8d:cd3dxblt.obj
 0004:00006c76       ??1CD3DXBlt@@QAE@XZ        0064c636 f   d3dx8d:cd3dxblt.obj
 0004:00006c9b       ??0TF_Row@@QAE@XZ          0064c65b f i d3dx8d:cd3dxblt.obj
 0004:00006ca7       ?BltSame_DXTn@CD3DXBlt@@IAEJXZ 0064c667 f   d3dx8d:cd3dxblt.obj
 0004:00006e8c       ?BltBox2D_R8G8B8@CD3DXBlt@@IAEJXZ 0064c84c f   d3dx8d:cd3dxblt.obj
 0004:00006e92       ?BltBox2D_A8R8G8B8@CD3DXBlt@@IAEJXZ 0064c852 f   d3dx8d:cd3dxblt.obj
 0004:0000702c       ?BltBox2D_X8R8G8B8@CD3DXBlt@@IAEJXZ 0064c9ec f   d3dx8d:cd3dxblt.obj
 0004:00007176       ?BltBox2D_R5G6B5@CD3DXBlt@@IAEJXZ 0064cb36 f   d3dx8d:cd3dxblt.obj
 0004:0000730b       ?BltBox2D_X1R5G5B5@CD3DXBlt@@IAEJXZ 0064cccb f   d3dx8d:cd3dxblt.obj
 0004:00007465       ?BltBox2D_A1R5G5B5@CD3DXBlt@@IAEJXZ 0064ce25 f   d3dx8d:cd3dxblt.obj
 0004:000075ec       ?BltBox2D_A4R4G4B4@CD3DXBlt@@IAEJXZ 0064cfac f   d3dx8d:cd3dxblt.obj
 0004:00007784       ?BltBox2D_R3G3B2@CD3DXBlt@@IAEJXZ 0064d144 f   d3dx8d:cd3dxblt.obj
 0004:0000778a       ?BltBox2D_A8@CD3DXBlt@@IAEJXZ 0064d14a f   d3dx8d:cd3dxblt.obj
 0004:0000784d       ?BltBox2D_A8R3G3B2@CD3DXBlt@@IAEJXZ 0064d20d f   d3dx8d:cd3dxblt.obj
 0004:00007853       ?BltBox2D_X4R4G4B4@CD3DXBlt@@IAEJXZ 0064d213 f   d3dx8d:cd3dxblt.obj
 0004:00007859       ?BltBox2D_A8P8@CD3DXBlt@@IAEJXZ 0064d219 f   d3dx8d:cd3dxblt.obj
 0004:0000785f       ?BltBox2D_P8@CD3DXBlt@@IAEJXZ 0064d21f f   d3dx8d:cd3dxblt.obj
 0004:00007865       ?BltBox2D_A8L8@CD3DXBlt@@IAEJXZ 0064d225 f   d3dx8d:cd3dxblt.obj
 0004:000079f2       ?BltBox2D_A4L4@CD3DXBlt@@IAEJXZ 0064d3b2 f   d3dx8d:cd3dxblt.obj
 0004:000079f8       ??0D3DXCOLOR@@QAE@XZ       0064d3b8 f i d3dx8d:cd3dxblt.obj
 0004:000079fb       ??HD3DXCOLOR@@QBE?AU0@ABU0@@Z 0064d3bb f i d3dx8d:cd3dxblt.obj
 0004:00007a34       ??DD3DXCOLOR@@QBE?AU0@M@Z  0064d3f4 f i d3dx8d:cd3dxblt.obj
 0004:00007b22       ?BltSame@CD3DXBlt@@IAEJXZ  0064d4e2 f   d3dx8d:cd3dxblt.obj
 0004:00007c9c       ?BltCopy@CD3DXBlt@@IAEJXZ  0064d65c f   d3dx8d:cd3dxblt.obj
 0004:00007db0       ?BltNone@CD3DXBlt@@IAEJXZ  0064d770 f   d3dx8d:cd3dxblt.obj
 0004:00008000       ?BltPoint@CD3DXBlt@@IAEJXZ 0064d9c0 f   d3dx8d:cd3dxblt.obj
 0004:00008268       ?BltBox2D@CD3DXBlt@@IAEJXZ 0064dc28 f   d3dx8d:cd3dxblt.obj
 0004:00008692       ?BltBox3D@CD3DXBlt@@IAEJXZ 0064e052 f   d3dx8d:cd3dxblt.obj
 0004:00008c3f       ?BltLinear2D@CD3DXBlt@@IAEJXZ 0064e5ff f   d3dx8d:cd3dxblt.obj
 0004:0000903b       ?BltLinear3D@CD3DXBlt@@IAEJXZ 0064e9fb f   d3dx8d:cd3dxblt.obj
 0004:00009678       ??1TF_Row@@QAE@XZ          0064f038 f i d3dx8d:cd3dxblt.obj
 0004:000096b1       ??_GTF_Row@@QAEPAXI@Z      0064f071 f i d3dx8d:cd3dxblt.obj
 0004:00009afc       ?BltTriangle2D@CD3DXBlt@@IAEJXZ 0064f4bc f   d3dx8d:cd3dxblt.obj
 0004:0000a01a       ?BltTriangle3D@CD3DXBlt@@IAEJXZ 0064f9da f   d3dx8d:cd3dxblt.obj
 0004:0000a6c0       ?Blt@CD3DXBlt@@QAEJPAUD3DX_BLT@@0K@Z 00650080 f   d3dx8d:cd3dxblt.obj
 0004:0000a84e       ??0CD3DXImage@@QAE@XZ      0065020e f   d3dx8d:cd3dximage.obj
 0004:0000aa07       ??1CD3DXImage@@QAE@XZ      006503c7 f   d3dx8d:cd3dximage.obj
 0004:0000aa7f       ??_GCD3DXImage@@QAEPAXI@Z  0065043f f i d3dx8d:cd3dximage.obj
 0004:0000aaaf       ?LoadDIB@CD3DXImage@@AAEJPBXK@Z 0065046f f   d3dx8d:cd3dximage.obj
 0004:0000b397       ?LoadJPG@CD3DXImage@@AAEJPBXK@Z 00650d57 f   d3dx8d:cd3dximage.obj
 0004:0000b680       ?LoadTGA@CD3DXImage@@AAEJPBXK@Z 00651040 f   d3dx8d:cd3dximage.obj
 0004:0000bbe2       ?LoadPPM@CD3DXImage@@AAEJPBXK@Z 006515a2 f   d3dx8d:cd3dximage.obj
 0004:0000bf11       ?LoadPNG@CD3DXImage@@AAEJPBXK@Z 006518d1 f   d3dx8d:cd3dximage.obj
 0004:0000c586       ?LoadDDS@CD3DXImage@@AAEJPBXK@Z 00651f46 f   d3dx8d:cd3dximage.obj
 0004:0000c987       ?LoadBMP@CD3DXImage@@AAEJPBXK@Z 00652347 f   d3dx8d:cd3dximage.obj
 0004:0000c9c5       ?Load@CD3DXImage@@QAEJPBXKPAU_D3DXIMAGE_INFO@@@Z 00652385 f   d3dx8d:cd3dximage.obj
 0004:0000cb71       ??0CD3DXFile@@QAE@XZ       00652531 f   d3dx8d:cd3dxfile.obj
 0004:0000cb7d       ?Open@CD3DXFile@@QAEJPBXH@Z 0065253d f   d3dx8d:cd3dxfile.obj
 0004:0000cc78       ?Close@CD3DXFile@@QAEJXZ   00652638 f   d3dx8d:cd3dxfile.obj
 0004:0000cc9e       ??1CD3DXFile@@QAE@XZ       0065265e f   d3dx8d:cd3dxfile.obj
 0004:0000cca3       _D3DXGetFVFVertexSize@4    00652663 f   d3dx8d:d3dx8core.obj
 0004:0000cd62       _D3DXGetErrorStringA@12    00652722 f   d3dx8d:d3dx8core.obj
 0004:0000d030       _D3DXGetErrorStringW@12    006529f0 f   d3dx8d:d3dx8core.obj
 0004:0000d10f       ??_GCD3DXSprite@@QAEPAXI@Z 00652acf f i d3dx8d:d3dx8core.obj
 0004:0000d13f       ??_GCD3DXRenderToSurface@@QAEPAXI@Z 00652aff f i d3dx8d:d3dx8core.obj
 0004:0000d16f       ??_GCD3DXRenderToEnvMap@@QAEPAXI@Z 00652b2f f i d3dx8d:d3dx8core.obj
 0004:0000d19f       _D3DXCreateSprite@8        00652b5f f   d3dx8d:d3dx8core.obj
 0004:0000d24e       _D3DXCreateRenderToSurface@28 00652c0e f   d3dx8d:d3dx8core.obj
 0004:0000d30f       _D3DXCreateRenderToEnvMap@24 00652ccf f   d3dx8d:d3dx8core.obj
 0004:0000d3cd       ??1CD3DXCodec@@UAE@XZ      00652d8d f   d3dx8d:cd3dxcodec.obj
 0004:0000d3d4       ?Decode@CD3DXCodec@@UAEXIIPAUD3DXCOLOR@@@Z 00652d94 f   d3dx8d:cd3dxcodec.obj
 0004:0000d3d7       ?Encode@CD3DXCodec@@UAEXIIPAUD3DXCOLOR@@@Z 00652d97 f   d3dx8d:cd3dxcodec.obj
 0004:0000d3da       ?Decode@CD3DXCodec_V8U8@@UAEXIIPAUD3DXCOLOR@@@Z 00652d9a f   d3dx8d:cd3dxcodec.obj
 0004:0000d45d       ?Decode@CD3DXCodec_L6V5U5@@UAEXIIPAUD3DXCOLOR@@@Z 00652e1d f   d3dx8d:cd3dxcodec.obj
 0004:0000d518       ?Decode@CD3DXCodec_X8L8V8U8@@UAEXIIPAUD3DXCOLOR@@@Z 00652ed8 f   d3dx8d:cd3dxcodec.obj
 0004:0000d5ae       ?Decode@CD3DXCodec_Q8W8V8U8@@UAEXIIPAUD3DXCOLOR@@@Z 00652f6e f   d3dx8d:cd3dxcodec.obj
 0004:0000d64b       ?Decode@CD3DXCodec_V16U16@@UAEXIIPAUD3DXCOLOR@@@Z 0065300b f   d3dx8d:cd3dxcodec.obj
 0004:0000d6cf       ?Decode@CD3DXCodec_W11V11U10@@UAEXIIPAUD3DXCOLOR@@@Z 0065308f f   d3dx8d:cd3dxcodec.obj
 0004:0000d795       ??0D3DXCOLOR@@QAE@K@Z      00653155 f i d3dx8d:cd3dxcodec.obj
 0004:0000d7ff       ??GD3DXCOLOR@@QBE?AU0@ABU0@@Z 006531bf f i d3dx8d:cd3dxcodec.obj
 0004:0000d838       ??8D3DXCOLOR@@QBEHABU0@@Z  006531f8 f i d3dx8d:cd3dxcodec.obj
 0004:0000d92e       ??0CD3DXCodec@@IAE@PAUD3DX_BLT@@IK@Z 006532ee f   d3dx8d:cd3dxcodec.obj
 0004:0000dbab       ??_GCD3DXCodec@@UAEPAXI@Z  0065356b f i d3dx8d:cd3dxcodec.obj
 0004:0000dbab       ??_ECD3DXCodec@@UAEPAXI@Z  0065356b f i d3dx8d:cd3dxcodec.obj
 0004:0000dbd8       ?ColorKey@CD3DXCodec@@IAEXPAUD3DXCOLOR@@@Z 00653598 f   d3dx8d:cd3dxcodec.obj
 0004:0000dc32       ?Encode@CD3DXCodec_R8G8B8@@UAEXIIPAUD3DXCOLOR@@@Z 006535f2 f   d3dx8d:cd3dxcodec.obj
 0004:0000dd28       ?Encode@CD3DXCodec_A8R8G8B8@@UAEXIIPAUD3DXCOLOR@@@Z 006536e8 f   d3dx8d:cd3dxcodec.obj
 0004:0000de64       ?Encode@CD3DXCodec_X8R8G8B8@@UAEXIIPAUD3DXCOLOR@@@Z 00653824 f   d3dx8d:cd3dxcodec.obj
 0004:0000df75       ?Encode@CD3DXCodec_R5G6B5@@UAEXIIPAUD3DXCOLOR@@@Z 00653935 f   d3dx8d:cd3dxcodec.obj
 0004:0000e086       ?Encode@CD3DXCodec_X1R5G5B5@@UAEXIIPAUD3DXCOLOR@@@Z 00653a46 f   d3dx8d:cd3dxcodec.obj
 0004:0000e197       ?Encode@CD3DXCodec_A1R5G5B5@@UAEXIIPAUD3DXCOLOR@@@Z 00653b57 f   d3dx8d:cd3dxcodec.obj
 0004:0000e2cb       ?Encode@CD3DXCodec_A4R4G4B4@@UAEXIIPAUD3DXCOLOR@@@Z 00653c8b f   d3dx8d:cd3dxcodec.obj
 0004:0000e407       ?Encode@CD3DXCodec_R3G3B2@@UAEXIIPAUD3DXCOLOR@@@Z 00653dc7 f   d3dx8d:cd3dxcodec.obj
 0004:0000e513       ?Encode@CD3DXCodec_A8@@UAEXIIPAUD3DXCOLOR@@@Z 00653ed3 f   d3dx8d:cd3dxcodec.obj
 0004:0000e5b8       ?Encode@CD3DXCodec_A8R3G3B2@@UAEXIIPAUD3DXCOLOR@@@Z 00653f78 f   d3dx8d:cd3dxcodec.obj
 0004:0000e6f4       ?Encode@CD3DXCodec_X4R4G4B4@@UAEXIIPAUD3DXCOLOR@@@Z 006540b4 f   d3dx8d:cd3dxcodec.obj
 0004:0000e805       ?Encode@CD3DXCodec_A8P8@@UAEXIIPAUD3DXCOLOR@@@Z 006541c5 f   d3dx8d:cd3dxcodec.obj
 0004:0000e948       ?Encode@CD3DXCodec_P8@@UAEXIIPAUD3DXCOLOR@@@Z 00654308 f   d3dx8d:cd3dxcodec.obj
 0004:0000ea30       ?Encode@CD3DXCodec_L8@@UAEXIIPAUD3DXCOLOR@@@Z 006543f0 f   d3dx8d:cd3dxcodec.obj
 0004:0000eaf8       ?Encode@CD3DXCodec_A8L8@@UAEXIIPAUD3DXCOLOR@@@Z 006544b8 f   d3dx8d:cd3dxcodec.obj
 0004:0000ec03       ?Encode@CD3DXCodec_A4L4@@UAEXIIPAUD3DXCOLOR@@@Z 006545c3 f   d3dx8d:cd3dxcodec.obj
 0004:0000ed04       ?Encode@CD3DXCodec_V8U8@@UAEXIIPAUD3DXCOLOR@@@Z 006546c4 f   d3dx8d:cd3dxcodec.obj
 0004:0000ede6       ?Encode@CD3DXCodec_L6V5U5@@UAEXIIPAUD3DXCOLOR@@@Z 006547a6 f   d3dx8d:cd3dxcodec.obj
 0004:0000ef04       ?Encode@CD3DXCodec_X8L8V8U8@@UAEXIIPAUD3DXCOLOR@@@Z 006548c4 f   d3dx8d:cd3dxcodec.obj
 0004:0000f02c       ?Encode@CD3DXCodec_Q8W8V8U8@@UAEXIIPAUD3DXCOLOR@@@Z 006549ec f   d3dx8d:cd3dxcodec.obj
 0004:0000f186       ?Encode@CD3DXCodec_V16U16@@UAEXIIPAUD3DXCOLOR@@@Z 00654b46 f   d3dx8d:cd3dxcodec.obj
 0004:0000f268       ?Encode@CD3DXCodec_W11V11U10@@UAEXIIPAUD3DXCOLOR@@@Z 00654c28 f   d3dx8d:cd3dxcodec.obj
 0004:0000f394       ?Decode@CD3DXCodec_R8G8B8@@UAEXIIPAUD3DXCOLOR@@@Z 00654d54 f   d3dx8d:cd3dxcodec.obj
 0004:0000f443       ?Decode@CD3DXCodec_A8R8G8B8@@UAEXIIPAUD3DXCOLOR@@@Z 00654e03 f   d3dx8d:cd3dxcodec.obj
 0004:0000f512       ?Decode@CD3DXCodec_X8R8G8B8@@UAEXIIPAUD3DXCOLOR@@@Z 00654ed2 f   d3dx8d:cd3dxcodec.obj
 0004:0000f5d5       ?Decode@CD3DXCodec_R5G6B5@@UAEXIIPAUD3DXCOLOR@@@Z 00654f95 f   d3dx8d:cd3dxcodec.obj
 0004:0000f6a3       ?Decode@CD3DXCodec_X1R5G5B5@@UAEXIIPAUD3DXCOLOR@@@Z 00655063 f   d3dx8d:cd3dxcodec.obj
 0004:0000f76d       ?Decode@CD3DXCodec_A1R5G5B5@@UAEXIIPAUD3DXCOLOR@@@Z 0065512d f   d3dx8d:cd3dxcodec.obj
 0004:0000f849       ?Decode@CD3DXCodec_A4R4G4B4@@UAEXIIPAUD3DXCOLOR@@@Z 00655209 f   d3dx8d:cd3dxcodec.obj
 0004:0000f923       ?Decode@CD3DXCodec_R3G3B2@@UAEXIIPAUD3DXCOLOR@@@Z 006552e3 f   d3dx8d:cd3dxcodec.obj
 0004:0000f9ed       ?Decode@CD3DXCodec_A8@@UAEXIIPAUD3DXCOLOR@@@Z 006553ad f   d3dx8d:cd3dxcodec.obj
 0004:0000fa7b       ?Decode@CD3DXCodec_A8R3G3B2@@UAEXIIPAUD3DXCOLOR@@@Z 0065543b f   d3dx8d:cd3dxcodec.obj
 0004:0000fb59       ?Decode@CD3DXCodec_X4R4G4B4@@UAEXIIPAUD3DXCOLOR@@@Z 00655519 f   d3dx8d:cd3dxcodec.obj
 0004:0000fc1f       ?Decode@CD3DXCodec_A8P8@@UAEXIIPAUD3DXCOLOR@@@Z 006555df f   d3dx8d:cd3dxcodec.obj
 0004:0000fcc7       ?Decode@CD3DXCodec_P8@@UAEXIIPAUD3DXCOLOR@@@Z 00655687 f   d3dx8d:cd3dxcodec.obj
 0004:0000fd45       ?Decode@CD3DXCodec_L8@@UAEXIIPAUD3DXCOLOR@@@Z 00655705 f   d3dx8d:cd3dxcodec.obj
 0004:0000fdce       ?Decode@CD3DXCodec_A8L8@@UAEXIIPAUD3DXCOLOR@@@Z 0065578e f   d3dx8d:cd3dxcodec.obj
 0004:0000fe79       ?Decode@CD3DXCodec_A4L4@@UAEXIIPAUD3DXCOLOR@@@Z 00655839 f   d3dx8d:cd3dxcodec.obj
 0004:0000ff24       ??0CD3DXCodecYUV@@QAE@PAUD3DX_BLT@@@Z 006558e4 f   d3dx8d:cd3dxcodec.obj
 0004:00010038       ?Commit@CD3DXCodecYUV@@QAEJXZ 006559f8 f   d3dx8d:cd3dxcodec.obj
 0004:000102a7       ?Fetch@CD3DXCodecYUV@@QAEJIIH@Z 00655c67 f   d3dx8d:cd3dxcodec.obj
 0004:0001062c       ?Encode@CD3DXCodecYUV@@UAEXIIPAUD3DXCOLOR@@@Z 00655fec f   d3dx8d:cd3dxcodec.obj
 0004:000106c3       ?Decode@CD3DXCodecYUV@@UAEXIIPAUD3DXCOLOR@@@Z 00656083 f   d3dx8d:cd3dxcodec.obj
 0004:0001074d       ??0CD3DXCodecDXT@@QAE@PAUD3DX_BLT@@@Z 0065610d f   d3dx8d:cd3dxcodec.obj
 0004:000108bc       ?Commit@CD3DXCodecDXT@@QAEJXZ 0065627c f   d3dx8d:cd3dxcodec.obj
 0004:00010c82       ?Fetch@CD3DXCodecDXT@@QAEJIIH@Z 00656642 f   d3dx8d:cd3dxcodec.obj
 0004:00010fa4       ?Encode@CD3DXCodecDXT@@UAEXIIPAUD3DXCOLOR@@@Z 00656964 f   d3dx8d:cd3dxcodec.obj
 0004:0001104b       ?Decode@CD3DXCodecDXT@@UAEXIIPAUD3DXCOLOR@@@Z 00656a0b f   d3dx8d:cd3dxcodec.obj
 0004:000110dc       ??0CD3DXCodec_R8G8B8@@QAE@PAUD3DX_BLT@@@Z 00656a9c f i d3dx8d:cd3dxcodec.obj
 0004:00011102       ??_GCD3DXCodec_R8G8B8@@UAEPAXI@Z 00656ac2 f i d3dx8d:cd3dxcodec.obj
 0004:00011102       ??_ECD3DXCodec_R8G8B8@@UAEPAXI@Z 00656ac2 f i d3dx8d:cd3dxcodec.obj
 0004:0001112f       ??0CD3DXCodec_A8R8G8B8@@QAE@PAUD3DX_BLT@@@Z 00656aef f i d3dx8d:cd3dxcodec.obj
 0004:00011155       ??_ECD3DXCodec_A8R8G8B8@@UAEPAXI@Z 00656b15 f i d3dx8d:cd3dxcodec.obj
 0004:00011155       ??_GCD3DXCodec_A8R8G8B8@@UAEPAXI@Z 00656b15 f i d3dx8d:cd3dxcodec.obj
 0004:00011182       ??0CD3DXCodec_X8R8G8B8@@QAE@PAUD3DX_BLT@@@Z 00656b42 f i d3dx8d:cd3dxcodec.obj
 0004:000111a8       ??_GCD3DXCodec_X8R8G8B8@@UAEPAXI@Z 00656b68 f i d3dx8d:cd3dxcodec.obj
 0004:000111a8       ??_ECD3DXCodec_X8R8G8B8@@UAEPAXI@Z 00656b68 f i d3dx8d:cd3dxcodec.obj
 0004:000111d5       ??0CD3DXCodec_R5G6B5@@QAE@PAUD3DX_BLT@@@Z 00656b95 f i d3dx8d:cd3dxcodec.obj
 0004:000111fb       ??_ECD3DXCodec_R5G6B5@@UAEPAXI@Z 00656bbb f i d3dx8d:cd3dxcodec.obj
 0004:000111fb       ??_GCD3DXCodec_R5G6B5@@UAEPAXI@Z 00656bbb f i d3dx8d:cd3dxcodec.obj
 0004:00011228       ??0CD3DXCodec_X1R5G5B5@@QAE@PAUD3DX_BLT@@@Z 00656be8 f i d3dx8d:cd3dxcodec.obj
 0004:0001124e       ??_GCD3DXCodec_X1R5G5B5@@UAEPAXI@Z 00656c0e f i d3dx8d:cd3dxcodec.obj
 0004:0001124e       ??_ECD3DXCodec_X1R5G5B5@@UAEPAXI@Z 00656c0e f i d3dx8d:cd3dxcodec.obj
 0004:0001127b       ??0CD3DXCodec_A1R5G5B5@@QAE@PAUD3DX_BLT@@@Z 00656c3b f i d3dx8d:cd3dxcodec.obj
 0004:000112a1       ??_ECD3DXCodec_A1R5G5B5@@UAEPAXI@Z 00656c61 f i d3dx8d:cd3dxcodec.obj
 0004:000112a1       ??_GCD3DXCodec_A1R5G5B5@@UAEPAXI@Z 00656c61 f i d3dx8d:cd3dxcodec.obj
 0004:000112ce       ??0CD3DXCodec_A4R4G4B4@@QAE@PAUD3DX_BLT@@@Z 00656c8e f i d3dx8d:cd3dxcodec.obj
 0004:000112f4       ??_GCD3DXCodec_A4R4G4B4@@UAEPAXI@Z 00656cb4 f i d3dx8d:cd3dxcodec.obj
 0004:000112f4       ??_ECD3DXCodec_A4R4G4B4@@UAEPAXI@Z 00656cb4 f i d3dx8d:cd3dxcodec.obj
 0004:00011321       ??0CD3DXCodec_A8@@QAE@PAUD3DX_BLT@@@Z 00656ce1 f i d3dx8d:cd3dxcodec.obj
 0004:00011347       ??_GCD3DXCodec_A8@@UAEPAXI@Z 00656d07 f i d3dx8d:cd3dxcodec.obj
 0004:00011347       ??_ECD3DXCodec_A8@@UAEPAXI@Z 00656d07 f i d3dx8d:cd3dxcodec.obj
 0004:00011374       ??0CD3DXCodec_P8@@QAE@PAUD3DX_BLT@@@Z 00656d34 f i d3dx8d:cd3dxcodec.obj
 0004:0001139a       ??_GCD3DXCodec_P8@@UAEPAXI@Z 00656d5a f i d3dx8d:cd3dxcodec.obj
 0004:0001139a       ??_ECD3DXCodec_P8@@UAEPAXI@Z 00656d5a f i d3dx8d:cd3dxcodec.obj
 0004:000113c7       ??0CD3DXCodec_L8@@QAE@PAUD3DX_BLT@@@Z 00656d87 f i d3dx8d:cd3dxcodec.obj
 0004:000113ed       ??_ECD3DXCodec_L8@@UAEPAXI@Z 00656dad f i d3dx8d:cd3dxcodec.obj
 0004:000113ed       ??_GCD3DXCodec_L8@@UAEPAXI@Z 00656dad f i d3dx8d:cd3dxcodec.obj
 0004:0001141a       ??0CD3DXCodec_A8L8@@QAE@PAUD3DX_BLT@@@Z 00656dda f i d3dx8d:cd3dxcodec.obj
 0004:00011440       ??_ECD3DXCodec_A8L8@@UAEPAXI@Z 00656e00 f i d3dx8d:cd3dxcodec.obj
 0004:00011440       ??_GCD3DXCodec_A8L8@@UAEPAXI@Z 00656e00 f i d3dx8d:cd3dxcodec.obj
 0004:0001146d       ??0CD3DXCodec_V8U8@@QAE@PAUD3DX_BLT@@@Z 00656e2d f i d3dx8d:cd3dxcodec.obj
 0004:00011493       ??_ECD3DXCodec_V8U8@@UAEPAXI@Z 00656e53 f i d3dx8d:cd3dxcodec.obj
 0004:00011493       ??_GCD3DXCodec_V8U8@@UAEPAXI@Z 00656e53 f i d3dx8d:cd3dxcodec.obj
 0004:000114c0       ??0CD3DXCodec_L6V5U5@@QAE@PAUD3DX_BLT@@@Z 00656e80 f i d3dx8d:cd3dxcodec.obj
 0004:000114e6       ??_GCD3DXCodec_L6V5U5@@UAEPAXI@Z 00656ea6 f i d3dx8d:cd3dxcodec.obj
 0004:000114e6       ??_ECD3DXCodec_L6V5U5@@UAEPAXI@Z 00656ea6 f i d3dx8d:cd3dxcodec.obj
 0004:00011513       ??0CD3DXCodec_Q8W8V8U8@@QAE@PAUD3DX_BLT@@@Z 00656ed3 f i d3dx8d:cd3dxcodec.obj
 0004:00011539       ??_GCD3DXCodec_Q8W8V8U8@@UAEPAXI@Z 00656ef9 f i d3dx8d:cd3dxcodec.obj
 0004:00011539       ??_ECD3DXCodec_Q8W8V8U8@@UAEPAXI@Z 00656ef9 f i d3dx8d:cd3dxcodec.obj
 0004:00011566       ??0CD3DXCodec_V16U16@@QAE@PAUD3DX_BLT@@@Z 00656f26 f i d3dx8d:cd3dxcodec.obj
 0004:0001158c       ??_GCD3DXCodec_V16U16@@UAEPAXI@Z 00656f4c f i d3dx8d:cd3dxcodec.obj
 0004:0001158c       ??_ECD3DXCodec_V16U16@@UAEPAXI@Z 00656f4c f i d3dx8d:cd3dxcodec.obj
 0004:000115b9       ??1CD3DXCodecYUV@@UAE@XZ   00656f79 f   d3dx8d:cd3dxcodec.obj
 0004:000115ee       ??1CD3DXCodecDXT@@UAE@XZ   00656fae f   d3dx8d:cd3dxcodec.obj
 0004:00011636       ??0CD3DXCodec_UYVY@@QAE@PAUD3DX_BLT@@@Z 00656ff6 f i d3dx8d:cd3dxcodec.obj
 0004:00011657       ??0CD3DXCodec_YUY2@@QAE@PAUD3DX_BLT@@@Z 00657017 f i d3dx8d:cd3dxcodec.obj
 0004:00011678       ??0CD3DXCodec_DXT1@@QAE@PAUD3DX_BLT@@@Z 00657038 f i d3dx8d:cd3dxcodec.obj
 0004:00011699       ??0CD3DXCodec_DXT2@@QAE@PAUD3DX_BLT@@@Z 00657059 f i d3dx8d:cd3dxcodec.obj
 0004:000116ba       ??0CD3DXCodec_DXT4@@QAE@PAUD3DX_BLT@@@Z 0065707a f i d3dx8d:cd3dxcodec.obj
 0004:000116db       ?Create@CD3DXCodec@@SAPAV1@PAUD3DX_BLT@@@Z 0065709b f   d3dx8d:cd3dxcodec.obj
 0004:00011b23       ??_ECD3DXCodecYUV@@UAEPAXI@Z 006574e3 f i d3dx8d:cd3dxcodec.obj
 0004:00011b23       ??_GCD3DXCodecYUV@@UAEPAXI@Z 006574e3 f i d3dx8d:cd3dxcodec.obj
 0004:00011b53       ??_GCD3DXCodecDXT@@UAEPAXI@Z 00657513 f i d3dx8d:cd3dxcodec.obj
 0004:00011b53       ??_ECD3DXCodecDXT@@UAEPAXI@Z 00657513 f i d3dx8d:cd3dxcodec.obj
 0004:00011b83       ??_GCD3DXCodec_UYVY@@UAEPAXI@Z 00657543 f i d3dx8d:cd3dxcodec.obj
 0004:00011b83       ??_ECD3DXCodec_UYVY@@UAEPAXI@Z 00657543 f i d3dx8d:cd3dxcodec.obj
 0004:00011bb3       ??_ECD3DXCodec_YUY2@@UAEPAXI@Z 00657573 f i d3dx8d:cd3dxcodec.obj
 0004:00011bb3       ??_GCD3DXCodec_YUY2@@UAEPAXI@Z 00657573 f i d3dx8d:cd3dxcodec.obj
 0004:00011be3       ??_ECD3DXCodec_DXT1@@UAEPAXI@Z 006575a3 f i d3dx8d:cd3dxcodec.obj
 0004:00011be3       ??_GCD3DXCodec_DXT1@@UAEPAXI@Z 006575a3 f i d3dx8d:cd3dxcodec.obj
 0004:00011c13       ??_ECD3DXCodec_DXT2@@UAEPAXI@Z 006575d3 f i d3dx8d:cd3dxcodec.obj
 0004:00011c13       ??_GCD3DXCodec_DXT2@@UAEPAXI@Z 006575d3 f i d3dx8d:cd3dxcodec.obj
 0004:00011c43       ??_GCD3DXCodec_DXT4@@UAEPAXI@Z 00657603 f i d3dx8d:cd3dxcodec.obj
 0004:00011c43       ??_ECD3DXCodec_DXT4@@UAEPAXI@Z 00657603 f i d3dx8d:cd3dxcodec.obj
 0004:00011d2f       _png_set_error_fn          006576ef f   d3dx8d:pngerror.obj
 0004:00011d4f       _png_get_error_ptr         0065770f f   d3dx8d:pngerror.obj
 0004:00011d5c       _png_error                 0065771c f   d3dx8d:pngerror.obj
 0004:00011d82       _png_warning               00657742 f   d3dx8d:pngerror.obj
 0004:00011d9e       _png_chunk_error           0065775e f   d3dx8d:pngerror.obj
 0004:00011dc9       _png_chunk_warning         00657789 f   d3dx8d:pngerror.obj
 0004:00011df7       _jpeg_CreateDecompress     006577b7 f   d3dx8d:jdapimin.obj
 0004:00011ee8       _jpeg_destroy_decompress   006578a8 f   d3dx8d:jdapimin.obj
 0004:00011ef3       _jpeg_abort_decompress     006578b3 f   d3dx8d:jdapimin.obj
 0004:00011efe       _jpeg_set_marker_processor 006578be f   d3dx8d:jdapimin.obj
 0004:00012141       _jpeg_consume_input        00657b01 f   d3dx8d:jdapimin.obj
 0004:00012205       _jpeg_input_complete       00657bc5 f   d3dx8d:jdapimin.obj
 0004:0001224e       _jpeg_has_multiple_scans   00657c0e f   d3dx8d:jdapimin.obj
 0004:00012297       _jpeg_finish_decompress    00657c57 f   d3dx8d:jdapimin.obj
 0004:0001236b       _jpeg_read_header          00657d2b f   d3dx8d:jdapimin.obj
 0004:000124be       _jpeg_read_scanlines       00657e7e f   d3dx8d:jdapistd.obj
 0004:00012563       _jpeg_read_raw_data        00657f23 f   d3dx8d:jdapistd.obj
 0004:00012628       _jpeg_start_output         00657fe8 f   d3dx8d:jdapistd.obj
 0004:0001269b       _jpeg_finish_output        0065805b f   d3dx8d:jdapistd.obj
 0004:0001273b       _jpeg_start_decompress     006580fb f   d3dx8d:jdapistd.obj
 0004:000142d8       _jpeg_resync_to_restart    00659c98 f   d3dx8d:jdmarker.obj
 0004:00014438       ?jinit_marker_reader@D3DX@@YAXPAUjpeg_decompress_struct@1@@Z 00659df8 f   d3dx8d:jdmarker.obj
 0004:00014636       _jpeg_std_error            00659ff6 f   d3dx8d:jerror.obj
 0004:00014698       _png_create_read_struct    0065a058 f   d3dx8d:pngread.obj
 0004:000147db       _png_read_init             0065a19b f   d3dx8d:pngread.obj
 0004:000148cb       _png_read_info             0065a28b f   d3dx8d:pngread.obj
 0004:00014a9a       _png_read_update_info      0065a45a f   d3dx8d:pngread.obj
 0004:00014ac4       _png_start_read_image      0065a484 f   d3dx8d:pngread.obj
 0004:00014ade       _png_read_row              0065a49e f   d3dx8d:pngread.obj
 0004:00014f6e       _png_read_rows             0065a92e f   d3dx8d:pngread.obj
 0004:00015006       _png_read_image            0065a9c6 f   d3dx8d:pngread.obj
 0004:00015066       _png_read_end              0065aa26 f   d3dx8d:pngread.obj
 0004:000151a6       _png_read_destroy          0065ab66 f   d3dx8d:pngread.obj
 0004:00015311       _png_set_read_status_fn    0065acd1 f   d3dx8d:pngread.obj
 0004:00015326       _png_destroy_read_struct   0065ace6 f   d3dx8d:pngread.obj
 0004:000153c7       _png_get_valid             0065ad87 f   d3dx8d:pngget.obj
 0004:000153ea       _png_get_rowbytes          0065adaa f   d3dx8d:pngget.obj
 0004:00015409       _png_get_channels          0065adc9 f   d3dx8d:pngget.obj
 0004:00015428       _png_get_signature         0065ade8 f   d3dx8d:pngget.obj
 0004:00015447       _png_get_gAMA              0065ae07 f   d3dx8d:pngget.obj
 0004:0001547c       _png_get_sRGB              0065ae3c f   d3dx8d:pngget.obj
 0004:000154b4       _png_get_IHDR              0065ae74 f   d3dx8d:pngget.obj
 0004:000155b9       _png_get_PLTE              0065af79 f   d3dx8d:pngget.obj
 0004:000155fa       _png_get_tRNS              0065afba f   d3dx8d:pngget.obj
 0004:0001567a       _png_set_bgr               0065b03a f   d3dx8d:pngtrans.obj
 0004:00015689       _png_set_packing           0065b049 f   d3dx8d:pngtrans.obj
 0004:000156ac       _png_set_shift             0065b06c f   d3dx8d:pngtrans.obj
 0004:000156cd       _png_set_interlace_handling 0065b08d f   d3dx8d:pngtrans.obj
 0004:000156f1       _png_set_filler            0065b0b1 f   d3dx8d:pngtrans.obj
 0004:00015752       _png_do_bgr                0065b112 f   d3dx8d:pngtrans.obj
 0004:00015840       _png_set_crc_action        0065b200 f   d3dx8d:pngrtran.obj
 0004:000158e0       _png_set_strip_16          0065b2a0 f   d3dx8d:pngrtran.obj
 0004:000158ef       _png_set_dither            0065b2af f   d3dx8d:pngrtran.obj
 0004:000160d1       _png_set_gamma             0065ba91 f   d3dx8d:pngrtran.obj
 0004:00016115       _png_set_expand            0065bad5 f   d3dx8d:pngrtran.obj
 0004:00016124       _png_set_palette_to_rgb    0065bae4 f   d3dx8d:pngrtran.obj
 0004:00016133       _png_set_gray_1_2_4_to_8   0065baf3 f   d3dx8d:pngrtran.obj
 0004:00016142       _png_set_tRNS_to_alpha     0065bb02 f   d3dx8d:pngrtran.obj
 0004:00016151       _png_read_transform_info   0065bb11 f   d3dx8d:pngrtran.obj
 0004:0001626f       _png_do_unpack             0065bc2f f   d3dx8d:pngrtran.obj
 0004:000163c3       _png_do_unshift            0065bd83 f   d3dx8d:pngrtran.obj
 0004:0001659b       _png_do_chop               0065bf5b f   d3dx8d:pngrtran.obj
 0004:000165f2       _png_do_read_filler        0065bfb2 f   d3dx8d:pngrtran.obj
 0004:000168b0       _png_build_grayscale_palette 0065c270 f   d3dx8d:pngrtran.obj
 0004:0001692a       _png_do_gamma              0065c2ea f   d3dx8d:pngrtran.obj
 0004:00016d4b       _png_do_expand_palette     0065c70b f   d3dx8d:pngrtran.obj
 0004:00016fd5       _png_do_expand             0065c995 f   d3dx8d:pngrtran.obj
 0004:00017400       _png_do_dither             0065cdc0 f   d3dx8d:pngrtran.obj
 0004:00017551       _png_build_gamma_table     0065cf11 f   d3dx8d:pngrtran.obj
 0004:0001791e       _png_init_read_transformations 0065d2de f   d3dx8d:pngrtran.obj
 0004:00017a75       _png_do_read_transformations 0065d435 f   d3dx8d:pngrtran.obj
 0004:00017c7b       _png_set_gAMA              0065d63b f   d3dx8d:pngset.obj
 0004:00017c9e       _png_set_IHDR              0065d65e f   d3dx8d:pngset.obj
 0004:00017d67       _png_set_PLTE              0065d727 f   d3dx8d:pngset.obj
 0004:00017d94       _png_set_sRGB              0065d754 f   d3dx8d:pngset.obj
 0004:00017db7       _png_set_sRGB_gAMA_and_cHRM 0065d777 f   d3dx8d:pngset.obj
 0004:00017dfe       _png_set_tRNS              0065d7be f   d3dx8d:pngset.obj
 0004:00017e56       _png_permit_empty_plte     0065d816 f   d3dx8d:pngset.obj
 0004:00017e70       _png_read_data             0065d830 f   d3dx8d:pngrio.obj
 0004:00017ea4       _png_set_read_fn           0065d864 f   d3dx8d:pngrio.obj
 0004:00017ef4       _png_get_header_version    0065d8b4 f   d3dx8d:png.obj
 0004:00017efa       _png_set_sig_bytes         0065d8ba f   d3dx8d:png.obj
 0004:00017f32       _png_sig_cmp               0065d8f2 f   d3dx8d:png.obj
 0004:00017f8e       _png_check_sig             0065d94e f   d3dx8d:png.obj
 0004:00017fae       _png_zalloc                0065d96e f   d3dx8d:png.obj
 0004:00018017       _png_zfree                 0065d9d7 f   d3dx8d:png.obj
 0004:00018022       _png_reset_crc             0065d9e2 f   d3dx8d:png.obj
 0004:00018043       _png_calculate_crc         0065da03 f   d3dx8d:png.obj
 0004:00018094       _png_info_init             0065da54 f   d3dx8d:png.obj
 0004:000180a9       _png_info_destroy          0065da69 f   d3dx8d:png.obj
 0004:000180be       _png_get_io_ptr            0065da7e f   d3dx8d:png.obj
 0004:000180cb       _png_get_copyright         0065da8b f   d3dx8d:png.obj
 0004:000180d1       ?png_check_version@D3DX@@YAXPAUpng_struct_def@1@@Z 0065da91 f   d3dx8d:png.obj
 0004:000180d2       _png_create_info_struct    0065da92 f   d3dx8d:png.obj
 0004:00018106       _png_destroy_info_struct   0065dac6 f   d3dx8d:png.obj
 0004:00018139       ??0IUnknown@@QAE@XZ        0065daf9 f i d3dx8d:cd3dxsprite.obj
 0004:0001813c       ?AddRef@CD3DXSprite@@UAGKXZ 0065dafc f   d3dx8d:cd3dxsprite.obj
 0004:00018493       ?BeginStateBlock@D3DDevice@@SGJXZ 0065de53 f i d3dx8d:cd3dxsprite.obj
 0004:0001849d       ?EndStateBlock@D3DDevice@@SGJPAK@Z 0065de5d f i d3dx8d:cd3dxsprite.obj
 0004:000184a8       ?ApplyStateBlock@D3DDevice@@SGJK@Z 0065de68 f i d3dx8d:cd3dxsprite.obj
 0004:000184bd       ?CaptureStateBlock@D3DDevice@@SGJK@Z 0065de7d f i d3dx8d:cd3dxsprite.obj
 0004:000184d2       ?DeleteStateBlock@D3DDevice@@SGJK@Z 0065de92 f i d3dx8d:cd3dxsprite.obj
 0004:000184e7       _cosf                      0065dea7 f i d3dx8d:cd3dxsprite.obj
 0004:000184f3       ??0D3DXVECTOR2@@QAE@XZ     0065deb3 f i d3dx8d:cd3dxsprite.obj
 0004:00018514       ??0ID3DXSprite@@QAE@XZ     0065ded4 f i d3dx8d:cd3dxsprite.obj
 0004:00018517       ??1CD3DXSprite@@QAE@XZ     0065ded7 f   d3dx8d:cd3dxsprite.obj
 0004:00018554       ?QueryInterface@CD3DXSprite@@UAGJABU_GUID@@PAPAX@Z 0065df14 f   d3dx8d:cd3dxsprite.obj
 0004:000185c7       ?Initialize@CD3DXSprite@@QAEJPAUD3DDevice@@@Z 0065df87 f   d3dx8d:cd3dxsprite.obj
 0004:00018b36       ?GetDevice@CD3DXSprite@@UAGJPAPAUD3DDevice@@@Z 0065e4f6 f   d3dx8d:cd3dxsprite.obj
 0004:00018b73       ?Begin@CD3DXSprite@@UAGJXZ 0065e533 f   d3dx8d:cd3dxsprite.obj
 0004:00018bc3       ?Draw@CD3DXSprite@@UAGJPAUD3DTexture@@PBUtagRECT@@PBUD3DXVECTOR2@@2M2K@Z 0065e583 f   d3dx8d:cd3dxsprite.obj
 0004:00018cd9       ??0SPRITE_VERTEX@@QAE@XZ   0065e699 f i d3dx8d:cd3dxsprite.obj
 0004:00018cdc       ?End@CD3DXSprite@@UAGJXZ   0065e69c f   d3dx8d:cd3dxsprite.obj
 0004:00018d1e       ??0CD3DXSprite@@QAE@XZ     0065e6de f   d3dx8d:cd3dxsprite.obj
 0004:00018d43       ?Release@CD3DXSprite@@UAGKXZ 0065e703 f   d3dx8d:cd3dxsprite.obj
 0004:00018d64       ?DrawTransform@CD3DXSprite@@UAGJPAUD3DTexture@@PBUtagRECT@@PBUD3DXMATRIX@@K@Z 0065e724 f   d3dx8d:cd3dxsprite.obj
 0004:00019111       ?AddRef@CD3DXRenderToSurface@@UAGKXZ 0065ead1 f   d3dx8d:cd3dxrendertosurface.obj
 0004:00019125       ?GetDesc@CD3DXRenderToSurface@@UAGJPAU_D3DXRTS_DESC@@@Z 0065eae5 f   d3dx8d:cd3dxrendertosurface.obj
 0004:00019166       ?CreateRenderTarget@D3DDevice@@SGJIIW4_D3DFORMAT@@KHPAPAUD3DSurface@@@Z 0065eb26 f i d3dx8d:cd3dxrendertosurface.obj
 0004:0001919a       ?CreateDepthStencilSurface@D3DDevice@@SGJIIW4_D3DFORMAT@@KPAPAUD3DSurface@@@Z 0065eb5a f i d3dx8d:cd3dxrendertosurface.obj
 0004:000191ce       ?CopyRects@D3DDevice@@SGJPAUD3DSurface@@PBUtagRECT@@I0PBUtagPOINT@@@Z 0065eb8e f i d3dx8d:cd3dxrendertosurface.obj
 0004:00019210       ??0ID3DXRenderToSurface@@QAE@XZ 0065ebd0 f i d3dx8d:cd3dxrendertosurface.obj
 0004:00019213       ??1CD3DXRenderToSurface@@QAE@XZ 0065ebd3 f   d3dx8d:cd3dxrendertosurface.obj
 0004:000192aa       ?Init@CD3DXRenderToSurface@@QAEJPAUD3DDevice@@IIW4_D3DFORMAT@@H1@Z 0065ec6a f   d3dx8d:cd3dxrendertosurface.obj
 0004:0001931b       ?QueryInterface@CD3DXRenderToSurface@@UAGJABU_GUID@@PAPAX@Z 0065ecdb f   d3dx8d:cd3dxrendertosurface.obj
 0004:00019373       ?GetDevice@CD3DXRenderToSurface@@UAGJPAPAUD3DDevice@@@Z 0065ed33 f   d3dx8d:cd3dxrendertosurface.obj
 0004:000193b0       ?BeginScene@CD3DXRenderToSurface@@UAGJPAUD3DSurface@@PBU_D3DVIEWPORT8@@@Z 0065ed70 f   d3dx8d:cd3dxrendertosurface.obj
 0004:00019632       ?EndScene@CD3DXRenderToSurface@@UAGJXZ 0065eff2 f   d3dx8d:cd3dxrendertosurface.obj
 0004:00019701       ??0CD3DXRenderToSurface@@QAE@XZ 0065f0c1 f   d3dx8d:cd3dxrendertosurface.obj
 0004:00019731       ?Release@CD3DXRenderToSurface@@UAGKXZ 0065f0f1 f   d3dx8d:cd3dxrendertosurface.obj
 0004:0001975b       ?RenderSphere@CD3DXRenderToEnvMap@@QAEJXZ 0065f11b f   d3dx8d:cd3dxrendertoenvmap.obj
 0004:00019761       ?RenderHemisphere@CD3DXRenderToEnvMap@@QAEJXZ 0065f121 f   d3dx8d:cd3dxrendertoenvmap.obj
 0004:00019767       ?RenderParabolic@CD3DXRenderToEnvMap@@QAEJXZ 0065f127 f   d3dx8d:cd3dxrendertoenvmap.obj
 0004:0001976d       ?QueryInterface@CD3DXRenderToEnvMap@@UAGJABU_GUID@@PAPAX@Z 0065f12d f   d3dx8d:cd3dxrendertoenvmap.obj
 0004:000197c5       ?AddRef@CD3DXRenderToEnvMap@@UAGKXZ 0065f185 f   d3dx8d:cd3dxrendertoenvmap.obj
 0004:000197d9       ?GetDesc@CD3DXRenderToEnvMap@@UAGJPAU_D3DXRTE_DESC@@@Z 0065f199 f   d3dx8d:cd3dxrendertoenvmap.obj
 0004:00019837       ??0ID3DXRenderToEnvMap@@QAE@XZ 0065f1f7 f i d3dx8d:cd3dxrendertoenvmap.obj
 0004:0001983a       ??1CD3DXRenderToEnvMap@@QAE@XZ 0065f1fa f   d3dx8d:cd3dxrendertoenvmap.obj
 0004:00019928       ?Init@CD3DXRenderToEnvMap@@QAEJPAUD3DDevice@@IW4_D3DFORMAT@@H1@Z 0065f2e8 f   d3dx8d:cd3dxrendertoenvmap.obj
 0004:000199ca       ?Begin@CD3DXRenderToEnvMap@@QAEJXZ 0065f38a f   d3dx8d:cd3dxrendertoenvmap.obj
 0004:00019a31       ?BeginScene@CD3DXRenderToEnvMap@@QAEJW4_D3DCUBEMAP_FACES@@@Z 0065f3f1 f   d3dx8d:cd3dxrendertoenvmap.obj
 0004:00019c0c       ?EndScene@CD3DXRenderToEnvMap@@QAEJXZ 0065f5cc f   d3dx8d:cd3dxrendertoenvmap.obj
 0004:00019c89       ?GetDevice@CD3DXRenderToEnvMap@@UAGJPAPAUD3DDevice@@@Z 0065f649 f   d3dx8d:cd3dxrendertoenvmap.obj
 0004:00019cc6       ?BeginCube@CD3DXRenderToEnvMap@@UAGJPAUD3DCubeTexture@@@Z 0065f686 f   d3dx8d:cd3dxrendertoenvmap.obj
 0004:00019d7f       ?BeginSphere@CD3DXRenderToEnvMap@@UAGJPAUD3DTexture@@@Z 0065f73f f   d3dx8d:cd3dxrendertoenvmap.obj
 0004:00019df8       ?BeginHemisphere@CD3DXRenderToEnvMap@@UAGJPAUD3DTexture@@0@Z 0065f7b8 f   d3dx8d:cd3dxrendertoenvmap.obj
 0004:00019e98       ?BeginParabolic@CD3DXRenderToEnvMap@@UAGJPAUD3DTexture@@0@Z 0065f858 f   d3dx8d:cd3dxrendertoenvmap.obj
 0004:00019f3d       ?Face@CD3DXRenderToEnvMap@@UAGJW4_D3DCUBEMAP_FACES@@@Z 0065f8fd f   d3dx8d:cd3dxrendertoenvmap.obj
 0004:00019f6a       ?End@CD3DXRenderToEnvMap@@UAGJXZ 0065f92a f   d3dx8d:cd3dxrendertoenvmap.obj
 0004:0001a04c       ??0CD3DXRenderToEnvMap@@QAE@XZ 0065fa0c f   d3dx8d:cd3dxrendertoenvmap.obj
 0004:0001a09e       ?Release@CD3DXRenderToEnvMap@@UAGKXZ 0065fa5e f   d3dx8d:cd3dxrendertoenvmap.obj
 0004:0001a0c8       ?XXEncodeBlockRGB@@YAXQAUS3TC_COLOR@@PAUS3TCBlockRGB@@@Z 0065fa88 f   d3dx8d:s3tchelp.obj
 0004:0001a14d       ?XXDecodeBlockRGB@@YAXPAUS3TCBlockRGB@@QAUS3TC_COLOR@@@Z 0065fb0d f   d3dx8d:s3tchelp.obj
 0004:0001a60c       ?DecodeBlockRGB@@YAXPAUS3TCBlockRGB@@QAUS3TC_COLOR@@@Z 0065ffcc f   d3dx8d:s3tc.obj
 0004:0001a72a       ?DecodeBlockAlpha4@@YAXPAUS3TCBlockAlpha4@@QAUS3TC_COLOR@@@Z 006600ea f   d3dx8d:s3tc.obj
 0004:0001a78b       ?DecodeBlockAlpha3@@YAXPAUS3TCBlockAlpha3@@QAUS3TC_COLOR@@@Z 0066014b f   d3dx8d:s3tc.obj
 0004:0001a8cb       ?EncodeBlockRGBColorKey@@YAXQAUS3TC_COLOR@@PAUS3TCBlockRGB@@U1@2@Z 0066028b f   d3dx8d:s3tc.obj
 0004:0001ae9f       ?EncodeBlockRGB@@YAXQAUS3TC_COLOR@@PAUS3TCBlockRGB@@@Z 0066085f f   d3dx8d:s3tc.obj
 0004:0001aedd       ?EncodeBlockAlpha4@@YAXQAUS3TC_COLOR@@PAUS3TCBlockAlpha4@@@Z 0066089d f   d3dx8d:s3tc.obj
 0004:0001af4c       ?EncodeBlockAlpha3@@YAXQAUS3TC_COLOR@@PAUS3TCBlockAlpha3@@@Z 0066090c f   d3dx8d:s3tc.obj
 0004:0001b0f7       ?jdiv_round_up@D3DX@@YAJJJ@Z 00660ab7 f   d3dx8d:jutils.obj
 0004:0001b10d       ?jround_up@D3DX@@YAJJJ@Z   00660acd f   d3dx8d:jutils.obj
 0004:0001b12d       ?jcopy_sample_rows@D3DX@@YAXPAPAEH0HHI@Z 00660aed f   d3dx8d:jutils.obj
 0004:0001b185       ?jcopy_block_row@D3DX@@YAXPAY0EA@F0I@Z 00660b45 f   d3dx8d:jutils.obj
 0004:0001b1b0       ?jzero_far@D3DX@@YAXPAXI@Z 00660b70 f   d3dx8d:jutils.obj
 0004:0001b1d4       ?IsMMX@D3DX@@YAHXZ         00660b94 f   d3dx8d:jutils.obj
 0004:0001b82c       ?jinit_input_controller@D3DX@@YAXPAUjpeg_decompress_struct@1@@Z 006611ec f   d3dx8d:jdinput.obj
 0004:0001c451       ?jinit_memory_mgr@D3DX@@YAXPAUjpeg_common_struct@1@@Z 00661e11 f   d3dx8d:jmemmgr.obj
 0004:0001c535       _jpeg_abort                00661ef5 f   d3dx8d:jcomapi.obj
 0004:0001c563       _jpeg_destroy              00661f23 f   d3dx8d:jcomapi.obj
 0004:0001c588       _jpeg_alloc_quant_table    00661f48 f   d3dx8d:jcomapi.obj
 0004:0001c5ae       _jpeg_alloc_huff_table     00661f6e f   d3dx8d:jcomapi.obj
 0004:0001c661       _jpeg_calc_output_dimensions 00662021 f   d3dx8d:jdmaster.obj
 0004:0001cd16       _jpeg_new_colormap         006626d6 f   d3dx8d:jdmaster.obj
 0004:0001cd95       ?jinit_master_decompress@D3DX@@YAXPAUjpeg_decompress_struct@1@@Z 00662755 f   d3dx8d:jdmaster.obj
 0004:0001cdd4       _inflateReset              00662794 f   d3dx8d:inflate.obj
 0004:0001ce27       _inflateEnd                006627e7 f   d3dx8d:inflate.obj
 0004:0001ce78       _inflateInit2_             00662838 f   d3dx8d:inflate.obj
 0004:0001cf96       _inflateInit_              00662956 f   d3dx8d:inflate.obj
 0004:0001cfb4       _inflate                   00662974 f   d3dx8d:inflate.obj
 0004:0001d406       _inflateSetDictionary      00662dc6 f   d3dx8d:inflate.obj
 0004:0001d49d       _inflateSync               00662e5d f   d3dx8d:inflate.obj
 0004:0001d576       _inflateSyncPoint          00662f36 f   d3dx8d:inflate.obj
 0004:0001d5a5       _png_create_struct         00662f65 f   d3dx8d:pngmem.obj
 0004:0001d5ff       _png_destroy_struct        00662fbf f   d3dx8d:pngmem.obj
 0004:0001d61d       _png_malloc                00662fdd f   d3dx8d:pngmem.obj
 0004:0001d666       _png_free                  00663026 f   d3dx8d:pngmem.obj
 0004:0001d68b       _png_memcpy_check          0066304b f   d3dx8d:pngmem.obj
 0004:0001d6b8       _png_memset_check          00663078 f   d3dx8d:pngmem.obj
 0004:0001d6f6       _png_get_uint_32           006630b6 f   d3dx8d:pngrutil.obj
 0004:0001d725       _png_get_uint_16           006630e5 f   d3dx8d:pngrutil.obj
 0004:0001d740       _png_crc_read              00663100 f   d3dx8d:pngrutil.obj
 0004:0001d760       _png_crc_error             00663120 f   d3dx8d:pngrutil.obj
 0004:0001d7d5       _png_check_chunk_name      00663195 f   d3dx8d:pngrutil.obj
 0004:0001d852       _png_combine_row           00663212 f   d3dx8d:pngrutil.obj
 0004:0001daed       _png_do_read_interlace     006634ad f   d3dx8d:pngrutil.obj
 0004:0001de68       _png_read_filter_row       00663828 f   d3dx8d:pngrutil.obj
 0004:0001e03f       _png_read_start_row        006639ff f   d3dx8d:pngrutil.obj
 0004:0001e245       _png_crc_finish            00663c05 f   d3dx8d:pngrutil.obj
 0004:0001e2f6       _png_handle_IHDR           00663cb6 f   d3dx8d:pngrutil.obj
 0004:0001e569       _png_handle_PLTE           00663f29 f   d3dx8d:pngrutil.obj
 0004:0001e6dd       _png_handle_IEND           0066409d f   d3dx8d:pngrutil.obj
 0004:0001e739       _png_handle_gAMA           006640f9 f   d3dx8d:pngrutil.obj
 0004:0001e886       _png_handle_sRGB           00664246 f   d3dx8d:pngrutil.obj
 0004:0001e9b0       _png_handle_tRNS           00664370 f   d3dx8d:pngrutil.obj
 0004:0001ebd1       _png_handle_unknown        00664591 f   d3dx8d:pngrutil.obj
 0004:0001ec2e       _png_read_finish_row       006645ee f   d3dx8d:pngrutil.obj
 0004:0001eee5       _get_crc_table             006648a5 f   d3dx8d:crc32.obj
 0004:0001eeeb       _crc32                     006648ab f   d3dx8d:crc32.obj
 0004:0001f018       ?jpeg_get_small@D3DX@@YAPAXPAUjpeg_common_struct@1@I@Z 006649d8 f   d3dx8d:jmemnobs.obj
 0004:0001f02e       ?jpeg_free_small@D3DX@@YAXPAUjpeg_common_struct@1@PAXI@Z 006649ee f   d3dx8d:jmemnobs.obj
 0004:0001f044       ?jpeg_get_large@D3DX@@YAPAXPAUjpeg_common_struct@1@I@Z 00664a04 f   d3dx8d:jmemnobs.obj
 0004:0001f05a       ?jpeg_free_large@D3DX@@YAXPAUjpeg_common_struct@1@PAXI@Z 00664a1a f   d3dx8d:jmemnobs.obj
 0004:0001f070       ?jpeg_mem_available@D3DX@@YAJPAUjpeg_common_struct@1@JJJ@Z 00664a30 f   d3dx8d:jmemnobs.obj
 0004:0001f07a       ?jpeg_open_backing_store@D3DX@@YAXPAUjpeg_common_struct@1@PAUbacking_store_struct@1@J@Z 00664a3a f   d3dx8d:jmemnobs.obj
 0004:0001f096       ?jpeg_mem_init@D3DX@@YAJPAUjpeg_common_struct@1@@Z 00664a56 f   d3dx8d:jmemnobs.obj
 0004:0001f099       ?jpeg_mem_term@D3DX@@YAXPAUjpeg_common_struct@1@@Z 00664a59 f   d3dx8d:jmemnobs.obj
 0004:0001f728       ?jinit_d_main_controller@D3DX@@YAXPAUjpeg_decompress_struct@1@E@Z 006650e8 f   d3dx8d:jdmainct.obj
 0004:00020684       ?jinit_d_coef_controller@D3DX@@YAXPAUjpeg_decompress_struct@1@E@Z 00666044 f   d3dx8d:jdcoefct.obj
 0004:000207ba       ?jpeg_make_d_derived_tbl@D3DX@@YAXPAUjpeg_decompress_struct@1@PAUJHUFF_TBL@1@PAPAUd_derived_tbl@1@@Z 0066617a f   d3dx8d:jdhuff.obj
 0004:000209ce       ?jpeg_fill_bit_buffer@D3DX@@YAEPAUbitread_working_state@1@JHH@Z 0066638e f   d3dx8d:jdhuff.obj
 0004:00020af2       ?jpeg_huff_decode@D3DX@@YAHPAUbitread_working_state@1@JHPAUd_derived_tbl@1@H@Z 006664b2 f   d3dx8d:jdhuff.obj
 0004:000212c6       ?jinit_huff_decoder@D3DX@@YAXPAUjpeg_decompress_struct@1@@Z 00666c86 f   d3dx8d:jdhuff.obj
 0004:0002215e       ?jinit_phuff_decoder@D3DX@@YAXPAUjpeg_decompress_struct@1@@Z 00667b1e f   d3dx8d:jdphuff.obj
 0004:000223ff       ?jinit_inverse_dct@D3DX@@YAXPAUjpeg_decompress_struct@1@@Z 00667dbf f   d3dx8d:jddctmgr.obj
 0004:00022743       ?jinit_d_post_controller@D3DX@@YAXPAUjpeg_decompress_struct@1@E@Z 00668103 f   d3dx8d:jdpostct.obj
 0004:00022d39       ?jinit_upsampler@D3DX@@YAXPAUjpeg_decompress_struct@1@@Z 006686f9 f   d3dx8d:jdsample.obj
 0004:00023272       ?MYCbCr2RGB@D3DX@@YAXHPAE000@Z 00668c32 f   d3dx8d:jdcolor.obj
 0004:000233fd       ?MYCbCrA2RGBA@D3DX@@YAXHPAE0000@Z 00668dbd f   d3dx8d:jdcolor.obj
 0004:00023576       ?MYCbCrA2RGBALegacy@D3DX@@YAXHPAE0000@Z 00668f36 f   d3dx8d:jdcolor.obj
 0004:000239a6       ?jinit_color_deconverter@D3DX@@YAXPAUjpeg_decompress_struct@1@@Z 00669366 f   d3dx8d:jdcolor.obj
